(dp1
S'f5_1'
p2
(lp3
(lp4
I1
aI4
aI498
aasS'f18_6'
p5
(lp6
(lp7
I2
aI1
aI500
aasS'f9_15'
p8
(lp9
(lp10
I3
aI1
aI499
aasS'f15_29'
p11
(lp12
(lp13
I4
aI66
aI181
aasS'f15_28'
p14
(lp15
(lp16
I5
aI5
aI499
aasS'f15_27'
p17
(lp18
(lp19
I5
aI7
aI498
aasS'f15_26'
p20
(lp21
(lp22
I5
aI15
aI500
aasS'f15_25'
p23
(lp24
(lp25
I4
aI31
aI217
aa(lp26
I5
aI55
aI500
aasS'f15_24'
p27
(lp28
(lp29
I6
aI150
aI242
aa(lp30
I4
aI31
aI220
aa(lp31
I7
aI1
aI82
aasS'f15_23'
p32
(lp33
(lp34
I7
aI1
aI88
aa(lp35
I5
aI2
aI500
aasS'f15_22'
p36
(lp37
(lp38
I5
aI75
aI500
aasS'f15_21'
p39
(lp40
(lp41
I5
aI41
aI500
aasS'f15_20'
p42
(lp43
(lp44
I5
aI2
aI496
aasS'f0_3'
p45
(lp46
(lp47
I8
aI1
aI500
aasS'ID_30_F1_9_F2_9_G_1_SplitPt_249_GenID_0'
p48
(lp49
(lp50
I3
aI67
aI495
aasS'ID_57_F1_8_F2_13_G_1_SplitPt_143_GenID_0'
p51
(lp52
(lp53
I9
aI2
aI159
aa(lp54
I10
aI106
aI499
aasS'f3_30'
p55
(lp56
(lp57
I11
aI1
aI500
aasS'f3_31'
p58
(lp59
(lp60
I11
aI1
aI500
aasS'f19_29'
p61
(lp62
(lp63
I12
aI1
aI89
aa(lp64
I13
aI55
aI499
aasS'f0_2'
p65
(lp66
(lp67
I8
aI1
aI500
aasS'f19_28'
p68
(lp69
(lp70
I12
aI1
aI82
aa(lp71
I13
aI5
aI500
aasS'ID_65_F1_2_F2_2_G_1_SplitPt_220_GenID_0'
p72
(lp73
(lp74
I14
aI1
aI500
aasS'ID_111_F1_15_F2_9_G_1_SplitPt_84_GenID_0'
p75
(lp76
(lp77
I15
aI260
aI322
aasS'f17_8'
p78
(lp79
(lp80
I16
aI1
aI499
aasS'f2_11'
p81
(lp82
(lp83
I14
aI1
aI500
aasS'f2_10'
p84
(lp85
(lp86
I14
aI1
aI500
aasS'f2_13'
p87
(lp88
(lp89
I14
aI1
aI500
aasS'f2_12'
p90
(lp91
(lp92
I14
aI1
aI499
aasS'f2_15'
p93
(lp94
(lp95
I14
aI1
aI500
aasS'f2_14'
p96
(lp97
(lp98
I14
aI1
aI500
aasS'f2_17'
p99
(lp100
(lp101
I14
aI2
aI500
aasS'f2_16'
p102
(lp103
(lp104
I14
aI2
aI499
aasS'f2_19'
p105
(lp106
(lp107
I14
aI3
aI499
aasS'f2_18'
p108
(lp109
(lp110
I14
aI2
aI500
aasS'ID_34_F1_15_F2_14_G_0_SplitPt_163_GenID_0'
p111
(lp112
(lp113
I17
aI2
aI183
aa(lp114
I18
aI147
aI499
aasS'f19_25'
p115
(lp116
(lp117
I13
aI46
aI500
aasS'f15_19'
p118
(lp119
(lp120
I7
aI1
aI88
aasS'f17_0'
p121
(lp122
(lp123
I16
aI1
aI500
aasS'f17_1'
p124
(lp125
(lp126
I16
aI1
aI500
aasS'f8_31'
p127
(lp128
(lp129
I9
aI4
aI500
aasS'f8_30'
p130
(lp131
(lp132
I9
aI4
aI500
aasS'ID_54_F1_17_F2_18_G_3_SplitPt_237_GenID_0'
p133
(lp134
(lp135
I19
aI301
aI353
aa(lp136
I16
aI1
aI291
aasS'f5_30'
p137
(lp138
(lp139
I1
aI1
aI500
aasS'f0_15'
p140
(lp141
(lp142
I8
aI3
aI500
aasS'ID_121_F1_19_F2_15_G_2_SplitPt_146_GenID_0'
p143
(lp144
(lp145
I6
aI148
aI242
aa(lp146
I20
aI1
aI146
aasS'ID_39_F1_7_F2_0_G_3_SplitPt_193_GenID_0'
p147
(lp148
(lp149
I21
aI1
aI202
aa(lp150
I8
aI119
aI500
aasS'ID_115_F1_8_F2_0_G_0_SplitPt_167_GenID_0'
p151
(lp152
(lp153
I9
aI2
aI167
aa(lp154
I8
aI92
aI495
aasS'ID_123_F1_5_F2_0_G_1_SplitPt_87_GenID_0'
p155
(lp156
(lp157
I1
aI24
aI85
aa(lp158
I8
aI49
aI498
aasS'f10_20'
p159
(lp160
(lp161
I22
aI1
aI498
aasS'f11_23'
p162
(lp163
(lp164
I16
aI1
aI499
aasS'f11_22'
p165
(lp166
(lp167
I16
aI1
aI493
aasS'f11_21'
p168
(lp169
(lp170
I16
aI2
aI499
aasS'f11_20'
p171
(lp172
(lp173
I16
aI1
aI499
aasS'f11_27'
p174
(lp175
(lp176
I16
aI1
aI499
aasS'f11_26'
p177
(lp178
(lp179
I16
aI3
aI499
aasS'f11_25'
p180
(lp181
(lp182
I16
aI3
aI500
aasS'f11_24'
p183
(lp184
(lp185
I16
aI1
aI498
aasS'f11_29'
p186
(lp187
(lp188
I16
aI4
aI494
aasS'f10_23'
p189
(lp190
(lp191
I22
aI1
aI498
aasS'ID_47_F1_10_F2_17_G_4_SplitPt_226_GenID_0'
p192
(lp193
(lp194
I22
aI1
aI333
aa(lp195
I16
aI179
aI500
aasS'ID_20_F1_2_F2_3_G_3_SplitPt_203_GenID_0'
p196
(lp197
(lp198
I11
aI140
aI500
aa(lp199
I14
aI1
aI322
aasS'f4_31'
p200
(lp201
(lp202
I23
aI6
aI67
aa(lp203
I24
aI15
aI189
aa(lp204
I25
aI58
aI500
aasS'f4_30'
p205
(lp206
(lp207
I24
aI5
aI189
aa(lp208
I25
aI54
aI500
aasS'ID_32_F1_9_F2_13_G_2_SplitPt_164_GenID_0'
p209
(lp210
(lp211
I10
aI102
aI499
aa(lp212
I3
aI1
aI173
aasS'f7_23'
p213
(lp214
(lp215
I21
aI12
aI499
aasS'f8_6'
p216
(lp217
(lp218
I9
aI1
aI500
aasS'f7_21'
p219
(lp220
(lp221
I21
aI3
aI498
aasS'f16_22'
p222
(lp223
(lp224
I26
aI1
aI500
aasS'f7_20'
p225
(lp226
(lp227
I21
aI3
aI498
aasS'f16_23'
p228
(lp229
(lp230
I26
aI1
aI500
aasS'f7_27'
p231
(lp232
(lp233
I21
aI1
aI500
aasS'ID_7_F1_6_F2_12_G_0_SplitPt_57_GenID_0'
p234
(lp235
(lp236
I27
aI49
aI498
aasS'f16_20'
p237
(lp238
(lp239
I26
aI1
aI500
aasS'ID_21_F1_4_F2_10_G_0_SplitPt_191_GenID_0'
p240
(lp241
(lp242
I24
aI3
aI204
aa(lp243
I22
aI171
aI495
aasS'f7_26'
p244
(lp245
(lp246
I21
aI1
aI500
aasS'f3_0'
p247
(lp248
(lp249
I11
aI1
aI499
aasS'f16_21'
p250
(lp251
(lp252
I26
aI1
aI500
aasS'f7_25'
p253
(lp254
(lp255
I21
aI2
aI495
aasS'f3_1'
p256
(lp257
(lp258
I11
aI2
aI500
aasS'f16_26'
p259
(lp260
(lp261
I26
aI1
aI500
aasS'f7_24'
p262
(lp263
(lp264
I21
aI2
aI500
aasS'f3_2'
p265
(lp266
(lp267
I11
aI1
aI499
aasS'f16_27'
p268
(lp269
(lp270
I26
aI1
aI499
aasS'f3_3'
p271
(lp272
(lp273
I11
aI1
aI500
aasS'f16_24'
p274
(lp275
(lp276
I26
aI1
aI499
aasS'f14_31'
p277
(lp278
(lp279
I28
aI3
aI89
aasS'f14_30'
p280
(lp281
(lp282
I18
aI1
aI500
aasS'f3_4'
p283
(lp284
(lp285
I11
aI4
aI498
aasS'f16_25'
p286
(lp287
(lp288
I26
aI1
aI500
aasS'f3_5'
p289
(lp290
(lp291
I11
aI2
aI498
aasS'f15_16'
p292
(lp293
(lp294
I7
aI1
aI97
aasS'f15_17'
p295
(lp296
(lp297
I7
aI1
aI97
aasS'f15_14'
p298
(lp299
(lp300
I5
aI2
aI500
aasS'f15_15'
p301
(lp302
(lp303
I5
aI2
aI500
aasS'f15_12'
p304
(lp305
(lp306
I5
aI1
aI500
aasS'f15_13'
p307
(lp308
(lp309
I5
aI2
aI500
aasS'f15_10'
p310
(lp311
(lp312
I17
aI8
aI156
aasS'f15_11'
p313
(lp314
(lp315
I5
aI2
aI499
aasS'f19_23'
p316
(lp317
(lp318
I20
aI1
aI146
aa(lp319
I13
aI3
aI492
aasS'f19_22'
p320
(lp321
(lp322
I20
aI1
aI146
aa(lp323
I13
aI5
aI494
aasS'f19_21'
p324
(lp325
(lp326
I20
aI1
aI140
aa(lp327
I13
aI2
aI495
aasS'f19_20'
p328
(lp329
(lp330
I29
aI77
aI287
aa(lp331
I20
aI1
aI175
aasS'f19_27'
p332
(lp333
(lp334
I13
aI54
aI492
aasS'f19_26'
p335
(lp336
(lp337
I20
aI1
aI166
aa(lp338
I13
aI52
aI500
aasS'f15_18'
p339
(lp340
(lp341
I7
aI1
aI85
aasS'f19_24'
p342
(lp343
(lp344
I13
aI9
aI500
aasS'f10_28'
p345
(lp346
(lp347
I22
aI1
aI500
aasS'f10_29'
p348
(lp349
(lp350
I22
aI1
aI500
aasS'f10_24'
p351
(lp352
(lp353
I22
aI1
aI499
aasS'f10_25'
p354
(lp355
(lp356
I22
aI1
aI499
aasS'f10_26'
p357
(lp358
(lp359
I22
aI2
aI500
aasS'f10_27'
p360
(lp361
(lp362
I30
aI356
aI426
aasS'ID_113_F1_16_F2_12_G_0_SplitPt_204_GenID_0'
p363
(lp364
(lp365
I27
aI40
aI499
aa(lp366
I26
aI1
aI208
aasS'f10_21'
p367
(lp368
(lp369
I22
aI1
aI500
aasS'f10_22'
p370
(lp371
(lp372
I22
aI1
aI498
aasS'f13_15'
p373
(lp374
(lp375
I10
aI1
aI500
aasS'ID_102_F1_6_F2_5_G_1_SplitPt_103_GenID_0'
p376
(lp377
(lp378
I31
aI103
aI175
aa(lp379
I32
aI2
aI109
aasS'ID_16_F1_10_F2_10_G_0_SplitPt_208_GenID_0'
p380
(lp381
(lp382
I22
aI10
aI489
aasS'f0_28'
p383
(lp384
(lp385
I8
aI7
aI500
aasS'ID_62_F1_3_F2_10_G_2_SplitPt_240_GenID_0'
p386
(lp387
(lp388
I11
aI1
aI236
aa(lp389
I22
aI239
aI500
aasS'f16_1'
p390
(lp391
(lp392
I26
aI1
aI499
aasS'f13_10'
p393
(lp394
(lp395
I33
aI337
aI474
aasS'f13_11'
p396
(lp397
(lp398
I10
aI1
aI499
aasS'f13_12'
p399
(lp400
(lp401
I10
aI4
aI498
aasS'f13_13'
p402
(lp403
(lp404
I10
aI4
aI499
aasS'f13_14'
p405
(lp406
(lp407
I10
aI1
aI500
aasS'ID_83_F1_1_F2_8_G_0_SplitPt_86_GenID_0'
p408
(lp409
(lp410
I9
aI81
aI500
aasS'f13_16'
p411
(lp412
(lp413
I10
aI1
aI497
aasS'f13_17'
p414
(lp415
(lp416
I33
aI337
aI474
aasS'f13_18'
p417
(lp418
(lp419
I10
aI1
aI497
aasS'f13_19'
p420
(lp421
(lp422
I10
aI1
aI474
aasS'ID_23_F1_11_F2_8_G_3_SplitPt_185_GenID_0'
p423
(lp424
(lp425
I9
aI174
aI500
aa(lp426
I16
aI1
aI203
aasS'ID_3_F1_9_F2_16_G_2_SplitPt_76_GenID_0'
p427
(lp428
(lp429
I34
aI150
aI217
aa(lp430
I35
aI1
aI82
aasS'f1_6'
p431
(lp432
(lp433
I36
aI36
aI500
aasS'f16_8'
p434
(lp435
(lp436
I26
aI1
aI499
aasS'f18_24'
p437
(lp438
(lp439
I2
aI2
aI499
aasS'f18_25'
p440
(lp441
(lp442
I2
aI3
aI499
aasS'f18_26'
p443
(lp444
(lp445
I2
aI2
aI500
aasS'f18_27'
p446
(lp447
(lp448
I2
aI4
aI500
aasS'f18_20'
p449
(lp450
(lp451
I2
aI1
aI500
aasS'f18_21'
p452
(lp453
(lp454
I2
aI2
aI500
aasS'f18_22'
p455
(lp456
(lp457
I2
aI4
aI500
aasS'f18_23'
p458
(lp459
(lp460
I2
aI2
aI500
aasS'f18_28'
p461
(lp462
(lp463
I2
aI1
aI500
aasS'f18_29'
p464
(lp465
(lp466
I2
aI1
aI500
aasS'f11_18'
p467
(lp468
(lp469
I16
aI4
aI498
aasS'f11_19'
p470
(lp471
(lp472
I16
aI6
aI498
aasS'ID_38_F1_9_F2_3_G_1_SplitPt_93_GenID_0'
p473
(lp474
(lp475
I37
aI385
aI490
aa(lp476
I38
aI8
aI93
aasS'ID_52_F1_0_F2_1_G_4_SplitPt_154_GenID_0'
p477
(lp478
(lp479
I36
aI119
aI500
aa(lp480
I8
aI1
aI228
aasS'f11_13'
p481
(lp482
(lp483
I16
aI1
aI498
aasS'f11_10'
p484
(lp485
(lp486
I16
aI1
aI498
aasS'f1_1'
p487
(lp488
(lp489
I36
aI17
aI495
aasS'f11_16'
p490
(lp491
(lp492
I16
aI4
aI500
aasS'f11_17'
p493
(lp494
(lp495
I16
aI2
aI500
aasS'f11_14'
p496
(lp497
(lp498
I16
aI1
aI499
aasS'f11_15'
p499
(lp500
(lp501
I16
aI1
aI500
aasS'f9_14'
p502
(lp503
(lp504
I3
aI5
aI500
aasS'ID_109_F1_0_F2_17_G_2_SplitPt_247_GenID_0'
p505
(lp506
(lp507
I39
aI170
aI240
aa(lp508
I16
aI238
aI500
aasS'f9_16'
p509
(lp510
(lp511
I38
aI10
aI121
aa(lp512
I3
aI24
aI500
aasS'f9_17'
p513
(lp514
(lp515
I3
aI1
aI498
aasS'f9_10'
p516
(lp517
(lp518
I3
aI1
aI498
aasS'f9_11'
p519
(lp520
(lp521
I3
aI1
aI500
aasS'f9_12'
p522
(lp523
(lp524
I3
aI1
aI500
aasS'f9_13'
p525
(lp526
(lp527
I3
aI1
aI500
aasS'f9_18'
p528
(lp529
(lp530
I38
aI11
aI102
aa(lp531
I3
aI62
aI500
aasS'f9_19'
p532
(lp533
(lp534
I38
aI7
aI102
aa(lp535
I3
aI14
aI499
aasS'f17_27'
p536
(lp537
(lp538
I16
aI3
aI500
aasS'ID_42_F1_5_F2_16_G_1_SplitPt_139_GenID_0'
p539
(lp540
(lp541
I1
aI1
aI178
aa(lp542
I26
aI135
aI499
aasS'f7_16'
p543
(lp544
(lp545
I40
aI1
aI52
aasS'f7_17'
p546
(lp547
(lp548
I40
aI1
aI51
aasS'f7_14'
p549
(lp550
(lp551
I21
aI1
aI465
aasS'f7_15'
p552
(lp553
(lp554
I21
aI1
aI451
aasS'f7_12'
p555
(lp556
(lp557
I21
aI2
aI499
aasS'f7_13'
p558
(lp559
(lp560
I21
aI4
aI500
aasS'f7_10'
p561
(lp562
(lp563
I21
aI5
aI500
aasS'f7_11'
p564
(lp565
(lp566
I21
aI1
aI500
aasS'f5_10'
p567
(lp568
(lp569
I1
aI1
aI500
aasS'f5_11'
p570
(lp571
(lp572
I1
aI17
aI500
aasS'f5_12'
p573
(lp574
(lp575
I1
aI4
aI500
aasS'f5_13'
p576
(lp577
(lp578
I1
aI2
aI500
aasS'f5_14'
p579
(lp580
(lp581
I1
aI4
aI500
aasS'f5_15'
p582
(lp583
(lp584
I1
aI10
aI500
aasS'f7_18'
p585
(lp586
(lp587
I21
aI2
aI499
aasS'f7_19'
p588
(lp589
(lp590
I40
aI1
aI51
aasS'ID_31_F1_9_F2_8_G_1_SplitPt_119_GenID_0'
p591
(lp592
(lp593
I38
aI2
aI121
aa(lp594
I9
aI91
aI500
aasS'f12_31'
p595
(lp596
(lp597
I41
aI1
aI80
aa(lp598
I27
aI3
aI491
aasS'f12_30'
p599
(lp600
(lp601
I41
aI1
aI80
aasS'ID_114_F1_4_F2_12_G_4_SplitPt_77_GenID_0'
p602
(lp603
(lp604
I23
aI1
aI82
aa(lp605
I27
aI62
aI500
aasS'f9_8'
p606
(lp607
(lp608
I3
aI1
aI500
aasS'f3_16'
p609
(lp610
(lp611
I11
aI1
aI499
aasS'ID_27_F1_2_F2_19_G_3_SplitPt_178_GenID_0'
p612
(lp613
(lp614
I13
aI152
aI499
aa(lp615
I14
aI1
aI253
aasS'f5_9'
p616
(lp617
(lp618
I1
aI1
aI500
aasS'f9_7'
p619
(lp620
(lp621
I3
aI24
aI500
aasS'ID_60_F1_1_F2_15_G_2_SplitPt_96_GenID_0'
p622
(lp623
(lp624
I5
aI91
aI500
aa(lp625
I36
aI1
aI109
aasS'f17_31'
p626
(lp627
(lp628
I16
aI2
aI500
aasS'ID_105_F1_16_F2_6_G_4_SplitPt_97_GenID_0'
p629
(lp630
(lp631
I32
aI92
aI500
aa(lp632
I26
aI1
aI120
aasS'ID_73_F1_15_F2_7_G_0_SplitPt_184_GenID_0'
p633
(lp634
(lp635
I4
aI18
aI200
aa(lp636
I21
aI135
aI500
aasS'f13_7'
p637
(lp638
(lp639
I10
aI1
aI500
aasS'f9_2'
p640
(lp641
(lp642
I3
aI1
aI500
aasS'f3_17'
p643
(lp644
(lp645
I11
aI1
aI500
aasS'ID_103_F1_1_F2_13_G_1_SplitPt_116_GenID_0'
p646
(lp647
(lp648
I10
aI68
aI500
aa(lp649
I36
aI3
aI116
aasS'ID_117_F1_11_F2_2_G_0_SplitPt_88_GenID_0'
p650
(lp651
(lp652
I14
aI35
aI500
aasS'f9_1'
p653
(lp654
(lp655
I3
aI3
aI500
aasS'ID_108_F1_7_F2_18_G_4_SplitPt_226_GenID_0'
p656
(lp657
(lp658
I42
aI113
aI239
aa(lp659
I40
aI1
aI51
aa(lp660
I2
aI172
aI500
aasS'ID_71_F1_2_F2_16_G_3_SplitPt_149_GenID_0'
p661
(lp662
(lp663
I14
aI1
aI222
aa(lp664
I26
aI135
aI499
aasS'ID_43_F1_16_F2_14_G_1_SplitPt_250_GenID_0'
p665
(lp666
(lp667
I43
aI239
aI371
aa(lp668
I26
aI1
aI304
aasS'ID_1_F1_13_F2_7_G_0_SplitPt_112_GenID_0'
p669
(lp670
(lp671
I21
aI103
aI499
aa(lp672
I10
aI23
aI114
aasS'f7_4'
p673
(lp674
(lp675
I44
aI309
aI498
aasS'f7_5'
p676
(lp677
(lp678
I21
aI1
aI500
aasS'f7_6'
p679
(lp680
(lp681
I45
aI1
aI99
aa(lp682
I21
aI2
aI497
aasS'f7_7'
p683
(lp684
(lp685
I21
aI11
aI498
aasS'f7_0'
p686
(lp687
(lp688
I21
aI12
aI498
aasS'f7_1'
p689
(lp690
(lp691
I21
aI8
aI500
aasS'f7_2'
p692
(lp693
(lp694
I21
aI2
aI498
aasS'f7_3'
p695
(lp696
(lp697
I21
aI5
aI498
aasS'f7_8'
p698
(lp699
(lp700
I21
aI2
aI500
aasS'f7_9'
p701
(lp702
(lp703
I21
aI2
aI500
aasS'ID_79_F1_0_F2_10_G_2_SplitPt_169_GenID_0'
p704
(lp705
(lp706
I22
aI151
aI500
aa(lp707
I8
aI6
aI190
aasS'f2_7'
p708
(lp709
(lp710
I14
aI1
aI499
aasS'f2_6'
p711
(lp712
(lp713
I14
aI1
aI499
aasS'f19_12'
p714
(lp715
(lp716
I46
aI404
aI491
aa(lp717
I47
aI1
aI125
aasS'ID_104_F1_13_F2_11_G_3_SplitPt_154_GenID_0'
p718
(lp719
(lp720
I10
aI1
aI184
aa(lp721
I16
aI116
aI500
aasS'f19_10'
p722
(lp723
(lp724
I48
aI1
aI55
aa(lp725
I13
aI7
aI500
aasS'f19_11'
p726
(lp727
(lp728
I29
aI60
aI287
aa(lp729
I48
aI1
aI55
aasS'f19_16'
p730
(lp731
(lp732
I20
aI4
aI143
aa(lp733
I13
aI12
aI499
aasS'f19_17'
p734
(lp735
(lp736
I20
aI7
aI140
aasS'f19_14'
p737
(lp738
(lp739
I47
aI1
aI123
aa(lp740
I13
aI10
aI499
aasS'f19_15'
p741
(lp742
(lp743
I48
aI1
aI55
aa(lp744
I13
aI113
aI500
aasS'f5_2'
p745
(lp746
(lp747
I1
aI1
aI500
aasS'f5_3'
p748
(lp749
(lp750
I49
aI142
aI287
aasS'f19_18'
p751
(lp752
(lp753
I13
aI8
aI500
aasS'f19_19'
p754
(lp755
(lp756
I20
aI4
aI138
aa(lp757
I13
aI51
aI500
aasS'f5_6'
p758
(lp759
(lp760
I1
aI5
aI500
aasS'f5_7'
p761
(lp762
(lp763
I1
aI1
aI499
aasS'f5_4'
p764
(lp765
(lp766
I1
aI1
aI500
aasS'f5_5'
p767
(lp768
(lp769
I1
aI6
aI500
aasS'ID_11_F1_16_F2_2_G_2_SplitPt_91_GenID_0'
p770
(lp771
(lp772
I14
aI67
aI500
aa(lp773
I26
aI1
aI112
aasS'f15_7'
p774
(lp775
(lp776
I17
aI3
aI180
aa(lp777
I5
aI46
aI500
aasS'ID_88_F1_6_F2_18_G_4_SplitPt_179_GenID_0'
p778
(lp779
(lp780
I2
aI180
aI500
aa(lp781
I32
aI1
aI400
aasS'f11_11'
p782
(lp783
(lp784
I16
aI1
aI499
aasS'f0_9'
p785
(lp786
(lp787
I8
aI1
aI500
aasS'f0_8'
p788
(lp789
(lp790
I8
aI1
aI500
aasS'ID_68_F1_6_F2_15_G_0_SplitPt_71_GenID_0'
p791
(lp792
(lp793
I50
aI2
aI75
aa(lp794
I5
aI19
aI496
aasS'f8_26'
p795
(lp796
(lp797
I9
aI7
aI500
aasS'f8_27'
p798
(lp799
(lp800
I9
aI2
aI500
aasS'f8_24'
p801
(lp802
(lp803
I9
aI4
aI500
aasS'f8_25'
p804
(lp805
(lp806
I9
aI2
aI500
aasS'f8_22'
p807
(lp808
(lp809
I9
aI42
aI499
aasS'f8_23'
p810
(lp811
(lp812
I9
aI34
aI499
aasS'f8_20'
p813
(lp814
(lp815
I9
aI51
aI500
aasS'f8_21'
p816
(lp817
(lp818
I9
aI47
aI500
aasS'f3_8'
p819
(lp820
(lp821
I11
aI2
aI500
aasS'f3_9'
p822
(lp823
(lp824
I11
aI1
aI500
aasS'f8_28'
p825
(lp826
(lp827
I9
aI4
aI499
aasS'f8_29'
p828
(lp829
(lp830
I9
aI4
aI500
aasS'ID_26_F1_16_F2_13_G_4_SplitPt_180_GenID_0'
p831
(lp832
(lp833
I10
aI147
aI500
aa(lp834
I26
aI1
aI279
aasS'f1_7'
p835
(lp836
(lp837
I36
aI36
aI500
aasS'f1_4'
p838
(lp839
(lp840
I36
aI44
aI500
aasS'f1_5'
p841
(lp842
(lp843
I36
aI6
aI500
aasS'f1_2'
p844
(lp845
(lp846
I36
aI22
aI499
aasS'f1_3'
p847
(lp848
(lp849
I36
aI2
aI497
aasS'f1_0'
p850
(lp851
(lp852
I36
aI17
aI500
aasS'ID_126_F1_19_F2_7_G_3_SplitPt_89_GenID_0'
p853
(lp854
(lp855
I12
aI1
aI89
aa(lp856
I21
aI83
aI500
aasS'f1_8'
p857
(lp858
(lp859
I36
aI5
aI499
aasS'f1_9'
p860
(lp861
(lp862
I36
aI2
aI499
aasS'ID_92_F1_0_F2_5_G_4_SplitPt_228_GenID_0'
p863
(lp864
(lp865
I51
aI157
aI224
aa(lp866
I1
aI195
aI500
aasS'f9_26'
p867
(lp868
(lp869
I3
aI2
aI500
aasS'ID_72_F1_0_F2_19_G_1_SplitPt_230_GenID_0'
p870
(lp871
(lp872
I13
aI102
aI500
aa(lp873
I8
aI2
aI229
aasS'f9_9'
p874
(lp875
(lp876
I3
aI1
aI500
aasS'f9_6'
p877
(lp878
(lp879
I3
aI24
aI500
aasS'f19_30'
p880
(lp881
(lp882
I12
aI2
aI89
aa(lp883
I13
aI9
aI499
aasS'f9_4'
p884
(lp885
(lp886
I3
aI14
aI500
aasS'f9_5'
p887
(lp888
(lp889
I3
aI10
aI500
aasS'ID_10_F1_16_F2_4_G_3_SplitPt_118_GenID_0'
p890
(lp891
(lp892
I25
aI62
aI499
aa(lp893
I26
aI1
aI150
aasS'f9_3'
p894
(lp895
(lp896
I3
aI7
aI500
aasS'f9_0'
p897
(lp898
(lp899
I3
aI6
aI500
aasS'f14_25'
p900
(lp901
(lp902
I18
aI28
aI499
aasS'ID_40_F1_4_F2_11_G_1_SplitPt_61_GenID_0'
p903
(lp904
(lp905
I23
aI2
aI41
aa(lp906
I16
aI53
aI496
aasS'ID_46_F1_8_F2_9_G_1_SplitPt_142_GenID_0'
p907
(lp908
(lp909
I9
aI8
aI131
aa(lp910
I3
aI119
aI500
aasS'f17_9'
p911
(lp912
(lp913
I16
aI9
aI500
aasS'f2_28'
p914
(lp915
(lp916
I14
aI1
aI500
aasS'f9_29'
p917
(lp918
(lp919
I35
aI1
aI76
aa(lp920
I3
aI26
aI500
aasS'f9_28'
p921
(lp922
(lp923
I35
aI1
aI76
aa(lp924
I3
aI42
aI499
aasS'ID_80_F1_3_F2_4_G_3_SplitPt_230_GenID_0'
p925
(lp926
(lp927
I25
aI136
aI500
aa(lp928
I11
aI4
aI282
aasS'f9_25'
p929
(lp930
(lp931
I3
aI7
aI500
aasS'f9_24'
p932
(lp933
(lp934
I3
aI1
aI499
aasS'f9_27'
p935
(lp936
(lp937
I3
aI19
aI500
aasS'ID_106_F1_19_F2_5_G_4_SplitPt_55_GenID_0'
p938
(lp939
(lp940
I48
aI1
aI55
aa(lp941
I1
aI2
aI500
aasS'f9_21'
p942
(lp943
(lp944
I38
aI2
aI119
aasS'f9_20'
p945
(lp946
(lp947
I3
aI140
aI500
aasS'f9_23'
p948
(lp949
(lp950
I3
aI2
aI499
aasS'f9_22'
p951
(lp952
(lp953
I38
aI2
aI112
aasS'f5_21'
p954
(lp955
(lp956
I49
aI142
aI287
aasS'f5_20'
p957
(lp958
(lp959
I1
aI1
aI500
aasS'f5_23'
p960
(lp961
(lp962
I1
aI1
aI500
aasS'f5_22'
p963
(lp964
(lp965
I1
aI1
aI500
aasS'f5_25'
p966
(lp967
(lp968
I1
aI3
aI500
aasS'f5_24'
p969
(lp970
(lp971
I1
aI3
aI499
aasS'f5_27'
p972
(lp973
(lp974
I1
aI1
aI500
aasS'f5_26'
p975
(lp976
(lp977
I1
aI1
aI500
aasS'f5_29'
p978
(lp979
(lp980
I1
aI1
aI498
aasS'f5_28'
p981
(lp982
(lp983
I1
aI1
aI500
aasS'f10_14'
p984
(lp985
(lp986
I22
aI2
aI499
aasS'f10_9'
p987
(lp988
(lp989
I22
aI1
aI500
aasS'f4_28'
p990
(lp991
(lp992
I24
aI3
aI169
aa(lp993
I25
aI13
aI500
aasS'f4_29'
p994
(lp995
(lp996
I24
aI3
aI189
aasS'f10_8'
p997
(lp998
(lp999
I22
aI2
aI500
aasS'f4_22'
p1000
(lp1001
(lp1002
I25
aI13
aI492
aasS'f4_23'
p1003
(lp1004
(lp1005
I25
aI15
aI494
aasS'f4_20'
p1006
(lp1007
(lp1008
I24
aI13
aI195
aasS'f4_21'
p1009
(lp1010
(lp1011
I24
aI15
aI203
aasS'f4_26'
p1012
(lp1013
(lp1014
I25
aI50
aI499
aasS'f4_27'
p1015
(lp1016
(lp1017
I24
aI4
aI174
aa(lp1018
I25
aI46
aI498
aasS'f4_24'
p1019
(lp1020
(lp1021
I24
aI3
aI191
aa(lp1022
I25
aI13
aI492
aasS'f4_25'
p1023
(lp1024
(lp1025
I24
aI4
aI174
aa(lp1026
I25
aI40
aI500
aasS'f2_20'
p1027
(lp1028
(lp1029
I14
aI2
aI500
aasS'f10_18'
p1030
(lp1031
(lp1032
I22
aI1
aI495
aasS'ID_36_F1_12_F2_1_G_3_SplitPt_212_GenID_0'
p1033
(lp1034
(lp1035
I27
aI1
aI254
aa(lp1036
I36
aI114
aI500
aasS'f5_16'
p1037
(lp1038
(lp1039
I1
aI2
aI500
aasS'f0_31'
p1040
(lp1041
(lp1042
I8
aI2
aI486
aasS'f0_30'
p1043
(lp1044
(lp1045
I8
aI2
aI499
aasS'ID_74_F1_13_F2_9_G_1_SplitPt_140_GenID_0'
p1046
(lp1047
(lp1048
I10
aI1
aI140
aa(lp1049
I3
aI119
aI499
aasS'f17_30'
p1050
(lp1051
(lp1052
I16
aI2
aI500
aasS'f2_23'
p1053
(lp1054
(lp1055
I14
aI2
aI500
aasS'ID_87_F1_8_F2_5_G_0_SplitPt_237_GenID_0'
p1056
(lp1057
(lp1058
I9
aI3
aI248
aa(lp1059
I1
aI204
aI498
aasS'ID_100_F1_3_F2_6_G_3_SplitPt_235_GenID_0'
p1060
(lp1061
(lp1062
I32
aI192
aI500
aa(lp1063
I11
aI1
aI241
aasS'f5_17'
p1064
(lp1065
(lp1066
I1
aI1
aI500
aasS'ID_35_F1_16_F2_15_G_3_SplitPt_229_GenID_0'
p1067
(lp1068
(lp1069
I34
aI150
aI217
aa(lp1070
I5
aI175
aI500
aasS'ID_58_F1_11_F2_3_G_3_SplitPt_214_GenID_0'
p1071
(lp1072
(lp1073
I11
aI144
aI500
aa(lp1074
I16
aI1
aI235
aasS'f4_17'
p1075
(lp1076
(lp1077
I24
aI3
aI169
aa(lp1078
I25
aI13
aI499
aasS'f1_18'
p1079
(lp1080
(lp1081
I36
aI2
aI493
aasS'ID_97_F1_0_F2_19_G_1_SplitPt_203_GenID_0'
p1082
(lp1083
(lp1084
I13
aI102
aI500
aa(lp1085
I8
aI1
aI203
aasS'f5_19'
p1086
(lp1087
(lp1088
I1
aI1
aI500
aasS'f1_14'
p1089
(lp1090
(lp1091
I36
aI2
aI499
aasS'f1_15'
p1092
(lp1093
(lp1094
I36
aI2
aI500
aasS'f1_16'
p1095
(lp1096
(lp1097
I36
aI1
aI498
aasS'f1_17'
p1098
(lp1099
(lp1100
I36
aI5
aI500
aasS'f1_10'
p1101
(lp1102
(lp1103
I36
aI1
aI500
aasS'f1_11'
p1104
(lp1105
(lp1106
I36
aI1
aI500
aasS'f1_12'
p1107
(lp1108
(lp1109
I36
aI1
aI499
aasS'f1_13'
p1110
(lp1111
(lp1112
I36
aI1
aI500
aasS'f10_31'
p1113
(lp1114
(lp1115
I22
aI2
aI486
aasS'f10_30'
p1116
(lp1117
(lp1118
I22
aI1
aI500
aasS'ID_99_F1_19_F2_6_G_1_SplitPt_119_GenID_0'
p1119
(lp1120
(lp1121
I47
aI1
aI125
aa(lp1122
I32
aI78
aI500
aasS'ID_86_F1_3_F2_16_G_3_SplitPt_246_GenID_0'
p1123
(lp1124
(lp1125
I11
aI1
aI276
aa(lp1126
I26
aI212
aI499
aasS'f4_11'
p1127
(lp1128
(lp1129
I24
aI16
aI171
aasS'f4_10'
p1130
(lp1131
(lp1132
I24
aI11
aI160
aasS'f19_8'
p1133
(lp1134
(lp1135
I48
aI1
aI55
aa(lp1136
I13
aI14
aI500
aasS'f19_9'
p1137
(lp1138
(lp1139
I48
aI1
aI55
aa(lp1140
I13
aI2
aI498
aasS'f3_18'
p1141
(lp1142
(lp1143
I11
aI1
aI500
aasS'f3_19'
p1144
(lp1145
(lp1146
I11
aI1
aI500
aasS'ID_122_F1_18_F2_0_G_0_SplitPt_90_GenID_0'
p1147
(lp1148
(lp1149
I2
aI2
aI104
aa(lp1150
I8
aI77
aI500
aasS'f19_0'
p1151
(lp1152
(lp1153
I47
aI1
aI110
aa(lp1154
I13
aI3
aI496
aasS'f19_1'
p1155
(lp1156
(lp1157
I47
aI3
aI97
aa(lp1158
I13
aI10
aI498
aasS'f19_2'
p1159
(lp1160
(lp1161
I47
aI1
aI97
aa(lp1162
I13
aI2
aI499
aasS'f19_3'
p1163
(lp1164
(lp1165
I47
aI1
aI97
aa(lp1166
I13
aI6
aI499
aasS'f19_4'
p1167
(lp1168
(lp1169
I47
aI3
aI106
aa(lp1170
I13
aI5
aI500
aasS'f19_5'
p1171
(lp1172
(lp1173
I47
aI1
aI98
aa(lp1174
I13
aI18
aI500
aasS'f19_6'
p1175
(lp1176
(lp1177
I47
aI4
aI89
aasS'f19_7'
p1178
(lp1179
(lp1180
I47
aI4
aI89
aasS'ID_61_F1_19_F2_9_G_4_SplitPt_97_GenID_0'
p1181
(lp1182
(lp1183
I47
aI1
aI106
aa(lp1184
I3
aI86
aI500
aasS'ID_90_F1_0_F2_9_G_1_SplitPt_107_GenID_0'
p1185
(lp1186
(lp1187
I3
aI58
aI500
aa(lp1188
I8
aI1
aI132
aasS'f2_9'
p1189
(lp1190
(lp1191
I14
aI1
aI498
aasS'f1_29'
p1192
(lp1193
(lp1194
I36
aI1
aI498
aasS'ID_116_F1_2_F2_17_G_3_SplitPt_208_GenID_0'
p1195
(lp1196
(lp1197
I52
aI221
aI344
aa(lp1198
I14
aI1
aI221
aasS'f18_31'
p1199
(lp1200
(lp1201
I2
aI1
aI499
aasS'f18_30'
p1202
(lp1203
(lp1204
I2
aI2
aI498
aasS'f12_1'
p1205
(lp1206
(lp1207
I41
aI1
aI80
aasS'f13_21'
p1208
(lp1209
(lp1210
I10
aI16
aI498
aasS'f12_0'
p1211
(lp1212
(lp1213
I41
aI2
aI80
aa(lp1214
I27
aI3
aI500
aasS'f3_27'
p1215
(lp1216
(lp1217
I11
aI1
aI500
aasS'f6_9'
p1218
(lp1219
(lp1220
I32
aI1
aI500
aasS'f6_8'
p1221
(lp1222
(lp1223
I32
aI2
aI499
aasS'ID_82_F1_3_F2_12_G_2_SplitPt_119_GenID_0'
p1224
(lp1225
(lp1226
I27
aI108
aI500
aa(lp1227
I11
aI4
aI138
aasS'f6_5'
p1228
(lp1229
(lp1230
I32
aI4
aI499
aasS'f6_4'
p1231
(lp1232
(lp1233
I32
aI2
aI500
aasS'f6_7'
p1234
(lp1235
(lp1236
I32
aI3
aI500
aasS'f6_6'
p1237
(lp1238
(lp1239
I32
aI2
aI500
aasS'f6_1'
p1240
(lp1241
(lp1242
I32
aI1
aI499
aasS'f6_0'
p1243
(lp1244
(lp1245
I32
aI1
aI497
aasS'f6_3'
p1246
(lp1247
(lp1248
I32
aI1
aI499
aasS'f6_2'
p1249
(lp1250
(lp1251
I32
aI4
aI497
aasS'f4_3'
p1252
(lp1253
(lp1254
I23
aI2
aI82
aa(lp1255
I24
aI3
aI180
aa(lp1256
I25
aI23
aI500
aasS'f4_2'
p1257
(lp1258
(lp1259
I23
aI1
aI81
aa(lp1260
I24
aI3
aI180
aa(lp1261
I25
aI7
aI500
aasS'f4_1'
p1262
(lp1263
(lp1264
I23
aI6
aI77
aa(lp1265
I25
aI7
aI500
aasS'f4_0'
p1266
(lp1267
(lp1268
I24
aI1
aI179
aa(lp1269
I25
aI65
aI500
aasS'f4_7'
p1270
(lp1271
(lp1272
I23
aI2
aI77
aa(lp1273
I24
aI11
aI179
aa(lp1274
I25
aI12
aI500
aasS'f4_6'
p1275
(lp1276
(lp1277
I23
aI1
aI68
aa(lp1278
I24
aI3
aI179
aa(lp1279
I25
aI8
aI500
aasS'f4_5'
p1280
(lp1281
(lp1282
I23
aI6
aI64
aa(lp1283
I25
aI67
aI500
aasS'f4_4'
p1284
(lp1285
(lp1286
I23
aI3
aI64
aa(lp1287
I24
aI17
aI173
aa(lp1288
I25
aI89
aI500
aasS'f17_2'
p1289
(lp1290
(lp1291
I16
aI1
aI500
aasS'f17_3'
p1292
(lp1293
(lp1294
I16
aI1
aI500
aasS'f4_9'
p1295
(lp1296
(lp1297
I25
aI7
aI500
aasS'f4_8'
p1298
(lp1299
(lp1300
I24
aI3
aI180
aasS'f17_6'
p1301
(lp1302
(lp1303
I16
aI1
aI500
aasS'f17_7'
p1304
(lp1305
(lp1306
I16
aI1
aI500
aasS'f17_4'
p1307
(lp1308
(lp1309
I16
aI1
aI500
aasS'f17_5'
p1310
(lp1311
(lp1312
I16
aI1
aI500
aasS'ID_18_F1_1_F2_0_G_1_SplitPt_95_GenID_0'
p1313
(lp1314
(lp1315
I53
aI130
aI230
aa(lp1316
I36
aI3
aI124
aasS'f8_7'
p1317
(lp1318
(lp1319
I9
aI1
aI500
aasS'f7_22'
p1320
(lp1321
(lp1322
I21
aI9
aI498
aasS'f8_5'
p1323
(lp1324
(lp1325
I9
aI9
aI498
aasS'f8_4'
p1326
(lp1327
(lp1328
I9
aI1
aI500
aasS'f8_3'
p1329
(lp1330
(lp1331
I9
aI2
aI500
aasS'f8_2'
p1332
(lp1333
(lp1334
I9
aI1
aI500
aasS'f8_1'
p1335
(lp1336
(lp1337
I9
aI1
aI497
aasS'f8_0'
p1338
(lp1339
(lp1340
I9
aI1
aI491
aasS'f7_29'
p1341
(lp1342
(lp1343
I21
aI1
aI489
aasS'f7_28'
p1344
(lp1345
(lp1346
I21
aI1
aI480
aasS'f8_9'
p1347
(lp1348
(lp1349
I9
aI3
aI493
aasS'f8_8'
p1350
(lp1351
(lp1352
I9
aI3
aI496
aasS'f16_14'
p1353
(lp1354
(lp1355
I26
aI1
aI499
aasS'ID_4_F1_0_F2_18_G_1_SplitPt_116_GenID_0'
p1356
(lp1357
(lp1358
I2
aI89
aI500
aa(lp1359
I8
aI1
aI125
aasS'f11_0'
p1360
(lp1361
(lp1362
I16
aI1
aI496
aasS'f11_1'
p1363
(lp1364
(lp1365
I16
aI1
aI500
aasS'f11_2'
p1366
(lp1367
(lp1368
I16
aI1
aI498
aasS'f11_3'
p1369
(lp1370
(lp1371
I16
aI1
aI487
aasS'f11_4'
p1372
(lp1373
(lp1374
I54
aI372
aI490
aasS'f11_5'
p1375
(lp1376
(lp1377
I16
aI3
aI499
aasS'f11_6'
p1378
(lp1379
(lp1380
I16
aI19
aI500
aasS'f11_7'
p1381
(lp1382
(lp1383
I16
aI1
aI500
aasS'f11_8'
p1384
(lp1385
(lp1386
I16
aI1
aI499
aasS'f11_9'
p1387
(lp1388
(lp1389
I16
aI1
aI498
aasS'f13_6'
p1390
(lp1391
(lp1392
I10
aI1
aI499
aasS'f2_8'
p1393
(lp1394
(lp1395
I55
aI144
aI268
aa(lp1396
I56
aI295
aI433
aasS'f13_4'
p1397
(lp1398
(lp1399
I10
aI1
aI500
aasS'f13_5'
p1400
(lp1401
(lp1402
I10
aI1
aI493
aasS'f13_2'
p1403
(lp1404
(lp1405
I10
aI1
aI500
aasS'f13_3'
p1406
(lp1407
(lp1408
I10
aI1
aI500
aasS'f13_0'
p1409
(lp1410
(lp1411
I10
aI2
aI500
aasS'f13_1'
p1412
(lp1413
(lp1414
I10
aI2
aI499
aasS'f2_1'
p1415
(lp1416
(lp1417
I14
aI1
aI500
aasS'f2_0'
p1418
(lp1419
(lp1420
I14
aI1
aI500
aasS'f2_3'
p1421
(lp1422
(lp1423
I14
aI1
aI500
aasS'f2_2'
p1424
(lp1425
(lp1426
I14
aI1
aI498
aasS'f2_5'
p1427
(lp1428
(lp1429
I14
aI1
aI499
aasS'f2_4'
p1430
(lp1431
(lp1432
I14
aI1
aI499
aasS'f13_8'
p1433
(lp1434
(lp1435
I10
aI1
aI500
aasS'f13_9'
p1436
(lp1437
(lp1438
I10
aI1
aI500
aasS'f15_4'
p1439
(lp1440
(lp1441
I17
aI3
aI148
aa(lp1442
I5
aI73
aI500
aasS'f15_5'
p1443
(lp1444
(lp1445
I17
aI3
aI143
aasS'f15_6'
p1446
(lp1447
(lp1448
I17
aI3
aI163
aasS'ID_6_F1_0_F2_12_G_1_SplitPt_229_GenID_0'
p1449
(lp1450
(lp1451
I53
aI130
aI230
aasS'f15_0'
p1452
(lp1453
(lp1454
I17
aI2
aI161
aa(lp1455
I5
aI5
aI500
aasS'f15_1'
p1456
(lp1457
(lp1458
I17
aI2
aI182
aasS'f15_2'
p1459
(lp1460
(lp1461
I17
aI5
aI163
aasS'f15_3'
p1462
(lp1463
(lp1464
I17
aI5
aI163
aa(lp1465
I5
aI8
aI498
aasS'f0_7'
p1466
(lp1467
(lp1468
I8
aI1
aI500
aasS'f0_6'
p1469
(lp1470
(lp1471
I8
aI3
aI500
aasS'f0_5'
p1472
(lp1473
(lp1474
I8
aI3
aI500
aasS'f0_4'
p1475
(lp1476
(lp1477
I8
aI4
aI500
aasS'f15_8'
p1478
(lp1479
(lp1480
I5
aI107
aI500
aasS'f15_9'
p1481
(lp1482
(lp1483
I5
aI86
aI500
aasS'f0_1'
p1484
(lp1485
(lp1486
I8
aI1
aI499
aasS'f0_0'
p1487
(lp1488
(lp1489
I8
aI1
aI500
aasS'f1_28'
p1490
(lp1491
(lp1492
I36
aI1
aI500
aasS'f5_18'
p1493
(lp1494
(lp1495
I1
aI1
aI500
aasS'f6_31'
p1496
(lp1497
(lp1498
I32
aI1
aI500
aasS'ID_15_F1_8_F2_1_G_2_SplitPt_94_GenID_0'
p1499
(lp1500
(lp1501
I9
aI1
aI164
aa(lp1502
I36
aI82
aI500
aasS'ID_89_F1_14_F2_13_G_4_SplitPt_237_GenID_0'
p1503
(lp1504
(lp1505
I57
aI105
aI220
aa(lp1506
I58
aI1
aI113
aa(lp1507
I10
aI191
aI500
aasS'ID_49_F1_17_F2_7_G_2_SplitPt_112_GenID_0'
p1508
(lp1509
(lp1510
I44
aI309
aI498
aa(lp1511
I42
aI113
aI239
aa(lp1512
I16
aI1
aI183
aasS'f6_30'
p1513
(lp1514
(lp1515
I32
aI1
aI500
aasS'ID_118_F1_5_F2_19_G_0_SplitPt_236_GenID_0'
p1516
(lp1517
(lp1518
I46
aI404
aI491
aa(lp1519
I1
aI1
aI272
aasS'f16_13'
p1520
(lp1521
(lp1522
I26
aI1
aI500
aasS'f16_12'
p1523
(lp1524
(lp1525
I26
aI3
aI500
aasS'f16_11'
p1526
(lp1527
(lp1528
I26
aI1
aI500
aasS'f16_10'
p1529
(lp1530
(lp1531
I26
aI1
aI500
aasS'f16_17'
p1532
(lp1533
(lp1534
I26
aI1
aI500
aasS'f16_16'
p1535
(lp1536
(lp1537
I26
aI1
aI500
aasS'f16_15'
p1538
(lp1539
(lp1540
I26
aI1
aI500
aasS'ID_5_F1_4_F2_2_G_4_SplitPt_179_GenID_0'
p1541
(lp1542
(lp1543
I56
aI322
aI433
aa(lp1544
I24
aI1
aI214
aasS'f16_19'
p1545
(lp1546
(lp1547
I26
aI1
aI500
aasS'f16_18'
p1548
(lp1549
(lp1550
I26
aI1
aI500
aasS'ID_24_F1_3_F2_1_G_1_SplitPt_135_GenID_0'
p1551
(lp1552
(lp1553
I36
aI117
aI498
aa(lp1554
I11
aI1
aI190
aasS'f3_15'
p1555
(lp1556
(lp1557
I11
aI2
aI500
aasS'ID_45_F1_1_F2_5_G_4_SplitPt_120_GenID_0'
p1558
(lp1559
(lp1560
I36
aI1
aI193
aa(lp1561
I1
aI74
aI500
aasS'f6_24'
p1562
(lp1563
(lp1564
I32
aI1
aI500
aasS'f6_25'
p1565
(lp1566
(lp1567
I32
aI2
aI500
aasS'f6_26'
p1568
(lp1569
(lp1570
I32
aI1
aI500
aasS'f6_27'
p1571
(lp1572
(lp1573
I32
aI1
aI500
aasS'f6_20'
p1574
(lp1575
(lp1576
I32
aI4
aI500
aasS'f6_21'
p1577
(lp1578
(lp1579
I32
aI1
aI500
aasS'f6_22'
p1580
(lp1581
(lp1582
I32
aI1
aI500
aasS'f6_23'
p1583
(lp1584
(lp1585
I32
aI1
aI500
aasS'f6_28'
p1586
(lp1587
(lp1588
I32
aI4
aI497
aasS'f6_29'
p1589
(lp1590
(lp1591
I32
aI1
aI500
aasS'f1_25'
p1592
(lp1593
(lp1594
I36
aI1
aI499
aasS'f1_24'
p1595
(lp1596
(lp1597
I36
aI1
aI500
aasS'f1_27'
p1598
(lp1599
(lp1600
I36
aI1
aI498
aasS'f1_26'
p1601
(lp1602
(lp1603
I36
aI1
aI499
aasS'f14_19'
p1604
(lp1605
(lp1606
I18
aI1
aI500
aasS'f14_18'
p1607
(lp1608
(lp1609
I28
aI4
aI70
aasS'f1_23'
p1610
(lp1611
(lp1612
I36
aI1
aI488
aasS'f1_22'
p1613
(lp1614
(lp1615
I36
aI2
aI493
aasS'f14_15'
p1616
(lp1617
(lp1618
I18
aI2
aI492
aasS'f14_14'
p1619
(lp1620
(lp1621
I18
aI2
aI497
aasS'f14_17'
p1622
(lp1623
(lp1624
I59
aI118
aI331
aasS'f14_16'
p1625
(lp1626
(lp1627
I18
aI33
aI497
aasS'f14_11'
p1628
(lp1629
(lp1630
I59
aI118
aI331
aa(lp1631
I58
aI1
aI114
aasS'f14_10'
p1632
(lp1633
(lp1634
I18
aI1
aI500
aasS'f14_13'
p1635
(lp1636
(lp1637
I58
aI1
aI113
aasS'f14_12'
p1638
(lp1639
(lp1640
I58
aI1
aI113
aasS'f0_12'
p1641
(lp1642
(lp1643
I8
aI6
aI497
aasS'ID_101_F1_11_F2_17_G_4_SplitPt_189_GenID_0'
p1644
(lp1645
(lp1646
I16
aI1
aI500
aasS'f2_31'
p1647
(lp1648
(lp1649
I14
aI1
aI500
aasS'f2_30'
p1650
(lp1651
(lp1652
I14
aI1
aI500
aasS'ID_29_F1_2_F2_5_G_3_SplitPt_198_GenID_0'
p1653
(lp1654
(lp1655
I1
aI168
aI500
aa(lp1656
I14
aI1
aI236
aasS'f11_12'
p1657
(lp1658
(lp1659
I16
aI3
aI499
aasS'ID_98_F1_6_F2_5_G_3_SplitPt_120_GenID_0'
p1660
(lp1661
(lp1662
I1
aI115
aI500
aa(lp1663
I32
aI1
aI155
aasS'f0_11'
p1664
(lp1665
(lp1666
I8
aI1
aI498
aasS'ID_17_F1_2_F2_1_G_0_SplitPt_240_GenID_0'
p1667
(lp1668
(lp1669
I36
aI226
aI496
aa(lp1670
I14
aI1
aI236
aasS'f13_30'
p1671
(lp1672
(lp1673
I10
aI1
aI499
aasS'f13_31'
p1674
(lp1675
(lp1676
I10
aI1
aI498
aasS'ID_67_F1_19_F2_6_G_0_SplitPt_177_GenID_0'
p1677
(lp1678
(lp1679
I20
aI1
aI175
aa(lp1680
I32
aI152
aI498
aasS'f8_13'
p1681
(lp1682
(lp1683
I9
aI2
aI500
aasS'f8_12'
p1684
(lp1685
(lp1686
I9
aI2
aI500
aasS'f8_11'
p1687
(lp1688
(lp1689
I9
aI3
aI498
aasS'f8_10'
p1690
(lp1691
(lp1692
I9
aI3
aI499
aasS'f8_17'
p1693
(lp1694
(lp1695
I9
aI2
aI500
aasS'f8_16'
p1696
(lp1697
(lp1698
I9
aI9
aI497
aasS'f8_15'
p1699
(lp1700
(lp1701
I9
aI2
aI499
aasS'f8_14'
p1702
(lp1703
(lp1704
I9
aI1
aI499
aasS'f8_19'
p1705
(lp1706
(lp1707
I9
aI41
aI500
aasS'f8_18'
p1708
(lp1709
(lp1710
I9
aI21
aI497
aasS'ID_125_F1_6_F2_13_G_1_SplitPt_182_GenID_0'
p1711
(lp1712
(lp1713
I10
aI166
aI500
aa(lp1714
I32
aI1
aI190
aasS'ID_33_F1_17_F2_2_G_4_SplitPt_200_GenID_0'
p1715
(lp1716
(lp1717
I14
aI124
aI500
aa(lp1718
I16
aI1
aI201
aasS'f0_10'
p1719
(lp1720
(lp1721
I8
aI1
aI500
aasS'ID_63_F1_17_F2_16_G_3_SplitPt_190_GenID_0'
p1722
(lp1723
(lp1724
I26
aI148
aI500
aa(lp1725
I16
aI1
aI287
aasS'f0_17'
p1726
(lp1727
(lp1728
I8
aI1
aI496
aasS'f18_1'
p1729
(lp1730
(lp1731
I2
aI2
aI484
aasS'f18_0'
p1732
(lp1733
(lp1734
I2
aI1
aI484
aasS'f18_3'
p1735
(lp1736
(lp1737
I19
aI301
aI353
aasS'f18_2'
p1738
(lp1739
(lp1740
I2
aI1
aI493
aasS'f18_5'
p1741
(lp1742
(lp1743
I2
aI1
aI500
aasS'ID_56_F1_18_F2_11_G_2_SplitPt_164_GenID_0'
p1744
(lp1745
(lp1746
I2
aI1
aI241
aa(lp1747
I16
aI123
aI499
aasS'f18_7'
p1748
(lp1749
(lp1750
I2
aI1
aI500
aasS'ID_107_F1_5_F2_12_G_1_SplitPt_204_GenID_0'
p1751
(lp1752
(lp1753
I27
aI16
aI500
aa(lp1754
I1
aI1
aI216
aasS'f18_9'
p1755
(lp1756
(lp1757
I60
aI2
aI75
aasS'f18_8'
p1758
(lp1759
(lp1760
I60
aI2
aI80
aasS'f1_20'
p1761
(lp1762
(lp1763
I36
aI1
aI490
aasS'f0_16'
p1764
(lp1765
(lp1766
I8
aI1
aI497
aasS'f9_30'
p1767
(lp1768
(lp1769
I15
aI260
aI322
aa(lp1770
I35
aI1
aI82
aasS'f9_31'
p1771
(lp1772
(lp1773
I35
aI1
aI81
aa(lp1774
I3
aI24
aI500
aasS'ID_95_F1_6_F2_1_G_0_SplitPt_102_GenID_0'
p1775
(lp1776
(lp1777
I36
aI80
aI500
aasS'ID_84_F1_16_F2_4_G_4_SplitPt_94_GenID_0'
p1778
(lp1779
(lp1780
I25
aI13
aI500
aa(lp1781
I26
aI1
aI246
aasS'f5_31'
p1782
(lp1783
(lp1784
I1
aI4
aI492
aasS'f16_28'
p1785
(lp1786
(lp1787
I26
aI1
aI500
aasS'f16_29'
p1788
(lp1789
(lp1790
I26
aI1
aI496
aasS'f14_9'
p1791
(lp1792
(lp1793
I58
aI1
aI108
aasS'f14_8'
p1794
(lp1795
(lp1796
I18
aI1
aI482
aasS'ID_93_F1_16_F2_10_G_2_SplitPt_103_GenID_0'
p1797
(lp1798
(lp1799
I22
aI78
aI500
aa(lp1800
I26
aI1
aI116
aasS'ID_91_F1_9_F2_16_G_4_SplitPt_183_GenID_0'
p1801
(lp1802
(lp1803
I3
aI1
aI214
aa(lp1804
I26
aI176
aI500
aasS'f14_5'
p1805
(lp1806
(lp1807
I18
aI1
aI493
aasS'f14_4'
p1808
(lp1809
(lp1810
I18
aI1
aI475
aasS'f14_7'
p1811
(lp1812
(lp1813
I18
aI12
aI483
aasS'f14_6'
p1814
(lp1815
(lp1816
I18
aI2
aI493
aasS'f14_1'
p1817
(lp1818
(lp1819
I57
aI101
aI220
aasS'f14_0'
p1820
(lp1821
(lp1822
I18
aI1
aI497
aasS'f14_3'
p1823
(lp1824
(lp1825
I18
aI2
aI479
aasS'f14_2'
p1826
(lp1827
(lp1828
I18
aI2
aI493
aasS'f16_3'
p1829
(lp1830
(lp1831
I26
aI1
aI499
aasS'f16_2'
p1832
(lp1833
(lp1834
I26
aI1
aI499
aasS'ID_37_F1_17_F2_6_G_2_SplitPt_156_GenID_0'
p1835
(lp1836
(lp1837
I32
aI119
aI500
aa(lp1838
I16
aI1
aI189
aasS'f16_0'
p1839
(lp1840
(lp1841
I26
aI1
aI498
aasS'f16_7'
p1842
(lp1843
(lp1844
I26
aI1
aI498
aasS'f16_6'
p1845
(lp1846
(lp1847
I26
aI1
aI499
aasS'f16_5'
p1848
(lp1849
(lp1850
I26
aI1
aI499
aasS'f16_4'
p1851
(lp1852
(lp1853
I26
aI1
aI499
aasS'f0_26'
p1854
(lp1855
(lp1856
I8
aI2
aI495
aasS'f0_27'
p1857
(lp1858
(lp1859
I8
aI2
aI497
aasS'f16_9'
p1860
(lp1861
(lp1862
I26
aI1
aI499
aasS'ID_12_F1_1_F2_18_G_4_SplitPt_197_GenID_0'
p1863
(lp1864
(lp1865
I2
aI174
aI500
aa(lp1866
I36
aI1
aI268
aasS'f0_22'
p1867
(lp1868
(lp1869
I8
aI3
aI500
aasS'f0_23'
p1870
(lp1871
(lp1872
I8
aI1
aI500
aasS'f0_20'
p1873
(lp1874
(lp1875
I8
aI1
aI500
aasS'f0_21'
p1876
(lp1877
(lp1878
I8
aI1
aI491
aasS'f17_21'
p1879
(lp1880
(lp1881
I16
aI3
aI500
aasS'f17_20'
p1882
(lp1883
(lp1884
I52
aI221
aI344
aasS'f17_23'
p1885
(lp1886
(lp1887
I16
aI2
aI500
aasS'f17_22'
p1888
(lp1889
(lp1890
I16
aI2
aI500
aasS'f17_25'
p1891
(lp1892
(lp1893
I16
aI1
aI499
aasS'f17_24'
p1894
(lp1895
(lp1896
I16
aI1
aI500
aasS'f0_14'
p1897
(lp1898
(lp1899
I8
aI1
aI500
aasS'f17_26'
p1900
(lp1901
(lp1902
I16
aI4
aI498
aasS'f17_29'
p1903
(lp1904
(lp1905
I16
aI6
aI500
aasS'f17_28'
p1906
(lp1907
(lp1908
I16
aI1
aI500
aasS'f3_12'
p1909
(lp1910
(lp1911
I11
aI1
aI500
aasS'ID_94_F1_4_F2_16_G_0_SplitPt_144_GenID_0'
p1912
(lp1913
(lp1914
I24
aI17
aI143
aa(lp1915
I26
aI151
aI498
aasS'ID_81_F1_3_F2_16_G_3_SplitPt_106_GenID_0'
p1916
(lp1917
(lp1918
I11
aI1
aI116
aa(lp1919
I26
aI63
aI499
aasS'f1_19'
p1920
(lp1921
(lp1922
I36
aI1
aI498
aasS'f15_30'
p1923
(lp1924
(lp1925
I4
aI18
aI175
aasS'f15_31'
p1926
(lp1927
(lp1928
I4
aI77
aI175
aasS'f11_28'
p1929
(lp1930
(lp1931
I16
aI4
aI491
aasS'ID_41_F1_18_F2_9_G_0_SplitPt_240_GenID_0'
p1932
(lp1933
(lp1934
I3
aI230
aI494
aa(lp1935
I2
aI5
aI244
aasS'f10_1'
p1936
(lp1937
(lp1938
I22
aI1
aI495
aasS'f10_0'
p1939
(lp1940
(lp1941
I22
aI1
aI495
aasS'f10_3'
p1942
(lp1943
(lp1944
I22
aI1
aI498
aasS'f10_2'
p1945
(lp1946
(lp1947
I22
aI1
aI498
aasS'f10_5'
p1948
(lp1949
(lp1950
I22
aI1
aI498
aasS'f10_4'
p1951
(lp1952
(lp1953
I22
aI1
aI499
aasS'f10_7'
p1954
(lp1955
(lp1956
I22
aI4
aI498
aasS'f10_6'
p1957
(lp1958
(lp1959
I22
aI3
aI498
aasS'ID_13_F1_9_F2_10_G_1_SplitPt_109_GenID_0'
p1960
(lp1961
(lp1962
I38
aI7
aI111
aa(lp1963
I22
aI84
aI500
aasS'f4_16'
p1964
(lp1965
(lp1966
I23
aI3
aI80
aa(lp1967
I25
aI13
aI499
aasS'f4_15'
p1968
(lp1969
(lp1970
I23
aI3
aI69
aa(lp1971
I24
aI17
aI161
aa(lp1972
I25
aI52
aI500
aasS'f4_14'
p1973
(lp1974
(lp1975
I24
aI3
aI176
aa(lp1976
I25
aI59
aI500
aasS'f4_13'
p1977
(lp1978
(lp1979
I24
aI3
aI176
aasS'f4_12'
p1980
(lp1981
(lp1982
I24
aI3
aI158
aasS'f12_9'
p1983
(lp1984
(lp1985
I27
aI1
aI497
aasS'f12_8'
p1986
(lp1987
(lp1988
I27
aI3
aI499
aasS'f12_7'
p1989
(lp1990
(lp1991
I27
aI15
aI499
aasS'f12_6'
p1992
(lp1993
(lp1994
I27
aI14
aI499
aasS'f12_5'
p1995
(lp1996
(lp1997
I27
aI13
aI499
aasS'f12_4'
p1998
(lp1999
(lp2000
I27
aI14
aI500
aasS'f12_3'
p2001
(lp2002
(lp2003
I41
aI10
aI79
aasS'f12_2'
p2004
(lp2005
(lp2006
I41
aI10
aI79
aasS'f4_19'
p2007
(lp2008
(lp2009
I24
aI14
aI174
aasS'f4_18'
p2010
(lp2011
(lp2012
I24
aI13
aI161
aasS'ID_22_F1_12_F2_4_G_1_SplitPt_82_GenID_0'
p2013
(lp2014
(lp2015
I41
aI1
aI84
aa(lp2016
I25
aI74
aI500
aasS'f3_26'
p2017
(lp2018
(lp2019
I37
aI385
aI492
aasS'f3_25'
p2020
(lp2021
(lp2022
I11
aI1
aI496
aasS'f3_24'
p2023
(lp2024
(lp2025
I11
aI1
aI500
aasS'f3_23'
p2026
(lp2027
(lp2028
I11
aI1
aI500
aasS'f3_22'
p2029
(lp2030
(lp2031
I11
aI5
aI500
aasS'f3_21'
p2032
(lp2033
(lp2034
I11
aI2
aI500
aasS'f3_20'
p2035
(lp2036
(lp2037
I11
aI1
aI500
aasS'ID_44_F1_15_F2_19_G_4_SplitPt_88_GenID_0'
p2038
(lp2039
(lp2040
I7
aI1
aI99
aa(lp2041
I13
aI67
aI500
aasS'f3_29'
p2042
(lp2043
(lp2044
I11
aI1
aI500
aasS'f3_28'
p2045
(lp2046
(lp2047
I11
aI1
aI500
aasS'ID_70_F1_18_F2_1_G_0_SplitPt_118_GenID_0'
p2048
(lp2049
(lp2050
I36
aI110
aI500
aasS'f6_19'
p2051
(lp2052
(lp2053
I50
aI2
aI75
aasS'f6_18'
p2054
(lp2055
(lp2056
I32
aI2
aI499
aasS'f6_15'
p2057
(lp2058
(lp2059
I32
aI8
aI500
aasS'f6_14'
p2060
(lp2061
(lp2062
I32
aI1
aI498
aasS'f6_17'
p2063
(lp2064
(lp2065
I32
aI1
aI499
aasS'f6_16'
p2066
(lp2067
(lp2068
I32
aI1
aI500
aasS'f6_11'
p2069
(lp2070
(lp2071
I32
aI2
aI499
aasS'f6_10'
p2072
(lp2073
(lp2074
I32
aI1
aI499
aasS'f6_13'
p2075
(lp2076
(lp2077
I32
aI2
aI498
aasS'f6_12'
p2078
(lp2079
(lp2080
I32
aI1
aI498
aasS'ID_25_F1_13_F2_0_G_4_SplitPt_166_GenID_0'
p2081
(lp2082
(lp2083
I39
aI170
aI240
aa(lp2084
I10
aI1
aI166
aasS'ID_55_F1_6_F2_18_G_0_SplitPt_73_GenID_0'
p2085
(lp2086
(lp2087
I2
aI49
aI500
aasS'ID_127_F1_7_F2_2_G_1_SplitPt_124_GenID_0'
p2088
(lp2089
(lp2090
I45
aI1
aI99
aa(lp2091
I14
aI99
aI500
aasS'ID_85_F1_16_F2_9_G_1_SplitPt_244_GenID_0'
p2092
(lp2093
(lp2094
I3
aI189
aI500
aa(lp2095
I26
aI1
aI246
aasS'ID_8_F1_10_F2_18_G_4_SplitPt_221_GenID_0'
p2096
(lp2097
(lp2098
I2
aI180
aI500
aa(lp2099
I22
aI1
aI221
aasS'ID_78_F1_18_F2_10_G_2_SplitPt_200_GenID_0'
p2100
(lp2101
(lp2102
I2
aI1
aI215
aa(lp2103
I22
aI194
aI500
aasS'ID_59_F1_6_F2_9_G_1_SplitPt_100_GenID_0'
p2104
(lp2105
(lp2106
I3
aI53
aI500
aa(lp2107
I32
aI4
aI98
aasS'f7_30'
p2108
(lp2109
(lp2110
I21
aI1
aI500
aasS'f7_31'
p2111
(lp2112
(lp2113
I21
aI1
aI500
aasS'f12_17'
p2114
(lp2115
(lp2116
I27
aI1
aI498
aasS'f12_16'
p2117
(lp2118
(lp2119
I27
aI1
aI500
aasS'f12_15'
p2120
(lp2121
(lp2122
I41
aI2
aI84
aasS'f12_14'
p2123
(lp2124
(lp2125
I41
aI3
aI84
aasS'f12_13'
p2126
(lp2127
(lp2128
I41
aI3
aI80
aasS'f12_12'
p2129
(lp2130
(lp2131
I41
aI2
aI80
aasS'f12_11'
p2132
(lp2133
(lp2134
I27
aI4
aI500
aasS'f12_10'
p2135
(lp2136
(lp2137
I27
aI1
aI497
aasS'f12_19'
p2138
(lp2139
(lp2140
I27
aI1
aI495
aasS'ID_124_F1_8_F2_10_G_2_SplitPt_247_GenID_0'
p2141
(lp2142
(lp2143
I9
aI1
aI313
aa(lp2144
I22
aI215
aI500
aasS'f11_30'
p2145
(lp2146
(lp2147
I54
aI372
aI491
aasS'f11_31'
p2148
(lp2149
(lp2150
I16
aI1
aI495
aasS'ID_19_F1_18_F2_11_G_1_SplitPt_215_GenID_0'
p2151
(lp2152
(lp2153
I2
aI1
aI235
aa(lp2154
I16
aI192
aI500
aasS'ID_14_F1_3_F2_0_G_1_SplitPt_159_GenID_0'
p2155
(lp2156
(lp2157
I51
aI157
aI224
aa(lp2158
I11
aI2
aI200
aa(lp2159
I8
aI159
aI500
aasS'ID_76_F1_2_F2_16_G_2_SplitPt_179_GenID_0'
p2160
(lp2161
(lp2162
I14
aI1
aI201
aa(lp2163
I26
aI168
aI500
aasS'ID_2_F1_2_F2_15_G_1_SplitPt_246_GenID_0'
p2164
(lp2165
(lp2166
I5
aI223
aI499
aa(lp2167
I14
aI1
aI331
aasS'ID_77_F1_13_F2_0_G_0_SplitPt_98_GenID_0'
p2168
(lp2169
(lp2170
I10
aI20
aI98
aa(lp2171
I8
aI98
aI499
aasS'ID_119_F1_13_F2_9_G_1_SplitPt_69_GenID_0'
p2172
(lp2173
(lp2174
I10
aI1
aI70
aa(lp2175
I3
aI49
aI500
aasS'ID_28_F1_0_F2_5_G_0_SplitPt_239_GenID_0'
p2176
(lp2177
(lp2178
I1
aI201
aI500
aa(lp2179
I8
aI2
aI252
aasS'f0_18'
p2180
(lp2181
(lp2182
I8
aI1
aI499
aasS'ID_66_F1_14_F2_9_G_3_SplitPt_205_GenID_0'
p2183
(lp2184
(lp2185
I18
aI1
aI205
aa(lp2186
I3
aI171
aI500
aasS'ID_120_F1_7_F2_0_G_2_SplitPt_50_GenID_0'
p2187
(lp2188
(lp2189
I40
aI1
aI52
aa(lp2190
I8
aI52
aI500
aasS'f18_19'
p2191
(lp2192
(lp2193
I2
aI4
aI500
aasS'f18_18'
p2194
(lp2195
(lp2196
I2
aI3
aI500
aasS'ID_0_F1_3_F2_2_G_4_SplitPt_233_GenID_0'
p2197
(lp2198
(lp2199
I11
aI1
aI246
aa(lp2200
I14
aI161
aI500
aasS'f18_11'
p2201
(lp2202
(lp2203
I60
aI2
aI80
aasS'f18_10'
p2204
(lp2205
(lp2206
I60
aI2
aI73
aasS'f18_13'
p2207
(lp2208
(lp2209
I2
aI3
aI500
aasS'f18_12'
p2210
(lp2211
(lp2212
I2
aI2
aI499
aasS'f18_15'
p2213
(lp2214
(lp2215
I60
aI2
aI73
aasS'f18_14'
p2216
(lp2217
(lp2218
I2
aI2
aI500
aasS'f18_17'
p2219
(lp2220
(lp2221
I2
aI1
aI500
aasS'f18_16'
p2222
(lp2223
(lp2224
I2
aI1
aI500
aasS'f3_6'
p2225
(lp2226
(lp2227
I11
aI4
aI500
aasS'ID_69_F1_8_F2_11_G_1_SplitPt_120_GenID_0'
p2228
(lp2229
(lp2230
I9
aI1
aI126
aa(lp2231
I16
aI105
aI500
aasS'f3_13'
p2232
(lp2233
(lp2234
I11
aI1
aI490
aasS'f3_10'
p2235
(lp2236
(lp2237
I11
aI1
aI494
aasS'f0_13'
p2238
(lp2239
(lp2240
I8
aI8
aI500
aasS'f14_28'
p2241
(lp2242
(lp2243
I43
aI239
aI371
aasS'f14_29'
p2244
(lp2245
(lp2246
I18
aI1
aI498
aasS'f3_11'
p2247
(lp2248
(lp2249
I11
aI14
aI496
aasS'f0_29'
p2250
(lp2251
(lp2252
I8
aI8
aI500
aasS'f1_30'
p2253
(lp2254
(lp2255
I36
aI1
aI498
aasS'f1_31'
p2256
(lp2257
(lp2258
I36
aI2
aI500
aasS'f14_20'
p2259
(lp2260
(lp2261
I18
aI1
aI499
aasS'f14_21'
p2262
(lp2263
(lp2264
I18
aI1
aI499
aasS'f14_22'
p2265
(lp2266
(lp2267
I58
aI1
aI113
aasS'f14_23'
p2268
(lp2269
(lp2270
I58
aI1
aI113
aasS'f14_24'
p2271
(lp2272
(lp2273
I43
aI254
aI361
aasS'f19_31'
p2274
(lp2275
(lp2276
I12
aI2
aI89
aa(lp2277
I20
aI12
aI150
aasS'f14_26'
p2278
(lp2279
(lp2280
I18
aI9
aI500
aasS'f14_27'
p2281
(lp2282
(lp2283
I18
aI7
aI498
aasS'f10_11'
p2284
(lp2285
(lp2286
I22
aI1
aI499
aasS'f10_10'
p2287
(lp2288
(lp2289
I30
aI356
aI426
aasS'f10_13'
p2290
(lp2291
(lp2292
I22
aI13
aI498
aasS'f10_12'
p2293
(lp2294
(lp2295
I22
aI11
aI500
aasS'f10_15'
p2296
(lp2297
(lp2298
I22
aI2
aI500
aasS'f3_14'
p2299
(lp2300
(lp2301
I11
aI1
aI500
aasS'f10_17'
p2302
(lp2303
(lp2304
I22
aI1
aI495
aasS'f10_16'
p2305
(lp2306
(lp2307
I22
aI1
aI495
aasS'f10_19'
p2308
(lp2309
(lp2310
I22
aI1
aI497
aasS'f2_21'
p2311
(lp2312
(lp2313
I56
aI295
aI433
aasS'f2_22'
p2314
(lp2315
(lp2316
I14
aI2
aI500
aasS'f1_21'
p2317
(lp2318
(lp2319
I36
aI1
aI493
aasS'f2_24'
p2320
(lp2321
(lp2322
I55
aI144
aI268
aasS'f2_25'
p2323
(lp2324
(lp2325
I14
aI1
aI500
aasS'f2_26'
p2326
(lp2327
(lp2328
I14
aI1
aI500
aasS'f2_27'
p2329
(lp2330
(lp2331
I14
aI1
aI500
aasS'ID_64_F1_2_F2_17_G_3_SplitPt_153_GenID_0'
p2332
(lp2333
(lp2334
I14
aI1
aI166
aa(lp2335
I16
aI111
aI500
aasS'ID_110_F1_18_F2_6_G_4_SplitPt_131_GenID_0'
p2336
(lp2337
(lp2338
I2
aI1
aI230
aa(lp2339
I32
aI102
aI500
aasS'f13_25'
p2340
(lp2341
(lp2342
I10
aI1
aI498
aasS'f13_24'
p2343
(lp2344
(lp2345
I10
aI1
aI498
aasS'f13_27'
p2346
(lp2347
(lp2348
I10
aI1
aI499
aasS'f13_26'
p2349
(lp2350
(lp2351
I10
aI1
aI499
aasS'ID_51_F1_13_F2_17_G_1_SplitPt_168_GenID_0'
p2352
(lp2353
(lp2354
I10
aI3
aI171
aa(lp2355
I16
aI118
aI500
aasS'f13_20'
p2356
(lp2357
(lp2358
I10
aI22
aI500
aasS'f13_23'
p2359
(lp2360
(lp2361
I10
aI1
aI469
aasS'f13_22'
p2362
(lp2363
(lp2364
I10
aI1
aI497
aasS'f12_18'
p2365
(lp2366
(lp2367
I27
aI3
aI499
aasS'f13_29'
p2368
(lp2369
(lp2370
I10
aI1
aI499
aasS'f13_28'
p2371
(lp2372
(lp2373
I10
aI2
aI499
aasS'f3_7'
p2374
(lp2375
(lp2376
I11
aI4
aI500
aasS'ID_112_F1_18_F2_3_G_2_SplitPt_73_GenID_0'
p2377
(lp2378
(lp2379
I60
aI2
aI80
aa(lp2380
I11
aI59
aI500
aasS'ID_9_F1_4_F2_2_G_0_SplitPt_161_GenID_0'
p2381
(lp2382
(lp2383
I24
aI3
aI174
aa(lp2384
I14
aI162
aI500
aasS'f2_29'
p2385
(lp2386
(lp2387
I14
aI1
aI500
aasS'f0_24'
p2388
(lp2389
(lp2390
I8
aI2
aI500
aasS'ID_50_F1_5_F2_12_G_1_SplitPt_172_GenID_0'
p2391
(lp2392
(lp2393
I27
aI16
aI500
aa(lp2394
I1
aI7
aI164
aasS'f0_25'
p2395
(lp2396
(lp2397
I8
aI2
aI498
aasS'ID_53_F1_5_F2_3_G_4_SplitPt_193_GenID_0'
p2398
(lp2399
(lp2400
I31
aI103
aI175
aa(lp2401
I11
aI163
aI500
aasS'f19_13'
p2402
(lp2403
(lp2404
I48
aI1
aI52
aa(lp2405
I13
aI13
aI500
aasS'f16_31'
p2406
(lp2407
(lp2408
I26
aI14
aI499
aasS'f16_30'
p2409
(lp2410
(lp2411
I26
aI1
aI496
aasS'ID_48_F1_14_F2_8_G_1_SplitPt_113_GenID_0'
p2412
(lp2413
(lp2414
I58
aI1
aI114
aa(lp2415
I9
aI92
aI500
aasS'f5_8'
p2416
(lp2417
(lp2418
I1
aI1
aI500
aasS'f0_19'
p2419
(lp2420
(lp2421
I8
aI1
aI500
aasS'ID_96_F1_2_F2_1_G_1_SplitPt_136_GenID_0'
p2422
(lp2423
(lp2424
I36
aI125
aI497
aa(lp2425
I14
aI1
aI195
aasS'f12_28'
p2426
(lp2427
(lp2428
I41
aI15
aI73
aasS'f12_29'
p2429
(lp2430
(lp2431
I41
aI1
aI72
aa(lp2432
I27
aI2
aI500
aasS'f12_26'
p2433
(lp2434
(lp2435
I41
aI4
aI77
aasS'f12_27'
p2436
(lp2437
(lp2438
I41
aI3
aI72
aasS'f12_24'
p2439
(lp2440
(lp2441
I41
aI3
aI77
aasS'f12_25'
p2442
(lp2443
(lp2444
I41
aI3
aI77
aasS'f12_22'
p2445
(lp2446
(lp2447
I41
aI4
aI77
aasS'f12_23'
p2448
(lp2449
(lp2450
I27
aI2
aI500
aasS'f12_20'
p2451
(lp2452
(lp2453
I41
aI4
aI80
aasS'f12_21'
p2454
(lp2455
(lp2456
I41
aI4
aI80
aasS'f17_18'
p2457
(lp2458
(lp2459
I16
aI2
aI498
aasS'f17_19'
p2460
(lp2461
(lp2462
I16
aI2
aI500
aasS'f17_14'
p2463
(lp2464
(lp2465
I16
aI2
aI499
aasS'f17_15'
p2466
(lp2467
(lp2468
I16
aI2
aI499
aasS'f17_16'
p2469
(lp2470
(lp2471
I16
aI2
aI498
aasS'f17_17'
p2472
(lp2473
(lp2474
I16
aI2
aI499
aasS'f17_10'
p2475
(lp2476
(lp2477
I16
aI1
aI500
aasS'f17_11'
p2478
(lp2479
(lp2480
I16
aI1
aI500
aasS'f17_12'
p2481
(lp2482
(lp2483
I16
aI10
aI499
aasS'f17_13'
p2484
(lp2485
(lp2486
I16
aI1
aI500
aasS'ID_75_F1_14_F2_19_G_0_SplitPt_64_GenID_0'
p2487
(lp2488
(lp2489
I28
aI3
aI101
aa(lp2490
I13
aI44
aI500
aasS'f5_0'
p2491
(lp2492
(lp2493
I1
aI1
aI500
aasS'f18_4'
p2494
(lp2495
(lp2496
I2
aI1
aI500
aas.