(dp1
S'ID_160_F1_16_F2_11_G_2_SplitPt_122_GenID_0'
p2
(lp3
(lp4
I1
aI127
aI274
aa(lp5
I2
aI3
aI130
aasS'ID_240_F1_2_F2_19_G_0_SplitPt_152_GenID_0'
p6
(lp7
(lp8
I3
aI147
aI357
aasS'f6_30'
p9
(lp10
(lp11
I4
aI1
aI189
aa(lp12
I5
aI43
aI498
aasS'ID_12_F1_0_F2_7_G_1_SplitPt_150_GenID_0'
p13
(lp14
(lp15
I6
aI154
aI500
aasS'f12_26'
p16
(lp17
(lp18
I7
aI2
aI493
aasS'f14_3'
p19
(lp20
(lp21
I8
aI4
aI499
aasS'ID_220_F1_8_F2_9_G_3_SplitPt_52_GenID_0'
p22
(lp23
(lp24
I9
aI54
aI500
aasS'ID_74_F1_11_F2_3_G_4_SplitPt_147_GenID_0'
p25
(lp26
(lp27
I10
aI136
aI500
aa(lp28
I11
aI1
aI189
aasS'f15_29'
p29
(lp30
(lp31
I12
aI1
aI500
aasS'f15_28'
p32
(lp33
(lp34
I12
aI14
aI500
aasS'f15_27'
p35
(lp36
(lp37
I12
aI1
aI493
aasS'f15_26'
p38
(lp39
(lp40
I12
aI1
aI486
aasS'f15_25'
p41
(lp42
(lp43
I12
aI1
aI500
aasS'f15_24'
p44
(lp45
(lp46
I12
aI1
aI499
aasS'f15_23'
p47
(lp48
(lp49
I12
aI4
aI498
aasS'f15_22'
p50
(lp51
(lp52
I12
aI4
aI495
aasS'f15_21'
p53
(lp54
(lp55
I12
aI1
aI500
aasS'f15_20'
p56
(lp57
(lp58
I12
aI1
aI500
aasS'ID_127_F1_18_F2_11_G_0_SplitPt_200_GenID_0'
p59
(lp60
(lp61
I11
aI244
aI497
aasS'ID_205_F1_11_F2_15_G_4_SplitPt_203_GenID_0'
p62
(lp63
(lp64
I12
aI204
aI500
aa(lp65
I11
aI1
aI223
aasS'ID_207_F1_16_F2_7_G_3_SplitPt_112_GenID_0'
p66
(lp67
(lp68
I2
aI1
aI109
aa(lp69
I6
aI101
aI500
aasS'ID_247_F1_11_F2_11_G_0_SplitPt_113_GenID_0'
p70
(lp71
(lp72
I11
aI148
aI479
aasS'ID_171_F1_11_F2_1_G_3_SplitPt_119_GenID_0'
p73
(lp74
(lp75
I13
aI104
aI500
aa(lp76
I11
aI1
aI125
aasS'f11_31'
p77
(lp78
(lp79
I11
aI4
aI497
aasS'f3_30'
p80
(lp81
(lp82
I10
aI5
aI500
aasS'f3_31'
p83
(lp84
(lp85
I10
aI25
aI500
aasS'ID_128_F1_14_F2_5_G_1_SplitPt_215_GenID_0'
p86
(lp87
(lp88
I14
aI216
aI500
aa(lp89
I8
aI28
aI218
aasS'f15_17'
p90
(lp91
(lp92
I12
aI2
aI499
aasS'ID_39_F1_5_F2_5_G_4_SplitPt_156_GenID_0'
p93
(lp94
(lp95
I14
aI1
aI500
aasS'f19_29'
p96
(lp97
(lp98
I3
aI5
aI499
aasS'ID_51_F1_4_F2_16_G_2_SplitPt_77_GenID_0'
p99
(lp100
(lp101
I15
aI78
aI500
aasS'ID_14_F1_18_F2_5_G_1_SplitPt_203_GenID_0'
p102
(lp103
(lp104
I16
aI1
aI202
aa(lp105
I14
aI199
aI496
aasS'f19_28'
p106
(lp107
(lp108
I3
aI3
aI498
aasS'ID_13_F1_12_F2_7_G_1_SplitPt_153_GenID_0'
p109
(lp110
(lp111
I7
aI1
aI162
aa(lp112
I6
aI77
aI500
aasS'f11_4'
p113
(lp114
(lp115
I11
aI30
aI500
aasS'ID_224_F1_0_F2_8_G_4_SplitPt_149_GenID_0'
p116
(lp117
(lp118
I17
aI1
aI182
aa(lp119
I8
aI146
aI500
aasS'ID_72_F1_17_F2_6_G_4_SplitPt_245_GenID_0'
p120
(lp121
(lp122
I18
aI1
aI251
aa(lp123
I5
aI245
aI500
aasS'f10_25'
p124
(lp125
(lp126
I19
aI1
aI498
aasS'ID_226_F1_18_F2_0_G_2_SplitPt_110_GenID_0'
p127
(lp128
(lp129
I20
aI5
aI175
aa(lp130
I21
aI116
aI498
aasS'f17_8'
p131
(lp132
(lp133
I22
aI1
aI241
aa(lp134
I18
aI208
aI500
aasS'ID_115_F1_9_F2_18_G_3_SplitPt_246_GenID_0'
p135
(lp136
(lp137
I23
aI196
aI500
aa(lp138
I9
aI2
aI270
aasS'f2_11'
p139
(lp140
(lp141
I24
aI28
aI500
aasS'f2_10'
p142
(lp143
(lp144
I24
aI52
aI500
aasS'f2_13'
p145
(lp146
(lp147
I24
aI1
aI499
aasS'f17_9'
p148
(lp149
(lp150
I22
aI1
aI281
aa(lp151
I18
aI175
aI500
aasS'f2_15'
p152
(lp153
(lp154
I24
aI7
aI500
aasS'f2_14'
p155
(lp156
(lp157
I24
aI10
aI500
aasS'f2_17'
p158
(lp159
(lp160
I24
aI1
aI471
aasS'f2_16'
p161
(lp162
(lp163
I24
aI1
aI500
aasS'f2_19'
p164
(lp165
(lp166
I24
aI2
aI498
aasS'f2_18'
p167
(lp168
(lp169
I24
aI16
aI500
aasS'ID_106_F1_0_F2_15_G_0_SplitPt_158_GenID_0'
p170
(lp171
(lp172
I12
aI146
aI480
aasS'f19_20'
p173
(lp174
(lp175
I3
aI4
aI498
aasS'f12_22'
p176
(lp177
(lp178
I7
aI2
aI498
aasS'ID_156_F1_10_F2_17_G_1_SplitPt_240_GenID_0'
p179
(lp180
(lp181
I18
aI245
aI478
aa(lp182
I19
aI1
aI266
aasS'f19_18'
p183
(lp184
(lp185
I3
aI4
aI500
aasS'ID_178_F1_6_F2_7_G_0_SplitPt_152_GenID_0'
p186
(lp187
(lp188
I25
aI321
aI433
aasS'f15_18'
p189
(lp190
(lp191
I12
aI1
aI486
aasS'ID_30_F1_1_F2_13_G_3_SplitPt_207_GenID_0'
p192
(lp193
(lp194
I26
aI202
aI500
aa(lp195
I13
aI1
aI217
aasS'f15_19'
p196
(lp197
(lp198
I12
aI2
aI488
aasS'ID_176_F1_13_F2_16_G_1_SplitPt_93_GenID_0'
p199
(lp200
(lp201
I15
aI93
aI500
aasS'f17_1'
p202
(lp203
(lp204
I22
aI1
aI261
aa(lp205
I18
aI52
aI500
aasS'f8_31'
p206
(lp207
(lp208
I8
aI2
aI473
aasS'f8_30'
p209
(lp210
(lp211
I8
aI2
aI494
aasS'ID_209_F1_6_F2_6_G_2_SplitPt_118_GenID_0'
p212
(lp213
(lp214
I27
aI5
aI202
aa(lp215
I5
aI99
aI500
aasS'ID_38_F1_3_F2_0_G_4_SplitPt_227_GenID_0'
p216
(lp217
(lp218
I21
aI228
aI500
aa(lp219
I10
aI1
aI239
aasS'f19_0'
p220
(lp221
(lp222
I3
aI1
aI500
aasS'ID_179_F1_1_F2_3_G_4_SplitPt_182_GenID_0'
p223
(lp224
(lp225
I10
aI151
aI500
aa(lp226
I13
aI1
aI220
aasS'ID_225_F1_4_F2_4_G_2_SplitPt_50_GenID_0'
p227
(lp228
(lp229
I28
aI24
aI490
aasS'ID_252_F1_8_F2_4_G_1_SplitPt_50_GenID_0'
p230
(lp231
(lp232
I28
aI51
aI500
aasS'ID_130_F1_6_F2_2_G_0_SplitPt_76_GenID_0'
p233
(lp234
(lp235
I24
aI50
aI482
aasS'f19_1'
p236
(lp237
(lp238
I3
aI1
aI500
aasS'ID_49_F1_15_F2_12_G_3_SplitPt_127_GenID_0'
p239
(lp240
(lp241
I7
aI110
aI500
aa(lp242
I12
aI1
aI127
aasS'f10_26'
p243
(lp244
(lp245
I19
aI5
aI498
aasS'f8_21'
p246
(lp247
(lp248
I8
aI12
aI488
aasS'ID_251_F1_7_F2_16_G_1_SplitPt_125_GenID_0'
p249
(lp250
(lp251
I6
aI5
aI125
aa(lp252
I15
aI59
aI496
aasS'ID_124_F1_1_F2_15_G_4_SplitPt_93_GenID_0'
p253
(lp254
(lp255
I29
aI336
aI493
aa(lp256
I30
aI1
aI94
aasS'ID_7_F1_9_F2_3_G_0_SplitPt_211_GenID_0'
p257
(lp258
(lp259
I10
aI289
aI492
aasS'f19_30'
p260
(lp261
(lp262
I3
aI3
aI498
aasS'ID_5_F1_5_F2_5_G_4_SplitPt_140_GenID_0'
p263
(lp264
(lp265
I14
aI1
aI500
aasS'ID_169_F1_13_F2_12_G_1_SplitPt_81_GenID_0'
p266
(lp267
(lp268
I7
aI80
aI498
aasS'ID_20_F1_10_F2_9_G_2_SplitPt_164_GenID_0'
p269
(lp270
(lp271
I9
aI158
aI500
aa(lp272
I19
aI1
aI163
aasS'f11_22'
p273
(lp274
(lp275
I11
aI1
aI498
aasS'f11_21'
p276
(lp277
(lp278
I31
aI52
aI118
aasS'f11_20'
p279
(lp280
(lp281
I11
aI1
aI499
aasS'f11_27'
p282
(lp283
(lp284
I11
aI1
aI500
aasS'f11_26'
p285
(lp286
(lp287
I11
aI5
aI498
aasS'f11_25'
p288
(lp289
(lp290
I1
aI127
aI276
aasS'f11_24'
p291
(lp292
(lp293
I11
aI1
aI495
aasS'f11_29'
p294
(lp295
(lp296
I11
aI1
aI500
aasS'f11_28'
p297
(lp298
(lp299
I11
aI1
aI500
aasS'f19_31'
p300
(lp301
(lp302
I3
aI7
aI499
aasS'f4_31'
p303
(lp304
(lp305
I28
aI3
aI492
aasS'f4_30'
p306
(lp307
(lp308
I32
aI176
aI229
aasS'ID_58_F1_9_F2_18_G_3_SplitPt_55_GenID_0'
p309
(lp310
(lp311
I33
aI1
aI60
aa(lp312
I23
aI50
aI500
aasS'f19_3'
p313
(lp314
(lp315
I3
aI3
aI500
aasS'ID_21_F1_1_F2_17_G_3_SplitPt_233_GenID_0'
p316
(lp317
(lp318
I18
aI217
aI500
aa(lp319
I13
aI1
aI237
aasS'ID_102_F1_15_F2_1_G_2_SplitPt_201_GenID_0'
p320
(lp321
(lp322
I34
aI129
aI200
aasS'f7_23'
p323
(lp324
(lp325
I35
aI1
aI133
aasS'f19_19'
p326
(lp327
(lp328
I3
aI4
aI500
aasS'ID_15_F1_7_F2_6_G_2_SplitPt_105_GenID_0'
p329
(lp330
(lp331
I5
aI101
aI491
aasS'f14_26'
p332
(lp333
(lp334
I8
aI26
aI500
aasS'f15_15'
p335
(lp336
(lp337
I12
aI3
aI500
aasS'f19_4'
p338
(lp339
(lp340
I3
aI1
aI500
aasS'f8_5'
p341
(lp342
(lp343
I8
aI38
aI500
aasS'f14_5'
p344
(lp345
(lp346
I8
aI5
aI500
aasS'ID_45_F1_14_F2_4_G_0_SplitPt_81_GenID_0'
p347
(lp348
(lp349
I28
aI81
aI487
aasS'f8_4'
p350
(lp351
(lp352
I8
aI100
aI500
aasS'f14_4'
p353
(lp354
(lp355
I8
aI15
aI488
aasS'ID_173_F1_7_F2_13_G_0_SplitPt_215_GenID_0'
p356
(lp357
(lp358
I36
aI231
aI396
aasS'ID_164_F1_14_F2_17_G_1_SplitPt_50_GenID_0'
p359
(lp360
(lp361
I18
aI41
aI500
aasS'ID_253_F1_10_F2_18_G_1_SplitPt_231_GenID_0'
p362
(lp363
(lp364
I23
aI215
aI500
aa(lp365
I19
aI4
aI236
aasS'f7_26'
p366
(lp367
(lp368
I37
aI3
aI237
aasS'ID_174_F1_19_F2_7_G_1_SplitPt_227_GenID_0'
p369
(lp370
(lp371
I6
aI231
aI495
aa(lp372
I3
aI1
aI228
aasS'f14_6'
p373
(lp374
(lp375
I38
aI315
aI412
aasS'f8_1'
p376
(lp377
(lp378
I8
aI57
aI500
aasS'f8_27'
p379
(lp380
(lp381
I8
aI1
aI497
aasS'f14_1'
p382
(lp383
(lp384
I8
aI4
aI495
aasS'f19_5'
p385
(lp386
(lp387
I3
aI3
aI500
aasS'f8_0'
p388
(lp389
(lp390
I8
aI57
aI500
aasS'f8_24'
p391
(lp392
(lp393
I8
aI1
aI497
aasS'ID_111_F1_9_F2_10_G_4_SplitPt_182_GenID_0'
p394
(lp395
(lp396
I9
aI1
aI203
aa(lp397
I19
aI159
aI500
aasS'f14_0'
p398
(lp399
(lp400
I8
aI4
aI499
aasS'f8_25'
p401
(lp402
(lp403
I8
aI1
aI497
aasS'ID_90_F1_14_F2_2_G_4_SplitPt_139_GenID_0'
p404
(lp405
(lp406
I39
aI1
aI139
aa(lp407
I24
aI95
aI500
aasS'ID_189_F1_2_F2_5_G_0_SplitPt_177_GenID_0'
p408
(lp409
(lp410
I14
aI179
aI364
aasS'f14_31'
p411
(lp412
(lp413
I39
aI1
aI217
aa(lp414
I8
aI44
aI499
aasS'f14_30'
p415
(lp416
(lp417
I8
aI1
aI498
aasS'f8_22'
p418
(lp419
(lp420
I8
aI1
aI500
aasS'ID_147_F1_10_F2_14_G_1_SplitPt_217_GenID_0'
p421
(lp422
(lp423
I19
aI1
aI241
aa(lp424
I8
aI223
aI500
aasS'f14_2'
p425
(lp426
(lp427
I8
aI2
aI499
aasS'ID_50_F1_1_F2_14_G_0_SplitPt_121_GenID_0'
p428
(lp429
(lp430
I8
aI122
aI498
aasS'f8_23'
p431
(lp432
(lp433
I8
aI1
aI500
aasS'f15_16'
p434
(lp435
(lp436
I29
aI336
aI492
aasS'f16_3'
p437
(lp438
(lp439
I15
aI51
aI500
aasS'f15_14'
p440
(lp441
(lp442
I40
aI175
aI344
aasS'ID_166_F1_2_F2_8_G_3_SplitPt_147_GenID_0'
p443
(lp444
(lp445
I24
aI1
aI143
aa(lp446
I8
aI148
aI500
aasS'f15_12'
p447
(lp448
(lp449
I12
aI1
aI500
aasS'f15_13'
p450
(lp451
(lp452
I12
aI1
aI500
aasS'f15_10'
p453
(lp454
(lp455
I12
aI1
aI500
aasS'f15_11'
p456
(lp457
(lp458
I12
aI1
aI499
aasS'f19_6'
p459
(lp460
(lp461
I3
aI1
aI500
aasS'f19_22'
p462
(lp463
(lp464
I3
aI4
aI500
aasS'f19_21'
p465
(lp466
(lp467
I41
aI96
aI150
aasS'f3_7'
p468
(lp469
(lp470
I42
aI16
aI186
aa(lp471
I10
aI102
aI500
aasS'f19_27'
p472
(lp473
(lp474
I3
aI1
aI499
aasS'f19_26'
p475
(lp476
(lp477
I3
aI1
aI484
aasS'f19_25'
p478
(lp479
(lp480
I3
aI1
aI498
aasS'f19_24'
p481
(lp482
(lp483
I3
aI1
aI498
aasS'ID_134_F1_15_F2_18_G_4_SplitPt_121_GenID_0'
p484
(lp485
(lp486
I23
aI94
aI500
aa(lp487
I12
aI1
aI122
aasS'ID_161_F1_2_F2_4_G_1_SplitPt_72_GenID_0'
p488
(lp489
(lp490
I28
aI38
aI499
aasS'f10_28'
p491
(lp492
(lp493
I19
aI1
aI493
aasS'f10_29'
p494
(lp495
(lp496
I19
aI4
aI500
aasS'f3_9'
p497
(lp498
(lp499
I43
aI51
aI289
aasS'f10_24'
p500
(lp501
(lp502
I19
aI2
aI498
aasS'ID_17_F1_14_F2_18_G_1_SplitPt_206_GenID_0'
p503
(lp504
(lp505
I44
aI106
aI203
aa(lp506
I23
aI205
aI495
aasS'ID_200_F1_0_F2_6_G_4_SplitPt_160_GenID_0'
p507
(lp508
(lp509
I45
aI1
aI77
aa(lp510
I5
aI154
aI500
aasS'f10_27'
p511
(lp512
(lp513
I19
aI1
aI498
aasS'f10_20'
p514
(lp515
(lp516
I19
aI1
aI486
aasS'f10_21'
p517
(lp518
(lp519
I19
aI3
aI486
aasS'f10_22'
p520
(lp521
(lp522
I19
aI1
aI499
aasS'f10_23'
p523
(lp524
(lp525
I19
aI1
aI499
aasS'f0_28'
p526
(lp527
(lp528
I21
aI7
aI500
aasS'f19_7'
p529
(lp530
(lp531
I3
aI7
aI498
aasS'f0_29'
p532
(lp533
(lp534
I21
aI6
aI500
aasS'f13_10'
p535
(lp536
(lp537
I46
aI206
aI356
aasS'f13_11'
p538
(lp539
(lp540
I26
aI7
aI500
aasS'f13_12'
p541
(lp542
(lp543
I26
aI1
aI500
aasS'f13_13'
p544
(lp545
(lp546
I26
aI1
aI500
aasS'f13_14'
p547
(lp548
(lp549
I26
aI6
aI500
aasS'f13_15'
p550
(lp551
(lp552
I26
aI4
aI499
aasS'f13_16'
p553
(lp554
(lp555
I26
aI3
aI500
aasS'f13_17'
p556
(lp557
(lp558
I26
aI2
aI499
aasS'f13_18'
p559
(lp560
(lp561
I26
aI1
aI499
aasS'f13_19'
p562
(lp563
(lp564
I26
aI2
aI499
aasS'f8_29'
p565
(lp566
(lp567
I8
aI2
aI462
aasS'f0_24'
p568
(lp569
(lp570
I21
aI7
aI500
aasS'f0_25'
p571
(lp572
(lp573
I21
aI38
aI500
aasS'ID_73_F1_8_F2_14_G_3_SplitPt_220_GenID_0'
p574
(lp575
(lp576
I8
aI1
aI500
aasS'f18_24'
p577
(lp578
(lp579
I23
aI15
aI500
aasS'f18_25'
p580
(lp581
(lp582
I23
aI3
aI499
aasS'f18_26'
p583
(lp584
(lp585
I23
aI11
aI498
aasS'f18_27'
p586
(lp587
(lp588
I23
aI23
aI498
aasS'f18_20'
p589
(lp590
(lp591
I16
aI1
aI113
aa(lp592
I23
aI53
aI500
aasS'f18_21'
p593
(lp594
(lp595
I16
aI1
aI124
aasS'f18_22'
p596
(lp597
(lp598
I16
aI2
aI112
aa(lp599
I23
aI53
aI499
aasS'f18_23'
p600
(lp601
(lp602
I16
aI2
aI202
aa(lp603
I23
aI47
aI500
aasS'f18_28'
p604
(lp605
(lp606
I23
aI7
aI500
aasS'f18_29'
p607
(lp608
(lp609
I23
aI2
aI500
aasS'ID_204_F1_2_F2_13_G_3_SplitPt_183_GenID_0'
p610
(lp611
(lp612
I24
aI2
aI188
aa(lp613
I26
aI155
aI499
aasS'f11_18'
p614
(lp615
(lp616
I11
aI1
aI497
aasS'ID_47_F1_8_F2_15_G_4_SplitPt_73_GenID_0'
p617
(lp618
(lp619
I47
aI77
aI166
aa(lp620
I48
aI1
aI74
aasS'ID_132_F1_1_F2_9_G_1_SplitPt_228_GenID_0'
p621
(lp622
(lp623
I49
aI37
aI224
aa(lp624
I9
aI225
aI499
aasS'ID_213_F1_12_F2_13_G_3_SplitPt_69_GenID_0'
p625
(lp626
(lp627
I50
aI1
aI68
aa(lp628
I26
aI11
aI500
aasS'f11_12'
p629
(lp630
(lp631
I11
aI48
aI499
aasS'f11_13'
p632
(lp633
(lp634
I11
aI14
aI498
aasS'f11_10'
p635
(lp636
(lp637
I51
aI1
aI248
aa(lp638
I11
aI86
aI500
aasS'f11_11'
p639
(lp640
(lp641
I51
aI1
aI251
aa(lp642
I11
aI91
aI500
aasS'f11_16'
p643
(lp644
(lp645
I11
aI2
aI497
aasS'f11_17'
p646
(lp647
(lp648
I11
aI1
aI498
aasS'f11_14'
p649
(lp650
(lp651
I52
aI236
aI357
aasS'f11_15'
p652
(lp653
(lp654
I51
aI8
aI258
aasS'f9_14'
p655
(lp656
(lp657
I9
aI2
aI499
aasS'f9_15'
p658
(lp659
(lp660
I9
aI2
aI499
aasS'f9_16'
p661
(lp662
(lp663
I53
aI192
aI329
aasS'f9_17'
p664
(lp665
(lp666
I9
aI1
aI500
aasS'f9_10'
p667
(lp668
(lp669
I9
aI164
aI499
aasS'f9_11'
p670
(lp671
(lp672
I9
aI53
aI498
aasS'f9_12'
p673
(lp674
(lp675
I9
aI2
aI500
aasS'f9_13'
p676
(lp677
(lp678
I53
aI181
aI329
aasS'f9_18'
p679
(lp680
(lp681
I9
aI24
aI500
aasS'f9_19'
p682
(lp683
(lp684
I33
aI1
aI60
aa(lp685
I9
aI3
aI499
aasS'ID_203_F1_11_F2_13_G_0_SplitPt_226_GenID_0'
p686
(lp687
(lp688
I26
aI242
aI441
aa(lp689
I11
aI56
aI229
aasS'ID_183_F1_5_F2_5_G_3_SplitPt_133_GenID_0'
p690
(lp691
(lp692
I54
aI2
aI53
aasS'ID_120_F1_18_F2_19_G_1_SplitPt_204_GenID_0'
p693
(lp694
(lp695
I23
aI2
aI262
aa(lp696
I3
aI206
aI499
aasS'f17_27'
p697
(lp698
(lp699
I18
aI1
aI484
aasS'ID_4_F1_1_F2_1_G_1_SplitPt_125_GenID_0'
p700
(lp701
(lp702
I13
aI118
aI499
aasS'f9_8'
p703
(lp704
(lp705
I9
aI19
aI499
aasS'f11_23'
p706
(lp707
(lp708
I11
aI1
aI500
aasS'f7_16'
p709
(lp710
(lp711
I35
aI5
aI134
aasS'f7_17'
p712
(lp713
(lp714
I35
aI4
aI134
aa(lp715
I6
aI14
aI496
aasS'f7_14'
p716
(lp717
(lp718
I6
aI3
aI498
aasS'f7_15'
p719
(lp720
(lp721
I6
aI2
aI496
aasS'f7_12'
p722
(lp723
(lp724
I6
aI1
aI498
aasS'f7_13'
p725
(lp726
(lp727
I6
aI1
aI496
aasS'f7_10'
p728
(lp729
(lp730
I6
aI1
aI496
aasS'f7_11'
p731
(lp732
(lp733
I6
aI1
aI496
aasS'f5_10'
p734
(lp735
(lp736
I55
aI11
aI78
aasS'f5_11'
p737
(lp738
(lp739
I55
aI1
aI78
aasS'f5_12'
p740
(lp741
(lp742
I55
aI3
aI78
aasS'f5_13'
p743
(lp744
(lp745
I14
aI1
aI411
aasS'f5_14'
p746
(lp747
(lp748
I56
aI2
aI53
aa(lp749
I14
aI26
aI499
aasS'f5_15'
p750
(lp751
(lp752
I56
aI1
aI53
aasS'f7_18'
p753
(lp754
(lp755
I35
aI5
aI132
aasS'f7_19'
p756
(lp757
(lp758
I35
aI1
aI133
aasS'ID_229_F1_12_F2_11_G_1_SplitPt_249_GenID_0'
p759
(lp760
(lp761
I7
aI6
aI249
aa(lp762
I11
aI229
aI500
aasS'ID_165_F1_4_F2_4_G_4_SplitPt_170_GenID_0'
p763
(lp764
(lp765
I28
aI1
aI500
aasS'f11_7'
p766
(lp767
(lp768
I11
aI6
aI500
aasS'ID_55_F1_10_F2_16_G_3_SplitPt_218_GenID_0'
p769
(lp770
(lp771
I19
aI1
aI257
aa(lp772
I15
aI200
aI500
aasS'ID_36_F1_3_F2_2_G_0_SplitPt_90_GenID_0'
p773
(lp774
(lp775
I24
aI260
aI500
aasS'f12_31'
p776
(lp777
(lp778
I7
aI51
aI497
aasS'f12_30'
p779
(lp780
(lp781
I7
aI44
aI500
aasS'ID_172_F1_3_F2_11_G_1_SplitPt_226_GenID_0'
p782
(lp783
(lp784
I57
aI2
aI98
aa(lp785
I42
aI3
aI201
aa(lp786
I11
aI208
aI500
aasS'ID_206_F1_14_F2_16_G_0_SplitPt_213_GenID_0'
p787
(lp788
(lp789
I58
aI8
aI209
aasS'ID_123_F1_5_F2_6_G_4_SplitPt_53_GenID_0'
p790
(lp791
(lp792
I59
aI54
aI164
aa(lp793
I54
aI1
aI54
aasS'ID_37_F1_15_F2_16_G_4_SplitPt_121_GenID_0'
p794
(lp795
(lp796
I15
aI77
aI500
aa(lp797
I12
aI1
aI201
aasS'ID_191_F1_15_F2_11_G_4_SplitPt_56_GenID_0'
p798
(lp799
(lp800
I12
aI1
aI61
aa(lp801
I11
aI39
aI500
aasS'f13_6'
p802
(lp803
(lp804
I26
aI2
aI499
aasS'f9_24'
p805
(lp806
(lp807
I9
aI63
aI500
aasS'ID_79_F1_14_F2_12_G_1_SplitPt_245_GenID_0'
p808
(lp809
(lp810
I7
aI216
aI495
aasS'ID_91_F1_17_F2_16_G_4_SplitPt_71_GenID_0'
p811
(lp812
(lp813
I60
aI87
aI253
aa(lp814
I22
aI1
aI112
aasS'ID_243_F1_13_F2_14_G_4_SplitPt_168_GenID_0'
p815
(lp816
(lp817
I26
aI1
aI250
aa(lp818
I8
aI144
aI500
aasS'ID_61_F1_4_F2_13_G_3_SplitPt_61_GenID_0'
p819
(lp820
(lp821
I61
aI1
aI73
aa(lp822
I26
aI62
aI500
aasS'ID_234_F1_15_F2_11_G_4_SplitPt_166_GenID_0'
p823
(lp824
(lp825
I47
aI77
aI166
aa(lp826
I11
aI137
aI500
aasS'ID_85_F1_17_F2_19_G_2_SplitPt_73_GenID_0'
p827
(lp828
(lp829
I62
aI75
aI138
aasS'ID_168_F1_17_F2_17_G_0_SplitPt_162_GenID_0'
p830
(lp831
(lp832
I63
aI53
aI155
aasS'ID_159_F1_12_F2_4_G_2_SplitPt_65_GenID_0'
p833
(lp834
(lp835
I28
aI21
aI500
aasS'ID_231_F1_0_F2_13_G_0_SplitPt_90_GenID_0'
p836
(lp837
(lp838
I26
aI91
aI463
aasS'f13_7'
p839
(lp840
(lp841
I26
aI2
aI500
aasS'ID_153_F1_16_F2_15_G_4_SplitPt_160_GenID_0'
p842
(lp843
(lp844
I40
aI175
aI344
aa(lp845
I2
aI1
aI160
aasS'ID_150_F1_14_F2_12_G_3_SplitPt_133_GenID_0'
p846
(lp847
(lp848
I7
aI133
aI500
aa(lp849
I8
aI1
aI145
aasS'f13_4'
p850
(lp851
(lp852
I26
aI1
aI496
aasS'ID_232_F1_12_F2_11_G_3_SplitPt_156_GenID_0'
p853
(lp854
(lp855
I64
aI1
aI169
aa(lp856
I11
aI133
aI500
aasS'f13_3'
p857
(lp858
(lp859
I26
aI7
aI496
aasS'ID_34_F1_17_F2_17_G_4_SplitPt_63_GenID_0'
p860
(lp861
(lp862
I22
aI1
aI239
aa(lp863
I18
aI52
aI500
aasS'ID_144_F1_15_F2_4_G_4_SplitPt_128_GenID_0'
p864
(lp865
(lp866
I12
aI1
aI185
aa(lp867
I28
aI53
aI500
aasS'f2_0'
p868
(lp869
(lp870
I24
aI1
aI500
aasS'f7_4'
p871
(lp872
(lp873
I6
aI1
aI499
aasS'f7_5'
p874
(lp875
(lp876
I6
aI5
aI499
aasS'f7_6'
p877
(lp878
(lp879
I6
aI5
aI500
aasS'f7_7'
p880
(lp881
(lp882
I6
aI20
aI500
aasS'ID_1_F1_7_F2_19_G_4_SplitPt_132_GenID_0'
p883
(lp884
(lp885
I35
aI1
aI134
aa(lp886
I3
aI95
aI500
aasS'f7_1'
p887
(lp888
(lp889
I6
aI5
aI498
aasS'f7_2'
p890
(lp891
(lp892
I65
aI12
aI159
aasS'f7_3'
p893
(lp894
(lp895
I6
aI10
aI497
aasS'ID_52_F1_14_F2_2_G_0_SplitPt_190_GenID_0'
p896
(lp897
(lp898
I24
aI273
aI497
aasS'ID_62_F1_6_F2_11_G_1_SplitPt_171_GenID_0'
p899
(lp900
(lp901
I5
aI1
aI169
aa(lp902
I11
aI154
aI500
aasS'f7_8'
p903
(lp904
(lp905
I25
aI321
aI426
aasS'f7_9'
p906
(lp907
(lp908
I6
aI1
aI500
aasS'ID_190_F1_1_F2_12_G_3_SplitPt_147_GenID_0'
p909
(lp910
(lp911
I7
aI147
aI500
aa(lp912
I13
aI1
aI194
aasS'ID_2_F1_18_F2_5_G_2_SplitPt_128_GenID_0'
p913
(lp914
(lp915
I66
aI1
aI128
aa(lp916
I14
aI127
aI500
aasS'f13_8'
p917
(lp918
(lp919
I26
aI4
aI500
aasS'ID_218_F1_6_F2_19_G_3_SplitPt_188_GenID_0'
p920
(lp921
(lp922
I4
aI1
aI195
aa(lp923
I3
aI185
aI500
aasS'f19_12'
p924
(lp925
(lp926
I67
aI1
aI78
aasS'f19_13'
p927
(lp928
(lp929
I67
aI1
aI78
aasS'f5_8'
p930
(lp931
(lp932
I55
aI1
aI114
aasS'f5_9'
p933
(lp934
(lp935
I55
aI1
aI78
aasS'f19_16'
p936
(lp937
(lp938
I3
aI10
aI500
aasS'f19_17'
p939
(lp940
(lp941
I3
aI5
aI500
aasS'f19_14'
p942
(lp943
(lp944
I67
aI1
aI78
aa(lp945
I3
aI2
aI499
aasS'f19_15'
p946
(lp947
(lp948
I67
aI1
aI73
aa(lp949
I3
aI9
aI499
aasS'f5_2'
p950
(lp951
(lp952
I14
aI1
aI493
aasS'f5_3'
p953
(lp954
(lp955
I14
aI1
aI492
aasS'f6_31'
p956
(lp957
(lp958
I4
aI1
aI187
aa(lp959
I5
aI3
aI500
aasS'ID_237_F1_18_F2_9_G_1_SplitPt_123_GenID_0'
p960
(lp961
(lp962
I16
aI4
aI129
aa(lp963
I9
aI98
aI500
aasS'f5_6'
p964
(lp965
(lp966
I14
aI1
aI500
aasS'f5_7'
p967
(lp968
(lp969
I14
aI1
aI500
aasS'f5_4'
p970
(lp971
(lp972
I14
aI1
aI500
aasS'f5_5'
p973
(lp974
(lp975
I14
aI1
aI499
aasS'f2_12'
p976
(lp977
(lp978
I24
aI18
aI500
aasS'f15_8'
p979
(lp980
(lp981
I12
aI1
aI500
aasS'ID_135_F1_8_F2_19_G_1_SplitPt_74_GenID_0'
p982
(lp983
(lp984
I3
aI75
aI500
aasS'f15_2'
p985
(lp986
(lp987
I12
aI1
aI500
aasS'ID_100_F1_1_F2_19_G_1_SplitPt_82_GenID_0'
p988
(lp989
(lp990
I3
aI83
aI500
aasS'f15_3'
p991
(lp992
(lp993
I12
aI1
aI500
aasS'ID_177_F1_0_F2_14_G_1_SplitPt_153_GenID_0'
p994
(lp995
(lp996
I68
aI3
aI154
aa(lp997
I8
aI133
aI498
aasS'ID_182_F1_12_F2_14_G_1_SplitPt_221_GenID_0'
p998
(lp999
(lp1000
I69
aI416
aI500
aa(lp1001
I70
aI2
aI250
aa(lp1002
I8
aI260
aI499
aasS'ID_110_F1_3_F2_0_G_3_SplitPt_115_GenID_0'
p1003
(lp1004
(lp1005
I71
aI3
aI115
aa(lp1006
I21
aI106
aI499
aasS'ID_157_F1_15_F2_0_G_4_SplitPt_172_GenID_0'
p1007
(lp1008
(lp1009
I21
aI133
aI500
aa(lp1010
I12
aI1
aI173
aasS'f9_28'
p1011
(lp1012
(lp1013
I9
aI1
aI500
aasS'f3_0'
p1014
(lp1015
(lp1016
I10
aI136
aI500
aasS'f3_1'
p1017
(lp1018
(lp1019
I10
aI137
aI500
aasS'f3_2'
p1020
(lp1021
(lp1022
I10
aI65
aI500
aasS'f3_3'
p1023
(lp1024
(lp1025
I42
aI3
aI188
aa(lp1026
I10
aI57
aI500
aasS'f3_4'
p1027
(lp1028
(lp1029
I10
aI138
aI500
aasS'f3_5'
p1030
(lp1031
(lp1032
I57
aI2
aI98
aa(lp1033
I10
aI155
aI500
aasS'f3_6'
p1034
(lp1035
(lp1036
I42
aI9
aI201
aa(lp1037
I10
aI19
aI500
aasS'ID_217_F1_8_F2_19_G_1_SplitPt_174_GenID_0'
p1038
(lp1039
(lp1040
I72
aI13
aI164
aa(lp1041
I3
aI161
aI500
aasS'f3_8'
p1042
(lp1043
(lp1044
I10
aI83
aI500
aasS'f0_3'
p1045
(lp1046
(lp1047
I17
aI1
aI160
aa(lp1048
I21
aI106
aI498
aasS'ID_46_F1_1_F2_2_G_3_SplitPt_197_GenID_0'
p1049
(lp1050
(lp1051
I73
aI12
aI92
aa(lp1052
I24
aI195
aI498
aasS'f8_28'
p1053
(lp1054
(lp1055
I74
aI159
aI315
aasS'f15_9'
p1056
(lp1057
(lp1058
I12
aI1
aI500
aasS'f1_6'
p1059
(lp1060
(lp1061
I75
aI274
aI378
aa(lp1062
I49
aI37
aI202
aasS'f1_7'
p1063
(lp1064
(lp1065
I13
aI43
aI498
aasS'f1_4'
p1066
(lp1067
(lp1068
I49
aI95
aI224
aa(lp1069
I13
aI113
aI496
aasS'f1_5'
p1070
(lp1071
(lp1072
I49
aI100
aI206
aasS'f1_2'
p1073
(lp1074
(lp1075
I30
aI1
aI127
aa(lp1076
I13
aI5
aI499
aasS'f1_3'
p1077
(lp1078
(lp1079
I30
aI1
aI127
aa(lp1080
I13
aI8
aI497
aasS'f1_0'
p1081
(lp1082
(lp1083
I30
aI1
aI128
aa(lp1084
I13
aI27
aI499
aasS'f1_1'
p1085
(lp1086
(lp1087
I30
aI1
aI127
aa(lp1088
I13
aI27
aI498
aasS'ID_56_F1_10_F2_10_G_2_SplitPt_189_GenID_0'
p1089
(lp1090
(lp1091
I19
aI1
aI500
aasS'f1_8'
p1092
(lp1093
(lp1094
I13
aI74
aI499
aasS'f1_9'
p1095
(lp1096
(lp1097
I13
aI1
aI499
aasS'ID_76_F1_6_F2_15_G_2_SplitPt_124_GenID_0'
p1098
(lp1099
(lp1100
I4
aI7
aI147
aa(lp1101
I12
aI69
aI500
aasS'ID_77_F1_17_F2_12_G_2_SplitPt_144_GenID_0'
p1102
(lp1103
(lp1104
I22
aI1
aI153
aa(lp1105
I7
aI115
aI500
aasS'ID_230_F1_6_F2_16_G_2_SplitPt_159_GenID_0'
p1106
(lp1107
(lp1108
I59
aI2
aI177
aa(lp1109
I15
aI147
aI495
aasS'ID_6_F1_5_F2_11_G_3_SplitPt_170_GenID_0'
p1110
(lp1111
(lp1112
I14
aI1
aI170
aa(lp1113
I11
aI151
aI500
aasS'f9_9'
p1114
(lp1115
(lp1116
I9
aI9
aI500
aasS'f9_6'
p1117
(lp1118
(lp1119
I76
aI4
aI92
aasS'f9_7'
p1120
(lp1121
(lp1122
I76
aI1
aI113
aa(lp1123
I9
aI6
aI494
aasS'f9_4'
p1124
(lp1125
(lp1126
I77
aI161
aI309
aa(lp1127
I76
aI7
aI88
aasS'f9_5'
p1128
(lp1129
(lp1130
I77
aI171
aI316
aa(lp1131
I76
aI7
aI88
aasS'f9_2'
p1132
(lp1133
(lp1134
I9
aI9
aI499
aasS'f9_3'
p1135
(lp1136
(lp1137
I9
aI60
aI500
aasS'f9_0'
p1138
(lp1139
(lp1140
I9
aI9
aI499
aasS'f9_1'
p1141
(lp1142
(lp1143
I9
aI39
aI499
aasS'ID_238_F1_6_F2_3_G_2_SplitPt_145_GenID_0'
p1144
(lp1145
(lp1146
I78
aI15
aI66
aa(lp1147
I10
aI110
aI500
aasS'ID_219_F1_13_F2_15_G_0_SplitPt_165_GenID_0'
p1148
(lp1149
(lp1150
I12
aI114
aI492
aasS'ID_201_F1_7_F2_17_G_4_SplitPt_243_GenID_0'
p1151
(lp1152
(lp1153
I18
aI219
aI500
aa(lp1154
I6
aI1
aI290
aasS'f14_27'
p1155
(lp1156
(lp1157
I8
aI14
aI500
aasS'ID_27_F1_9_F2_3_G_1_SplitPt_71_GenID_0'
p1158
(lp1159
(lp1160
I10
aI61
aI500
aasS'f10_11'
p1161
(lp1162
(lp1163
I19
aI2
aI500
aasS'f9_29'
p1164
(lp1165
(lp1166
I9
aI1
aI500
aasS'f5_1'
p1167
(lp1168
(lp1169
I14
aI1
aI500
aasS'f10_10'
p1170
(lp1171
(lp1172
I19
aI2
aI498
aasS'f9_25'
p1173
(lp1174
(lp1175
I9
aI3
aI500
aasS'ID_63_F1_8_F2_6_G_0_SplitPt_141_GenID_0'
p1176
(lp1177
(lp1178
I5
aI125
aI497
aasS'f9_27'
p1179
(lp1180
(lp1181
I9
aI2
aI500
aasS'f9_26'
p1182
(lp1183
(lp1184
I79
aI298
aI413
aasS'f9_21'
p1185
(lp1186
(lp1187
I9
aI1
aI500
aasS'f9_20'
p1188
(lp1189
(lp1190
I9
aI1
aI500
aasS'f9_23'
p1191
(lp1192
(lp1193
I9
aI2
aI499
aasS'f9_22'
p1194
(lp1195
(lp1196
I9
aI1
aI500
aasS'f5_21'
p1197
(lp1198
(lp1199
I14
aI2
aI489
aasS'f5_20'
p1200
(lp1201
(lp1202
I14
aI2
aI479
aasS'f5_23'
p1203
(lp1204
(lp1205
I14
aI3
aI494
aasS'f5_22'
p1206
(lp1207
(lp1208
I14
aI1
aI496
aasS'f5_25'
p1209
(lp1210
(lp1211
I80
aI7
aI88
aasS'f5_24'
p1212
(lp1213
(lp1214
I80
aI1
aI88
aasS'f5_27'
p1215
(lp1216
(lp1217
I80
aI5
aI89
aasS'f5_26'
p1218
(lp1219
(lp1220
I80
aI1
aI89
aa(lp1221
I14
aI45
aI442
aasS'f5_29'
p1222
(lp1223
(lp1224
I54
aI1
aI53
aa(lp1225
I14
aI2
aI491
aasS'f5_28'
p1226
(lp1227
(lp1228
I54
aI1
aI54
aa(lp1229
I14
aI4
aI499
aasS'f10_14'
p1230
(lp1231
(lp1232
I19
aI1
aI494
aasS'f15_30'
p1233
(lp1234
(lp1235
I12
aI1
aI495
aasS'f4_28'
p1236
(lp1237
(lp1238
I28
aI24
aI494
aasS'f4_29'
p1239
(lp1240
(lp1241
I81
aI72
aI227
aasS'ID_65_F1_16_F2_17_G_0_SplitPt_185_GenID_0'
p1242
(lp1243
(lp1244
I18
aI271
aI497
aasS'f15_31'
p1245
(lp1246
(lp1247
I12
aI1
aI498
aasS'f4_22'
p1248
(lp1249
(lp1250
I28
aI1
aI498
aasS'ID_87_F1_13_F2_11_G_1_SplitPt_232_GenID_0'
p1251
(lp1252
(lp1253
I82
aI19
aI152
aa(lp1254
I11
aI218
aI498
aasS'f4_20'
p1255
(lp1256
(lp1257
I28
aI3
aI499
aasS'f4_21'
p1258
(lp1259
(lp1260
I28
aI3
aI499
aasS'f4_26'
p1261
(lp1262
(lp1263
I28
aI1
aI497
aasS'f4_27'
p1264
(lp1265
(lp1266
I28
aI1
aI497
aasS'f4_24'
p1267
(lp1268
(lp1269
I28
aI3
aI496
aasS'f4_25'
p1270
(lp1271
(lp1272
I28
aI2
aI492
aasS'f2_20'
p1273
(lp1274
(lp1275
I24
aI2
aI500
aasS'f10_18'
p1276
(lp1277
(lp1278
I19
aI1
aI499
aasS'ID_19_F1_9_F2_15_G_4_SplitPt_128_GenID_0'
p1279
(lp1280
(lp1281
I34
aI129
aI200
aasS'f0_31'
p1282
(lp1283
(lp1284
I21
aI1
aI495
aasS'f0_30'
p1285
(lp1286
(lp1287
I83
aI63
aI147
aasS'f17_30'
p1288
(lp1289
(lp1290
I18
aI8
aI245
aasS'f17_31'
p1291
(lp1292
(lp1293
I18
aI2
aI500
aasS'f8_6'
p1294
(lp1295
(lp1296
I8
aI74
aI500
aasS'f1_21'
p1297
(lp1298
(lp1299
I13
aI4
aI500
aasS'ID_43_F1_10_F2_3_G_0_SplitPt_182_GenID_0'
p1300
(lp1301
(lp1302
I10
aI265
aI488
aasS'ID_119_F1_17_F2_19_G_1_SplitPt_231_GenID_0'
p1303
(lp1304
(lp1305
I18
aI2
aI241
aa(lp1306
I3
aI228
aI496
aasS'ID_196_F1_6_F2_16_G_0_SplitPt_94_GenID_0'
p1307
(lp1308
(lp1309
I15
aI204
aI418
aasS'ID_108_F1_4_F2_2_G_3_SplitPt_50_GenID_0'
p1310
(lp1311
(lp1312
I84
aI1
aI48
aa(lp1313
I61
aI2
aI94
aa(lp1314
I24
aI50
aI500
aasS'ID_210_F1_11_F2_4_G_1_SplitPt_124_GenID_0'
p1315
(lp1316
(lp1317
I28
aI96
aI488
aa(lp1318
I11
aI2
aI197
aasS'ID_239_F1_13_F2_3_G_4_SplitPt_224_GenID_0'
p1319
(lp1320
(lp1321
I10
aI206
aI500
aa(lp1322
I26
aI1
aI256
aasS'ID_99_F1_19_F2_17_G_0_SplitPt_179_GenID_0'
p1323
(lp1324
(lp1325
I18
aI172
aI500
aasS'f19_2'
p1326
(lp1327
(lp1328
I3
aI3
aI499
aasS'f10_19'
p1329
(lp1330
(lp1331
I19
aI1
aI500
aasS'ID_175_F1_12_F2_15_G_3_SplitPt_58_GenID_0'
p1332
(lp1333
(lp1334
I85
aI1
aI61
aa(lp1335
I12
aI58
aI500
aasS'ID_68_F1_3_F2_16_G_0_SplitPt_90_GenID_0'
p1336
(lp1337
(lp1338
I15
aI90
aI500
aasS'ID_215_F1_7_F2_4_G_3_SplitPt_242_GenID_0'
p1339
(lp1340
(lp1341
I6
aI2
aI242
aa(lp1342
I28
aI243
aI499
aasS'ID_197_F1_5_F2_18_G_2_SplitPt_91_GenID_0'
p1343
(lp1344
(lp1345
I80
aI1
aI89
aa(lp1346
I23
aI74
aI500
aasS'ID_107_F1_0_F2_12_G_1_SplitPt_238_GenID_0'
p1347
(lp1348
(lp1349
I21
aI1
aI239
aa(lp1350
I7
aI242
aI488
aasS'ID_31_F1_2_F2_8_G_2_SplitPt_159_GenID_0'
p1351
(lp1352
(lp1353
I24
aI13
aI160
aa(lp1354
I8
aI140
aI499
aasS'ID_112_F1_15_F2_3_G_4_SplitPt_157_GenID_0'
p1355
(lp1356
(lp1357
I10
aI104
aI500
aa(lp1358
I12
aI1
aI157
aasS'f10_6'
p1359
(lp1360
(lp1361
I19
aI1
aI499
aasS'f5_18'
p1362
(lp1363
(lp1364
I14
aI4
aI500
aasS'ID_16_F1_2_F2_4_G_2_SplitPt_186_GenID_0'
p1365
(lp1366
(lp1367
I24
aI2
aI205
aa(lp1368
I28
aI173
aI500
aasS'f1_19'
p1369
(lp1370
(lp1371
I13
aI1
aI495
aasS'f5_19'
p1372
(lp1373
(lp1374
I14
aI1
aI500
aasS'f1_14'
p1375
(lp1376
(lp1377
I13
aI8
aI498
aasS'f1_15'
p1378
(lp1379
(lp1380
I13
aI19
aI498
aasS'f1_16'
p1381
(lp1382
(lp1383
I13
aI1
aI483
aasS'f1_17'
p1384
(lp1385
(lp1386
I13
aI1
aI485
aasS'f1_10'
p1387
(lp1388
(lp1389
I75
aI274
aI378
aasS'f1_11'
p1390
(lp1391
(lp1392
I13
aI8
aI498
aasS'f1_12'
p1393
(lp1394
(lp1395
I13
aI24
aI500
aasS'f1_13'
p1396
(lp1397
(lp1398
I13
aI22
aI500
aasS'ID_121_F1_1_F2_5_G_2_SplitPt_125_GenID_0'
p1399
(lp1400
(lp1401
I30
aI1
aI128
aa(lp1402
I14
aI118
aI500
aasS'f4_23'
p1403
(lp1404
(lp1405
I28
aI1
aI498
aasS'f4_13'
p1406
(lp1407
(lp1408
I32
aI176
aI229
aa(lp1409
I81
aI99
aI227
aasS'f10_31'
p1410
(lp1411
(lp1412
I19
aI1
aI481
aasS'ID_236_F1_11_F2_4_G_3_SplitPt_82_GenID_0'
p1413
(lp1414
(lp1415
I86
aI1
aI83
aa(lp1416
I28
aI77
aI500
aasS'ID_246_F1_15_F2_18_G_3_SplitPt_72_GenID_0'
p1417
(lp1418
(lp1419
I23
aI66
aI497
aa(lp1420
I12
aI2
aI154
aasS'ID_57_F1_19_F2_16_G_3_SplitPt_235_GenID_0'
p1421
(lp1422
(lp1423
I15
aI191
aI500
aa(lp1424
I3
aI1
aI254
aasS'f4_10'
p1425
(lp1426
(lp1427
I28
aI70
aI500
aasS'ID_122_F1_13_F2_4_G_2_SplitPt_100_GenID_0'
p1428
(lp1429
(lp1430
I26
aI1
aI88
aa(lp1431
I28
aI68
aI499
aasS'f19_8'
p1432
(lp1433
(lp1434
I67
aI1
aI78
aasS'f19_9'
p1435
(lp1436
(lp1437
I67
aI10
aI78
aasS'f3_18'
p1438
(lp1439
(lp1440
I10
aI1
aI500
aasS'f3_19'
p1441
(lp1442
(lp1443
I10
aI96
aI500
aasS'f3_12'
p1444
(lp1445
(lp1446
I10
aI108
aI500
aasS'f3_13'
p1447
(lp1448
(lp1449
I10
aI108
aI500
aasS'f3_10'
p1450
(lp1451
(lp1452
I10
aI95
aI500
aasS'f3_11'
p1453
(lp1454
(lp1455
I10
aI99
aI500
aasS'f3_16'
p1456
(lp1457
(lp1458
I10
aI1
aI499
aasS'f3_17'
p1459
(lp1460
(lp1461
I10
aI3
aI500
aasS'f3_14'
p1462
(lp1463
(lp1464
I10
aI102
aI500
aasS'f3_15'
p1465
(lp1466
(lp1467
I10
aI106
aI500
aasS'ID_180_F1_5_F2_18_G_4_SplitPt_120_GenID_0'
p1468
(lp1469
(lp1470
I23
aI88
aI500
aa(lp1471
I14
aI1
aI129
aasS'ID_211_F1_5_F2_15_G_2_SplitPt_182_GenID_0'
p1472
(lp1473
(lp1474
I14
aI1
aI190
aa(lp1475
I12
aI175
aI498
aasS'f13_27'
p1476
(lp1477
(lp1478
I36
aI231
aI396
aa(lp1479
I82
aI19
aI152
aasS'f4_11'
p1480
(lp1481
(lp1482
I28
aI45
aI500
aasS'f18_31'
p1483
(lp1484
(lp1485
I23
aI1
aI500
aasS'ID_101_F1_7_F2_5_G_3_SplitPt_113_GenID_0'
p1486
(lp1487
(lp1488
I6
aI5
aI113
aa(lp1489
I14
aI80
aI500
aasS'ID_88_F1_16_F2_0_G_4_SplitPt_123_GenID_0'
p1490
(lp1491
(lp1492
I87
aI1
aI143
aa(lp1493
I21
aI117
aI500
aasS'f12_1'
p1494
(lp1495
(lp1496
I88
aI1
aI99
aa(lp1497
I70
aI2
aI218
aa(lp1498
I7
aI110
aI500
aasS'ID_185_F1_12_F2_17_G_1_SplitPt_245_GenID_0'
p1499
(lp1500
(lp1501
I70
aI3
aI261
aa(lp1502
I18
aI224
aI500
aasS'ID_202_F1_11_F2_15_G_4_SplitPt_71_GenID_0'
p1503
(lp1504
(lp1505
I12
aI45
aI500
aa(lp1506
I11
aI1
aI81
aasS'ID_167_F1_5_F2_6_G_4_SplitPt_158_GenID_0'
p1507
(lp1508
(lp1509
I5
aI52
aI500
aa(lp1510
I14
aI1
aI165
aasS'f5_17'
p1511
(lp1512
(lp1513
I14
aI1
aI498
aasS'ID_11_F1_11_F2_2_G_3_SplitPt_244_GenID_0'
p1514
(lp1515
(lp1516
I89
aI112
aI215
aa(lp1517
I24
aI198
aI500
aasS'ID_105_F1_0_F2_9_G_4_SplitPt_67_GenID_0'
p1518
(lp1519
(lp1520
I45
aI1
aI79
aa(lp1521
I9
aI50
aI500
aasS'ID_254_F1_11_F2_5_G_0_SplitPt_189_GenID_0'
p1522
(lp1523
(lp1524
I11
aI10
aI186
aasS'f6_9'
p1525
(lp1526
(lp1527
I90
aI6
aI124
aa(lp1528
I5
aI76
aI500
aasS'f6_8'
p1529
(lp1530
(lp1531
I90
aI14
aI152
aasS'f6_5'
p1532
(lp1533
(lp1534
I27
aI3
aI127
aa(lp1535
I5
aI107
aI485
aasS'f6_4'
p1536
(lp1537
(lp1538
I27
aI1
aI202
aa(lp1539
I5
aI40
aI500
aasS'f6_7'
p1540
(lp1541
(lp1542
I27
aI4
aI126
aasS'f6_6'
p1543
(lp1544
(lp1545
I27
aI4
aI128
aasS'f6_1'
p1546
(lp1547
(lp1548
I27
aI3
aI156
aa(lp1549
I5
aI58
aI435
aasS'f6_0'
p1550
(lp1551
(lp1552
I5
aI1
aI442
aasS'f6_3'
p1553
(lp1554
(lp1555
I91
aI155
aI287
aa(lp1556
I27
aI3
aI146
aasS'f6_2'
p1557
(lp1558
(lp1559
I91
aI165
aI282
aa(lp1560
I27
aI3
aI145
aasS'f4_3'
p1561
(lp1562
(lp1563
I61
aI1
aI116
aa(lp1564
I28
aI51
aI500
aasS'f4_2'
p1565
(lp1566
(lp1567
I84
aI1
aI48
aa(lp1568
I28
aI29
aI500
aasS'f4_1'
p1569
(lp1570
(lp1571
I61
aI5
aI111
aa(lp1572
I28
aI32
aI500
aasS'f4_0'
p1573
(lp1574
(lp1575
I61
aI1
aI111
aa(lp1576
I28
aI21
aI500
aasS'f4_7'
p1577
(lp1578
(lp1579
I28
aI12
aI500
aasS'f4_6'
p1580
(lp1581
(lp1582
I28
aI16
aI500
aasS'f4_5'
p1583
(lp1584
(lp1585
I92
aI30
aI231
aa(lp1586
I28
aI51
aI500
aasS'f4_4'
p1587
(lp1588
(lp1589
I61
aI1
aI105
aa(lp1590
I28
aI31
aI500
aasS'f17_2'
p1591
(lp1592
(lp1593
I22
aI1
aI317
aa(lp1594
I18
aI179
aI500
aasS'f17_3'
p1595
(lp1596
(lp1597
I22
aI2
aI246
aa(lp1598
I18
aI18
aI500
aasS'f17_0'
p1599
(lp1600
(lp1601
I93
aI419
aI500
aa(lp1602
I22
aI1
aI312
aasS'ID_23_F1_14_F2_16_G_3_SplitPt_151_GenID_0'
p1603
(lp1604
(lp1605
I94
aI399
aI471
aa(lp1606
I58
aI1
aI153
aasS'f17_6'
p1607
(lp1608
(lp1609
I22
aI1
aI243
aa(lp1610
I18
aI144
aI500
aasS'f17_7'
p1611
(lp1612
(lp1613
I22
aI1
aI239
aa(lp1614
I18
aI180
aI500
aasS'f17_4'
p1615
(lp1616
(lp1617
I22
aI4
aI242
aa(lp1618
I18
aI180
aI496
aasS'f17_5'
p1619
(lp1620
(lp1621
I22
aI4
aI242
aa(lp1622
I18
aI52
aI500
aasS'ID_71_F1_15_F2_13_G_0_SplitPt_217_GenID_0'
p1623
(lp1624
(lp1625
I12
aI1
aI198
aasS'ID_86_F1_18_F2_13_G_4_SplitPt_89_GenID_0'
p1626
(lp1627
(lp1628
I20
aI1
aI90
aa(lp1629
I26
aI68
aI500
aasS'ID_162_F1_5_F2_16_G_4_SplitPt_207_GenID_0'
p1630
(lp1631
(lp1632
I55
aI11
aI78
aa(lp1633
I15
aI147
aI500
aasS'f7_22'
p1634
(lp1635
(lp1636
I35
aI1
aI132
aasS'f7_21'
p1637
(lp1638
(lp1639
I35
aI1
aI134
aa(lp1640
I6
aI62
aI498
aasS'f7_20'
p1641
(lp1642
(lp1643
I35
aI1
aI134
aa(lp1644
I6
aI41
aI500
aasS'f8_3'
p1645
(lp1646
(lp1647
I72
aI13
aI164
aa(lp1648
I8
aI25
aI500
aasS'f8_2'
p1649
(lp1650
(lp1651
I95
aI235
aI388
aasS'f7_25'
p1652
(lp1653
(lp1654
I37
aI3
aI242
aasS'f7_24'
p1655
(lp1656
(lp1657
I6
aI21
aI500
aasS'f4_19'
p1658
(lp1659
(lp1660
I28
aI3
aI500
aasS'f7_29'
p1661
(lp1662
(lp1663
I37
aI5
aI152
aa(lp1664
I6
aI18
aI500
aasS'f7_28'
p1665
(lp1666
(lp1667
I37
aI12
aI296
aa(lp1668
I6
aI55
aI500
aasS'f8_9'
p1669
(lp1670
(lp1671
I8
aI5
aI500
aasS'f8_8'
p1672
(lp1673
(lp1674
I8
aI3
aI499
aasS'f11_0'
p1675
(lp1676
(lp1677
I86
aI1
aI82
aasS'f11_1'
p1678
(lp1679
(lp1680
I86
aI5
aI74
aasS'f11_2'
p1681
(lp1682
(lp1683
I86
aI1
aI82
aasS'f11_3'
p1684
(lp1685
(lp1686
I86
aI5
aI82
aasS'ID_181_F1_2_F2_5_G_1_SplitPt_137_GenID_0'
p1687
(lp1688
(lp1689
I96
aI8
aI130
aa(lp1690
I14
aI138
aI498
aasS'f11_5'
p1691
(lp1692
(lp1693
I52
aI236
aI357
aasS'f11_6'
p1694
(lp1695
(lp1696
I11
aI1
aI500
aasS'f4_18'
p1697
(lp1698
(lp1699
I28
aI17
aI500
aasS'f11_8'
p1700
(lp1701
(lp1702
I51
aI6
aI258
aa(lp1703
I11
aI72
aI500
aasS'f11_9'
p1704
(lp1705
(lp1706
I51
aI8
aI238
aasS'ID_41_F1_9_F2_4_G_4_SplitPt_168_GenID_0'
p1707
(lp1708
(lp1709
I9
aI1
aI168
aa(lp1710
I28
aI158
aI500
aasS'f16_19'
p1711
(lp1712
(lp1713
I15
aI18
aI500
aasS'f2_9'
p1714
(lp1715
(lp1716
I24
aI2
aI500
aasS'f2_8'
p1717
(lp1718
(lp1719
I97
aI134
aI238
aasS'ID_80_F1_0_F2_11_G_1_SplitPt_187_GenID_0'
p1720
(lp1721
(lp1722
I98
aI136
aI254
aa(lp1723
I11
aI157
aI500
aasS'f13_5'
p1724
(lp1725
(lp1726
I26
aI1
aI500
aasS'f13_2'
p1727
(lp1728
(lp1729
I26
aI7
aI499
aasS'ID_53_F1_8_F2_3_G_3_SplitPt_106_GenID_0'
p1730
(lp1731
(lp1732
I48
aI1
aI105
aa(lp1733
I10
aI108
aI498
aasS'f13_0'
p1734
(lp1735
(lp1736
I99
aI130
aI307
aasS'f13_1'
p1737
(lp1738
(lp1739
I26
aI1
aI500
aasS'f2_1'
p1740
(lp1741
(lp1742
I96
aI8
aI130
aasS'ID_155_F1_7_F2_3_G_3_SplitPt_169_GenID_0'
p1743
(lp1744
(lp1745
I6
aI1
aI235
aa(lp1746
I10
aI168
aI500
aasS'f2_3'
p1747
(lp1748
(lp1749
I24
aI9
aI500
aasS'f7_0'
p1750
(lp1751
(lp1752
I6
aI5
aI500
aasS'f2_5'
p1753
(lp1754
(lp1755
I24
aI1
aI500
aasS'f2_4'
p1756
(lp1757
(lp1758
I24
aI22
aI483
aasS'f2_7'
p1759
(lp1760
(lp1761
I24
aI1
aI499
aasS'f13_9'
p1762
(lp1763
(lp1764
I99
aI130
aI307
aasS'f15_4'
p1765
(lp1766
(lp1767
I12
aI6
aI500
aasS'f15_5'
p1768
(lp1769
(lp1770
I12
aI1
aI499
aasS'f15_6'
p1771
(lp1772
(lp1773
I12
aI1
aI500
aasS'f15_7'
p1774
(lp1775
(lp1776
I12
aI3
aI500
aasS'f15_0'
p1777
(lp1778
(lp1779
I12
aI1
aI497
aasS'f15_1'
p1780
(lp1781
(lp1782
I12
aI2
aI500
aasS'f0_9'
p1783
(lp1784
(lp1785
I68
aI3
aI154
aa(lp1786
I21
aI38
aI500
aasS'f0_8'
p1787
(lp1788
(lp1789
I68
aI3
aI142
aa(lp1790
I21
aI16
aI500
aasS'f0_7'
p1791
(lp1792
(lp1793
I100
aI35
aI252
aa(lp1794
I17
aI1
aI145
aa(lp1795
I21
aI82
aI499
aasS'f0_6'
p1796
(lp1797
(lp1798
I17
aI1
aI171
aa(lp1799
I21
aI79
aI499
aasS'f0_5'
p1800
(lp1801
(lp1802
I98
aI136
aI260
aa(lp1803
I17
aI2
aI148
aasS'f0_4'
p1804
(lp1805
(lp1806
I17
aI1
aI145
aa(lp1807
I21
aI78
aI499
aasS'ID_82_F1_16_F2_1_G_1_SplitPt_172_GenID_0'
p1808
(lp1809
(lp1810
I87
aI1
aI185
aa(lp1811
I13
aI161
aI439
aasS'f0_2'
p1812
(lp1813
(lp1814
I17
aI1
aI141
aa(lp1815
I21
aI10
aI500
aasS'f0_1'
p1816
(lp1817
(lp1818
I17
aI3
aI141
aa(lp1819
I21
aI54
aI498
aasS'f0_0'
p1820
(lp1821
(lp1822
I17
aI1
aI148
aa(lp1823
I21
aI52
aI500
aasS'ID_67_F1_2_F2_11_G_2_SplitPt_234_GenID_0'
p1824
(lp1825
(lp1826
I24
aI1
aI242
aa(lp1827
I11
aI213
aI499
aasS'f8_26'
p1828
(lp1829
(lp1830
I8
aI1
aI499
aasS'ID_94_F1_16_F2_19_G_2_SplitPt_143_GenID_0'
p1831
(lp1832
(lp1833
I87
aI1
aI139
aa(lp1834
I3
aI125
aI500
aasS'ID_212_F1_13_F2_4_G_1_SplitPt_94_GenID_0'
p1835
(lp1836
(lp1837
I28
aI80
aI484
aasS'ID_84_F1_3_F2_13_G_2_SplitPt_90_GenID_0'
p1838
(lp1839
(lp1840
I26
aI62
aI500
aasS'ID_44_F1_7_F2_19_G_4_SplitPt_156_GenID_0'
p1841
(lp1842
(lp1843
I6
aI1
aI224
aa(lp1844
I3
aI124
aI500
aasS'f16_13'
p1845
(lp1846
(lp1847
I2
aI3
aI120
aasS'f16_12'
p1848
(lp1849
(lp1850
I2
aI13
aI133
aa(lp1851
I15
aI18
aI498
aasS'f16_11'
p1852
(lp1853
(lp1854
I101
aI47
aI273
aa(lp1855
I2
aI1
aI158
aasS'f16_10'
p1856
(lp1857
(lp1858
I2
aI16
aI158
aasS'f16_17'
p1859
(lp1860
(lp1861
I60
aI17
aI253
aa(lp1862
I15
aI26
aI498
aasS'f16_16'
p1863
(lp1864
(lp1865
I15
aI48
aI500
aasS'f16_15'
p1866
(lp1867
(lp1868
I2
aI5
aI122
aa(lp1869
I15
aI12
aI498
aasS'f16_14'
p1870
(lp1871
(lp1872
I102
aI5
aI215
aa(lp1873
I2
aI1
aI122
aa(lp1874
I15
aI25
aI493
aasS'f5_16'
p1875
(lp1876
(lp1877
I14
aI1
aI500
aasS'f16_18'
p1878
(lp1879
(lp1880
I103
aI21
aI228
aa(lp1881
I15
aI112
aI500
aasS'ID_28_F1_18_F2_3_G_3_SplitPt_113_GenID_0'
p1882
(lp1883
(lp1884
I20
aI1
aI144
aa(lp1885
I10
aI76
aI500
aasS'ID_35_F1_19_F2_7_G_4_SplitPt_190_GenID_0'
p1886
(lp1887
(lp1888
I6
aI151
aI500
aa(lp1889
I3
aI1
aI263
aasS'f8_7'
p1890
(lp1891
(lp1892
I8
aI48
aI500
aasS'ID_104_F1_17_F2_15_G_4_SplitPt_246_GenID_0'
p1893
(lp1894
(lp1895
I104
aI179
aI243
aa(lp1896
I12
aI245
aI500
aasS'f6_25'
p1897
(lp1898
(lp1899
I5
aI111
aI500
aasS'f6_26'
p1900
(lp1901
(lp1902
I5
aI1
aI500
aasS'f6_27'
p1903
(lp1904
(lp1905
I5
aI3
aI500
aasS'f6_20'
p1906
(lp1907
(lp1908
I105
aI125
aI188
aasS'f6_21'
p1909
(lp1910
(lp1911
I5
aI1
aI499
aasS'f6_22'
p1912
(lp1913
(lp1914
I5
aI46
aI500
aasS'f6_23'
p1915
(lp1916
(lp1917
I5
aI2
aI500
aasS'f6_28'
p1918
(lp1919
(lp1920
I4
aI4
aI187
aasS'f6_29'
p1921
(lp1922
(lp1923
I105
aI125
aI188
aasS'f14_11'
p1924
(lp1925
(lp1926
I8
aI18
aI500
aasS'f1_25'
p1927
(lp1928
(lp1929
I13
aI1
aI500
aasS'f6_24'
p1930
(lp1931
(lp1932
I91
aI155
aI284
aasS'f1_27'
p1933
(lp1934
(lp1935
I13
aI1
aI500
aasS'f1_26'
p1936
(lp1937
(lp1938
I13
aI1
aI498
aasS'f14_19'
p1939
(lp1940
(lp1941
I106
aI359
aI498
aa(lp1942
I107
aI2
aI124
aasS'f14_18'
p1943
(lp1944
(lp1945
I107
aI2
aI124
aa(lp1946
I8
aI21
aI500
aasS'f1_23'
p1947
(lp1948
(lp1949
I13
aI6
aI500
aasS'f1_22'
p1950
(lp1951
(lp1952
I13
aI1
aI500
aasS'f14_15'
p1953
(lp1954
(lp1955
I8
aI4
aI484
aasS'f14_14'
p1956
(lp1957
(lp1958
I108
aI256
aI350
aasS'f14_17'
p1959
(lp1960
(lp1961
I107
aI12
aI124
aasS'f14_16'
p1962
(lp1963
(lp1964
I8
aI11
aI499
aasS'f1_29'
p1965
(lp1966
(lp1967
I73
aI1
aI86
aa(lp1968
I13
aI12
aI500
aasS'f1_28'
p1969
(lp1970
(lp1971
I13
aI1
aI453
aasS'f14_13'
p1972
(lp1973
(lp1974
I69
aI416
aI500
aasS'ID_83_F1_6_F2_17_G_3_SplitPt_165_GenID_0'
p1975
(lp1976
(lp1977
I104
aI179
aI243
aa(lp1978
I5
aI1
aI165
aasS'ID_216_F1_6_F2_4_G_3_SplitPt_151_GenID_0'
p1979
(lp1980
(lp1981
I27
aI3
aI156
aa(lp1982
I28
aI150
aI500
aasS'f2_31'
p1983
(lp1984
(lp1985
I109
aI355
aI434
aa(lp1986
I110
aI7
aI259
aasS'f2_30'
p1987
(lp1988
(lp1989
I110
aI3
aI184
aa(lp1990
I24
aI5
aI500
aasS'ID_29_F1_4_F2_1_G_4_SplitPt_116_GenID_0'
p1991
(lp1992
(lp1993
I84
aI1
aI48
aa(lp1994
I13
aI53
aI500
aasS'ID_118_F1_7_F2_3_G_1_SplitPt_157_GenID_0'
p1995
(lp1996
(lp1997
I65
aI12
aI159
aa(lp1998
I10
aI162
aI500
aasS'f6_11'
p1999
(lp2000
(lp2001
I90
aI14
aI152
aa(lp2002
I5
aI51
aI499
aasS'ID_114_F1_16_F2_8_G_3_SplitPt_95_GenID_0'
p2003
(lp2004
(lp2005
I2
aI1
aI99
aa(lp2006
I8
aI68
aI500
aasS'f13_30'
p2007
(lp2008
(lp2009
I82
aI39
aI148
aasS'f13_31'
p2010
(lp2011
(lp2012
I26
aI3
aI492
aasS'f8_13'
p2013
(lp2014
(lp2015
I48
aI1
aI104
aa(lp2016
I8
aI9
aI500
aasS'f8_12'
p2017
(lp2018
(lp2019
I48
aI1
aI105
aa(lp2020
I8
aI3
aI498
aasS'f8_11'
p2021
(lp2022
(lp2023
I48
aI4
aI74
aasS'f8_10'
p2024
(lp2025
(lp2026
I48
aI1
aI73
aa(lp2027
I8
aI3
aI499
aasS'f8_17'
p2028
(lp2029
(lp2030
I8
aI1
aI498
aasS'f8_16'
p2031
(lp2032
(lp2033
I8
aI1
aI500
aasS'f8_15'
p2034
(lp2035
(lp2036
I8
aI3
aI500
aasS'f8_14'
p2037
(lp2038
(lp2039
I8
aI6
aI500
aasS'f8_19'
p2040
(lp2041
(lp2042
I95
aI235
aI348
aasS'f8_18'
p2043
(lp2044
(lp2045
I95
aI236
aI388
aasS'f2_2'
p2046
(lp2047
(lp2048
I24
aI2
aI500
aasS'ID_8_F1_10_F2_13_G_3_SplitPt_192_GenID_0'
p2049
(lp2050
(lp2051
I46
aI206
aI361
aa(lp2052
I19
aI1
aI241
aasS'ID_69_F1_13_F2_2_G_1_SplitPt_137_GenID_0'
p2053
(lp2054
(lp2055
I24
aI110
aI497
aa(lp2056
I26
aI4
aI150
aasS'ID_93_F1_6_F2_4_G_2_SplitPt_135_GenID_0'
p2057
(lp2058
(lp2059
I90
aI2
aI152
aa(lp2060
I28
aI58
aI500
aasS'ID_163_F1_14_F2_17_G_1_SplitPt_71_GenID_0'
p2061
(lp2062
(lp2063
I18
aI72
aI500
aasS'f1_24'
p2064
(lp2065
(lp2066
I13
aI1
aI499
aasS'ID_223_F1_19_F2_2_G_4_SplitPt_138_GenID_0'
p2067
(lp2068
(lp2069
I62
aI75
aI138
aasS'f18_1'
p2070
(lp2071
(lp2072
I20
aI9
aI90
aa(lp2073
I23
aI15
aI499
aasS'f18_0'
p2074
(lp2075
(lp2076
I23
aI28
aI499
aasS'f18_3'
p2077
(lp2078
(lp2079
I23
aI16
aI499
aasS'f18_2'
p2080
(lp2081
(lp2082
I23
aI16
aI481
aasS'f18_5'
p2083
(lp2084
(lp2085
I20
aI5
aI153
aa(lp2086
I23
aI27
aI500
aasS'f18_4'
p2087
(lp2088
(lp2089
I20
aI5
aI87
aa(lp2090
I23
aI16
aI500
aasS'f18_7'
p2091
(lp2092
(lp2093
I20
aI1
aI139
aa(lp2094
I23
aI16
aI500
aasS'f18_6'
p2095
(lp2096
(lp2097
I20
aI5
aI141
aa(lp2098
I23
aI42
aI500
aasS'f18_9'
p2099
(lp2100
(lp2101
I66
aI2
aI128
aa(lp2102
I23
aI16
aI500
aasS'f18_8'
p2103
(lp2104
(lp2105
I66
aI3
aI128
aa(lp2106
I23
aI46
aI499
aasS'f1_20'
p2107
(lp2108
(lp2109
I13
aI12
aI500
aasS'ID_70_F1_9_F2_7_G_3_SplitPt_202_GenID_0'
p2110
(lp2111
(lp2112
I6
aI200
aI500
aa(lp2113
I9
aI1
aI223
aasS'ID_117_F1_7_F2_15_G_4_SplitPt_172_GenID_0'
p2114
(lp2115
(lp2116
I6
aI1
aI202
aa(lp2117
I12
aI156
aI500
aasS'ID_18_F1_0_F2_1_G_2_SplitPt_195_GenID_0'
p2118
(lp2119
(lp2120
I21
aI3
aI226
aa(lp2121
I13
aI202
aI497
aasS'ID_9_F1_11_F2_11_G_4_SplitPt_128_GenID_0'
p2122
(lp2123
(lp2124
I11
aI2
aI498
aasS'f9_30'
p2125
(lp2126
(lp2127
I9
aI3
aI499
aasS'f9_31'
p2128
(lp2129
(lp2130
I9
aI3
aI498
aasS'f5_30'
p2131
(lp2132
(lp2133
I54
aI1
aI53
aa(lp2134
I14
aI2
aI490
aasS'f5_31'
p2135
(lp2136
(lp2137
I54
aI3
aI53
aasS'ID_42_F1_2_F2_10_G_2_SplitPt_144_GenID_0'
p2138
(lp2139
(lp2140
I24
aI2
aI194
aa(lp2141
I19
aI116
aI500
aasS'ID_95_F1_9_F2_13_G_3_SplitPt_91_GenID_0'
p2142
(lp2143
(lp2144
I76
aI1
aI113
aa(lp2145
I26
aI67
aI500
aasS'ID_54_F1_10_F2_6_G_2_SplitPt_128_GenID_0'
p2146
(lp2147
(lp2148
I111
aI371
aI500
aa(lp2149
I19
aI1
aI149
aasS'f7_27'
p2150
(lp2151
(lp2152
I6
aI1
aI497
aasS'ID_98_F1_2_F2_8_G_3_SplitPt_184_GenID_0'
p2153
(lp2154
(lp2155
I110
aI1
aI236
aa(lp2156
I8
aI185
aI499
aasS'f16_28'
p2157
(lp2158
(lp2159
I94
aI399
aI471
aa(lp2160
I87
aI1
aI182
aasS'f16_29'
p2161
(lp2162
(lp2163
I87
aI1
aI171
aa(lp2164
I15
aI71
aI500
aasS'f14_9'
p2165
(lp2166
(lp2167
I8
aI41
aI500
aasS'f14_8'
p2168
(lp2169
(lp2170
I8
aI2
aI500
aasS'ID_3_F1_3_F2_3_G_2_SplitPt_120_GenID_0'
p2171
(lp2172
(lp2173
I10
aI27
aI494
aasS'f16_22'
p2174
(lp2175
(lp2176
I112
aI50
aI287
aa(lp2177
I87
aI2
aI136
aa(lp2178
I15
aI53
aI500
aasS'f16_23'
p2179
(lp2180
(lp2181
I113
aI182
aI273
aa(lp2182
I87
aI2
aI145
aasS'f16_20'
p2183
(lp2184
(lp2185
I87
aI1
aI122
aa(lp2186
I15
aI18
aI500
aasS'f16_21'
p2187
(lp2188
(lp2189
I87
aI1
aI123
aa(lp2190
I15
aI51
aI500
aasS'f16_26'
p2191
(lp2192
(lp2193
I114
aI114
aI259
aa(lp2194
I87
aI1
aI167
aasS'f16_27'
p2195
(lp2196
(lp2197
I87
aI11
aI175
aa(lp2198
I15
aI26
aI499
aasS'f16_24'
p2199
(lp2200
(lp2201
I60
aI17
aI253
aa(lp2202
I15
aI18
aI500
aasS'f16_25'
p2203
(lp2204
(lp2205
I103
aI21
aI226
aa(lp2206
I15
aI72
aI498
aasS'ID_10_F1_8_F2_18_G_4_SplitPt_175_GenID_0'
p2207
(lp2208
(lp2209
I115
aI118
aI198
aa(lp2210
I23
aI122
aI500
aasS'f16_2'
p2211
(lp2212
(lp2213
I113
aI182
aI270
aasS'f16_1'
p2214
(lp2215
(lp2216
I101
aI24
aI273
aa(lp2217
I15
aI45
aI499
aasS'f16_0'
p2218
(lp2219
(lp2220
I114
aI114
aI259
aasS'f16_7'
p2221
(lp2222
(lp2223
I116
aI1
aI108
aa(lp2224
I15
aI16
aI500
aasS'f16_6'
p2225
(lp2226
(lp2227
I116
aI3
aI81
aa(lp2228
I102
aI12
aI231
aasS'f16_5'
p2229
(lp2230
(lp2231
I116
aI3
aI80
aa(lp2232
I15
aI108
aI500
aasS'f16_4'
p2233
(lp2234
(lp2235
I116
aI3
aI80
aa(lp2236
I15
aI9
aI500
aasS'f0_26'
p2237
(lp2238
(lp2239
I117
aI262
aI379
aasS'f0_27'
p2240
(lp2241
(lp2242
I21
aI59
aI500
aasS'f16_9'
p2243
(lp2244
(lp2245
I2
aI1
aI160
aa(lp2246
I15
aI3
aI491
aasS'f16_8'
p2247
(lp2248
(lp2249
I2
aI1
aI160
aa(lp2250
I15
aI16
aI495
aasS'f0_22'
p2251
(lp2252
(lp2253
I45
aI1
aI67
aasS'f0_23'
p2254
(lp2255
(lp2256
I45
aI4
aI68
aasS'f0_20'
p2257
(lp2258
(lp2259
I45
aI1
aI76
aasS'f0_21'
p2260
(lp2261
(lp2262
I45
aI1
aI78
aasS'f17_21'
p2263
(lp2264
(lp2265
I18
aI2
aI500
aasS'f17_20'
p2266
(lp2267
(lp2268
I18
aI15
aI497
aasS'f17_23'
p2269
(lp2270
(lp2271
I18
aI72
aI494
aasS'f17_22'
p2272
(lp2273
(lp2274
I118
aI323
aI474
aa(lp2275
I18
aI1
aI390
aasS'f17_25'
p2276
(lp2277
(lp2278
I18
aI4
aI500
aasS'f17_24'
p2279
(lp2280
(lp2281
I118
aI321
aI474
aasS'f0_14'
p2282
(lp2283
(lp2284
I100
aI35
aI252
aa(lp2285
I17
aI1
aI149
aa(lp2286
I21
aI36
aI497
aasS'f17_26'
p2287
(lp2288
(lp2289
I18
aI1
aI490
aasS'f17_29'
p2290
(lp2291
(lp2292
I18
aI274
aI499
aa(lp2293
I18
aI6
aI245
aasS'f17_28'
p2294
(lp2295
(lp2296
I18
aI6
aI499
aasS'f2_6'
p2297
(lp2298
(lp2299
I24
aI1
aI500
aasS'ID_113_F1_4_F2_8_G_4_SplitPt_242_GenID_0'
p2300
(lp2301
(lp2302
I28
aI1
aI252
aa(lp2303
I8
aI230
aI500
aasS'ID_249_F1_12_F2_19_G_2_SplitPt_142_GenID_0'
p2304
(lp2305
(lp2306
I7
aI1
aI134
aa(lp2307
I3
aI115
aI500
aasS'f14_10'
p2308
(lp2309
(lp2310
I8
aI1
aI499
aasS'ID_199_F1_15_F2_8_G_3_SplitPt_227_GenID_0'
p2311
(lp2312
(lp2313
I12
aI1
aI282
aa(lp2314
I8
aI224
aI500
aasS'ID_78_F1_1_F2_8_G_3_SplitPt_51_GenID_0'
p2315
(lp2316
(lp2317
I8
aI50
aI500
aasS'ID_151_F1_9_F2_0_G_1_SplitPt_133_GenID_0'
p2318
(lp2319
(lp2320
I21
aI139
aI498
aasS'f1_18'
p2321
(lp2322
(lp2323
I13
aI1
aI500
aasS'ID_24_F1_13_F2_9_G_4_SplitPt_239_GenID_0'
p2324
(lp2325
(lp2326
I9
aI196
aI500
aa(lp2327
I26
aI1
aI263
aasS'f10_9'
p2328
(lp2329
(lp2330
I19
aI2
aI500
aasS'f10_8'
p2331
(lp2332
(lp2333
I19
aI1
aI499
aasS'ID_244_F1_18_F2_16_G_0_SplitPt_230_GenID_0'
p2334
(lp2335
(lp2336
I15
aI285
aI498
aasS'ID_126_F1_4_F2_4_G_0_SplitPt_197_GenID_0'
p2337
(lp2338
(lp2339
I92
aI28
aI231
aa(lp2340
I28
aI49
aI498
aasS'f10_1'
p2341
(lp2342
(lp2343
I19
aI6
aI241
aasS'f10_0'
p2344
(lp2345
(lp2346
I19
aI3
aI494
aasS'f10_3'
p2347
(lp2348
(lp2349
I19
aI43
aI500
aasS'f10_2'
p2350
(lp2351
(lp2352
I19
aI1
aI496
aasS'f10_5'
p2353
(lp2354
(lp2355
I19
aI1
aI498
aasS'f10_4'
p2356
(lp2357
(lp2358
I19
aI2
aI498
aasS'f10_7'
p2359
(lp2360
(lp2361
I19
aI1
aI497
aasS'f14_12'
p2362
(lp2363
(lp2364
I44
aI110
aI191
aasS'f4_17'
p2365
(lp2366
(lp2367
I28
aI1
aI500
aasS'f4_16'
p2368
(lp2369
(lp2370
I28
aI6
aI500
aasS'f4_15'
p2371
(lp2372
(lp2373
I28
aI33
aI500
aasS'f4_14'
p2374
(lp2375
(lp2376
I28
aI38
aI500
aasS'ID_40_F1_7_F2_15_G_1_SplitPt_234_GenID_0'
p2377
(lp2378
(lp2379
I37
aI1
aI242
aa(lp2380
I12
aI209
aI500
aasS'f4_12'
p2381
(lp2382
(lp2383
I32
aI176
aI229
aa(lp2384
I81
aI72
aI220
aasS'f12_9'
p2385
(lp2386
(lp2387
I64
aI3
aI160
aa(lp2388
I7
aI81
aI484
aasS'f12_8'
p2389
(lp2390
(lp2391
I64
aI3
aI160
aa(lp2392
I7
aI106
aI381
aasS'f12_7'
p2393
(lp2394
(lp2395
I70
aI2
aI253
aasS'f12_6'
p2396
(lp2397
(lp2398
I70
aI4
aI162
aasS'f12_5'
p2399
(lp2400
(lp2401
I70
aI5
aI225
aa(lp2402
I7
aI55
aI500
aasS'f12_4'
p2403
(lp2404
(lp2405
I70
aI4
aI165
aasS'f12_3'
p2406
(lp2407
(lp2408
I85
aI1
aI60
aa(lp2409
I119
aI391
aI500
aa(lp2410
I70
aI2
aI234
aasS'f12_2'
p2411
(lp2412
(lp2413
I85
aI1
aI61
aa(lp2414
I119
aI376
aI499
aa(lp2415
I70
aI54
aI263
aasS'ID_245_F1_19_F2_7_G_4_SplitPt_78_GenID_0'
p2416
(lp2417
(lp2418
I67
aI1
aI78
aa(lp2419
I6
aI66
aI500
aasS'f12_0'
p2420
(lp2421
(lp2422
I7
aI55
aI500
aasS'f3_27'
p2423
(lp2424
(lp2425
I10
aI4
aI500
aasS'f3_26'
p2426
(lp2427
(lp2428
I10
aI72
aI494
aasS'f3_25'
p2429
(lp2430
(lp2431
I10
aI1
aI499
aasS'f3_24'
p2432
(lp2433
(lp2434
I10
aI5
aI500
aasS'f3_23'
p2435
(lp2436
(lp2437
I10
aI63
aI500
aasS'f3_22'
p2438
(lp2439
(lp2440
I43
aI51
aI289
aa(lp2441
I71
aI3
aI112
aa(lp2442
I10
aI54
aI498
aasS'f3_21'
p2443
(lp2444
(lp2445
I71
aI3
aI115
aa(lp2446
I10
aI60
aI499
aasS'f3_20'
p2447
(lp2448
(lp2449
I71
aI3
aI114
aa(lp2450
I10
aI60
aI498
aasS'ID_192_F1_5_F2_13_G_4_SplitPt_53_GenID_0'
p2451
(lp2452
(lp2453
I56
aI1
aI53
aa(lp2454
I26
aI39
aI500
aasS'f3_29'
p2455
(lp2456
(lp2457
I10
aI1
aI500
aasS'f3_28'
p2458
(lp2459
(lp2460
I10
aI5
aI500
aasS'f8_20'
p2461
(lp2462
(lp2463
I8
aI8
aI486
aasS'ID_186_F1_1_F2_14_G_0_SplitPt_201_GenID_0'
p2464
(lp2465
(lp2466
I108
aI254
aI350
aasS'f6_19'
p2467
(lp2468
(lp2469
I5
aI3
aI500
aasS'f6_18'
p2470
(lp2471
(lp2472
I78
aI15
aI66
aasS'f6_15'
p2473
(lp2474
(lp2475
I5
aI2
aI500
aasS'f6_14'
p2476
(lp2477
(lp2478
I5
aI1
aI500
aasS'f6_17'
p2479
(lp2480
(lp2481
I5
aI2
aI500
aasS'f6_16'
p2482
(lp2483
(lp2484
I111
aI371
aI500
aa(lp2485
I5
aI1
aI423
aasS'ID_143_F1_16_F2_5_G_2_SplitPt_233_GenID_0'
p2486
(lp2487
(lp2488
I102
aI1
aI243
aa(lp2489
I14
aI216
aI500
aasS'f6_10'
p2490
(lp2491
(lp2492
I90
aI2
aI129
aa(lp2493
I5
aI51
aI500
aasS'f6_13'
p2494
(lp2495
(lp2496
I59
aI2
aI164
aa(lp2497
I5
aI54
aI500
aasS'f6_12'
p2498
(lp2499
(lp2500
I59
aI13
aI177
aasS'ID_170_F1_1_F2_9_G_3_SplitPt_125_GenID_0'
p2501
(lp2502
(lp2503
I9
aI93
aI499
aa(lp2504
I13
aI1
aI183
aasS'ID_48_F1_8_F2_14_G_2_SplitPt_187_GenID_0'
p2505
(lp2506
(lp2507
I8
aI1
aI500
aasS'ID_198_F1_15_F2_13_G_3_SplitPt_223_GenID_0'
p2508
(lp2509
(lp2510
I26
aI186
aI495
aa(lp2511
I12
aI2
aI251
aasS'f10_30'
p2512
(lp2513
(lp2514
I19
aI1
aI490
aasS'f19_23'
p2515
(lp2516
(lp2517
I3
aI4
aI500
aasS'ID_235_F1_18_F2_9_G_3_SplitPt_99_GenID_0'
p2518
(lp2519
(lp2520
I77
aI158
aI318
aa(lp2521
I16
aI1
aI99
aasS'ID_193_F1_9_F2_13_G_2_SplitPt_222_GenID_0'
p2522
(lp2523
(lp2524
I9
aI1
aI228
aa(lp2525
I26
aI205
aI500
aasS'ID_136_F1_13_F2_5_G_0_SplitPt_235_GenID_0'
p2526
(lp2527
(lp2528
I26
aI2
aI230
aasS'f7_30'
p2529
(lp2530
(lp2531
I6
aI13
aI500
aasS'f7_31'
p2532
(lp2533
(lp2534
I37
aI1
aI236
aa(lp2535
I6
aI55
aI500
aasS'f12_17'
p2536
(lp2537
(lp2538
I7
aI1
aI99
aa(lp2539
I7
aI116
aI500
aasS'f12_16'
p2540
(lp2541
(lp2542
I7
aI5
aI500
aasS'f12_15'
p2543
(lp2544
(lp2545
I7
aI89
aI431
aasS'f12_14'
p2546
(lp2547
(lp2548
I7
aI1
aI421
aasS'f12_13'
p2549
(lp2550
(lp2551
I7
aI90
aI499
aasS'f12_12'
p2552
(lp2553
(lp2554
I7
aI1
aI499
aasS'f12_11'
p2555
(lp2556
(lp2557
I64
aI1
aI155
aa(lp2558
I7
aI37
aI493
aasS'f12_10'
p2559
(lp2560
(lp2561
I64
aI1
aI169
aa(lp2562
I7
aI4
aI493
aasS'ID_109_F1_13_F2_4_G_3_SplitPt_237_GenID_0'
p2563
(lp2564
(lp2565
I26
aI4
aI251
aa(lp2566
I28
aI220
aI499
aasS'f12_19'
p2567
(lp2568
(lp2569
I50
aI1
aI68
aa(lp2570
I119
aI376
aI490
aasS'f12_18'
p2571
(lp2572
(lp2573
I50
aI6
aI68
aasS'ID_149_F1_1_F2_3_G_0_SplitPt_249_GenID_0'
p2574
(lp2575
(lp2576
I10
aI270
aI499
aasS'ID_158_F1_10_F2_2_G_0_SplitPt_211_GenID_0'
p2577
(lp2578
(lp2579
I19
aI65
aI181
aasS'ID_66_F1_12_F2_2_G_2_SplitPt_236_GenID_0'
p2580
(lp2581
(lp2582
I7
aI1
aI243
aa(lp2583
I24
aI233
aI500
aasS'f4_9'
p2584
(lp2585
(lp2586
I28
aI32
aI496
aasS'f11_30'
p2587
(lp2588
(lp2589
I11
aI1
aI500
aasS'ID_25_F1_1_F2_8_G_2_SplitPt_218_GenID_0'
p2590
(lp2591
(lp2592
I13
aI1
aI263
aa(lp2593
I8
aI176
aI498
aasS'ID_188_F1_9_F2_19_G_0_SplitPt_106_GenID_0'
p2594
(lp2595
(lp2596
I3
aI132
aI498
aasS'ID_97_F1_14_F2_8_G_3_SplitPt_117_GenID_0'
p2597
(lp2598
(lp2599
I115
aI118
aI202
aa(lp2600
I107
aI2
aI123
aasS'ID_195_F1_17_F2_3_G_2_SplitPt_239_GenID_0'
p2601
(lp2602
(lp2603
I22
aI1
aI270
aa(lp2604
I10
aI241
aI500
aasS'ID_138_F1_11_F2_9_G_3_SplitPt_240_GenID_0'
p2605
(lp2606
(lp2607
I51
aI1
aI258
aa(lp2608
I9
aI212
aI500
aasS'ID_133_F1_13_F2_18_G_4_SplitPt_72_GenID_0'
p2609
(lp2610
(lp2611
I23
aI50
aI500
aa(lp2612
I26
aI1
aI107
aasS'ID_60_F1_12_F2_9_G_1_SplitPt_221_GenID_0'
p2613
(lp2614
(lp2615
I79
aI298
aI415
aa(lp2616
I7
aI2
aI224
aasS'f4_8'
p2617
(lp2618
(lp2619
I28
aI29
aI500
aasS'ID_96_F1_10_F2_2_G_3_SplitPt_207_GenID_0'
p2620
(lp2621
(lp2622
I24
aI209
aI500
aa(lp2623
I19
aI1
aI225
aasS'ID_184_F1_8_F2_15_G_0_SplitPt_73_GenID_0'
p2624
(lp2625
(lp2626
I12
aI164
aI500
aasS'ID_75_F1_10_F2_16_G_2_SplitPt_125_GenID_0'
p2627
(lp2628
(lp2629
I19
aI2
aI128
aa(lp2630
I15
aI111
aI500
aasS'ID_137_F1_18_F2_0_G_2_SplitPt_115_GenID_0'
p2631
(lp2632
(lp2633
I16
aI1
aI132
aa(lp2634
I21
aI116
aI499
aasS'f0_18'
p2635
(lp2636
(lp2637
I83
aI63
aI147
aasS'f18_19'
p2638
(lp2639
(lp2640
I23
aI3
aI499
aasS'f18_18'
p2641
(lp2642
(lp2643
I23
aI4
aI500
aasS'f18_11'
p2644
(lp2645
(lp2646
I66
aI1
aI128
aa(lp2647
I23
aI78
aI494
aasS'f18_10'
p2648
(lp2649
(lp2650
I66
aI1
aI128
aa(lp2651
I23
aI17
aI499
aasS'f18_13'
p2652
(lp2653
(lp2654
I20
aI5
aI153
aa(lp2655
I23
aI16
aI500
aasS'f18_12'
p2656
(lp2657
(lp2658
I20
aI1
aI139
aa(lp2659
I23
aI16
aI498
aasS'f18_15'
p2660
(lp2661
(lp2662
I20
aI1
aI164
aa(lp2663
I23
aI15
aI500
aasS'f18_14'
p2664
(lp2665
(lp2666
I20
aI2
aI136
aa(lp2667
I23
aI27
aI500
aasS'f18_17'
p2668
(lp2669
(lp2670
I16
aI1
aI199
aa(lp2671
I23
aI52
aI496
aasS'f18_16'
p2672
(lp2673
(lp2674
I23
aI45
aI494
aasS'ID_141_F1_0_F2_8_G_4_SplitPt_145_GenID_0'
p2675
(lp2676
(lp2677
I17
aI1
aI162
aa(lp2678
I8
aI125
aI500
aasS'ID_64_F1_1_F2_11_G_2_SplitPt_94_GenID_0'
p2679
(lp2680
(lp2681
I89
aI112
aI218
aa(lp2682
I73
aI2
aI93
aasS'f12_27'
p2683
(lp2684
(lp2685
I7
aI2
aI493
aasS'ID_33_F1_6_F2_16_G_1_SplitPt_244_GenID_0'
p2686
(lp2687
(lp2688
I5
aI5
aI253
aa(lp2689
I15
aI209
aI499
aasS'ID_221_F1_5_F2_11_G_2_SplitPt_82_GenID_0'
p2690
(lp2691
(lp2692
I120
aI93
aI204
aa(lp2693
I55
aI1
aI118
aasS'f12_24'
p2694
(lp2695
(lp2696
I7
aI33
aI497
aasS'f14_28'
p2697
(lp2698
(lp2699
I38
aI315
aI412
aa(lp2700
I39
aI2
aI231
aasS'f14_29'
p2701
(lp2702
(lp2703
I39
aI1
aI203
aa(lp2704
I8
aI57
aI500
aasS'f12_25'
p2705
(lp2706
(lp2707
I7
aI2
aI490
aasS'f1_30'
p2708
(lp2709
(lp2710
I73
aI1
aI93
aasS'f1_31'
p2711
(lp2712
(lp2713
I73
aI1
aI69
aasS'f14_20'
p2714
(lp2715
(lp2716
I44
aI106
aI203
aasS'f14_21'
p2717
(lp2718
(lp2719
I58
aI2
aI209
aa(lp2720
I8
aI11
aI500
aasS'f14_22'
p2721
(lp2722
(lp2723
I58
aI1
aI153
aa(lp2724
I8
aI48
aI500
aasS'f14_23'
p2725
(lp2726
(lp2727
I58
aI1
aI153
aa(lp2728
I8
aI54
aI500
aasS'f14_24'
p2729
(lp2730
(lp2731
I39
aI2
aI196
aa(lp2732
I8
aI62
aI500
aasS'f14_25'
p2733
(lp2734
(lp2735
I106
aI359
aI498
aasS'ID_255_F1_11_F2_0_G_1_SplitPt_128_GenID_0'
p2736
(lp2737
(lp2738
I31
aI54
aI118
aa(lp2739
I21
aI136
aI347
aasS'f12_23'
p2740
(lp2741
(lp2742
I7
aI1
aI500
aasS'f2_28'
p2743
(lp2744
(lp2745
I97
aI134
aI238
aa(lp2746
I110
aI1
aI184
aasS'f2_29'
p2747
(lp2748
(lp2749
I110
aI1
aI197
aa(lp2750
I24
aI90
aI500
aasS'f10_13'
p2751
(lp2752
(lp2753
I19
aI2
aI498
aasS'f10_12'
p2754
(lp2755
(lp2756
I19
aI27
aI499
aasS'f10_15'
p2757
(lp2758
(lp2759
I19
aI4
aI495
aasS'f12_20'
p2760
(lp2761
(lp2762
I121
aI346
aI488
aasS'f10_17'
p2763
(lp2764
(lp2765
I19
aI1
aI500
aasS'f10_16'
p2766
(lp2767
(lp2768
I19
aI1
aI496
aasS'ID_227_F1_6_F2_17_G_1_SplitPt_156_GenID_0'
p2769
(lp2770
(lp2771
I18
aI145
aI499
aasS'f2_21'
p2772
(lp2773
(lp2774
I110
aI27
aI259
aa(lp2775
I24
aI39
aI489
aasS'f2_22'
p2776
(lp2777
(lp2778
I24
aI2
aI500
aasS'f2_23'
p2779
(lp2780
(lp2781
I109
aI355
aI434
aasS'f2_24'
p2782
(lp2783
(lp2784
I24
aI1
aI500
aasS'f2_25'
p2785
(lp2786
(lp2787
I24
aI5
aI500
aasS'f2_26'
p2788
(lp2789
(lp2790
I24
aI3
aI500
aasS'f2_27'
p2791
(lp2792
(lp2793
I24
aI1
aI499
aasS'f11_19'
p2794
(lp2795
(lp2796
I11
aI1
aI498
aasS'f13_25'
p2797
(lp2798
(lp2799
I26
aI1
aI500
aasS'f13_24'
p2800
(lp2801
(lp2802
I26
aI1
aI500
aasS'ID_116_F1_11_F2_4_G_3_SplitPt_236_GenID_0'
p2803
(lp2804
(lp2805
I120
aI93
aI204
aa(lp2806
I86
aI1
aI83
aa(lp2807
I28
aI181
aI498
aasS'f13_26'
p2808
(lp2809
(lp2810
I122
aI4
aI131
aasS'f13_21'
p2811
(lp2812
(lp2813
I122
aI4
aI131
aasS'f13_20'
p2814
(lp2815
(lp2816
I26
aI1
aI490
aasS'f13_23'
p2817
(lp2818
(lp2819
I26
aI13
aI484
aasS'f13_22'
p2820
(lp2821
(lp2822
I26
aI2
aI446
aasS'f13_29'
p2823
(lp2824
(lp2825
I26
aI5
aI500
aasS'f13_28'
p2826
(lp2827
(lp2828
I26
aI26
aI500
aasS'ID_146_F1_19_F2_1_G_0_SplitPt_210_GenID_0'
p2829
(lp2830
(lp2831
I3
aI11
aI215
aa(lp2832
I13
aI206
aI427
aasS'ID_214_F1_11_F2_3_G_3_SplitPt_139_GenID_0'
p2833
(lp2834
(lp2835
I10
aI98
aI500
aa(lp2836
I11
aI1
aI140
aasS'ID_26_F1_14_F2_1_G_1_SplitPt_210_GenID_0'
p2837
(lp2838
(lp2839
I13
aI230
aI500
aa(lp2840
I8
aI3
aI217
aasS'ID_131_F1_19_F2_16_G_1_SplitPt_194_GenID_0'
p2841
(lp2842
(lp2843
I15
aI187
aI470
aa(lp2844
I3
aI1
aI262
aasS'ID_242_F1_7_F2_9_G_1_SplitPt_237_GenID_0'
p2845
(lp2846
(lp2847
I37
aI3
aI290
aa(lp2848
I9
aI239
aI498
aasS'ID_154_F1_7_F2_7_G_3_SplitPt_133_GenID_0'
p2849
(lp2850
(lp2851
I37
aI3
aI208
aa(lp2852
I6
aI44
aI500
aasS'ID_89_F1_3_F2_15_G_1_SplitPt_186_GenID_0'
p2853
(lp2854
(lp2855
I42
aI5
aI186
aa(lp2856
I12
aI183
aI500
aasS'ID_148_F1_2_F2_1_G_2_SplitPt_169_GenID_0'
p2857
(lp2858
(lp2859
I110
aI1
aI181
aa(lp2860
I13
aI131
aI500
aasS'f14_7'
p2861
(lp2862
(lp2863
I8
aI4
aI486
aasS'ID_194_F1_15_F2_1_G_0_SplitPt_174_GenID_0'
p2864
(lp2865
(lp2866
I13
aI179
aI499
aa(lp2867
I12
aI1
aI188
aasS'f18_30'
p2868
(lp2869
(lp2870
I23
aI50
aI500
aasS'ID_129_F1_14_F2_1_G_2_SplitPt_177_GenID_0'
p2871
(lp2872
(lp2873
I13
aI174
aI500
aa(lp2874
I8
aI2
aI182
aasS'ID_92_F1_12_F2_18_G_2_SplitPt_122_GenID_0'
p2875
(lp2876
(lp2877
I70
aI2
aI155
aa(lp2878
I23
aI123
aI500
aasS'ID_187_F1_6_F2_13_G_4_SplitPt_127_GenID_0'
p2879
(lp2880
(lp2881
I27
aI1
aI139
aa(lp2882
I26
aI60
aI500
aasS'ID_81_F1_16_F2_4_G_4_SplitPt_82_GenID_0'
p2883
(lp2884
(lp2885
I116
aI1
aI119
aa(lp2886
I28
aI51
aI500
aasS'f16_31'
p2887
(lp2888
(lp2889
I15
aI7
aI498
aasS'f16_30'
p2890
(lp2891
(lp2892
I112
aI50
aI287
aa(lp2893
I87
aI1
aI171
aasS'ID_140_F1_19_F2_8_G_0_SplitPt_160_GenID_0'
p2894
(lp2895
(lp2896
I41
aI97
aI150
aa(lp2897
I74
aI159
aI315
aasS'f19_10'
p2898
(lp2899
(lp2900
I67
aI2
aI77
aasS'ID_152_F1_8_F2_0_G_1_SplitPt_186_GenID_0'
p2901
(lp2902
(lp2903
I21
aI206
aI500
aa(lp2904
I8
aI60
aI277
aasS'f0_19'
p2905
(lp2906
(lp2907
I21
aI2
aI500
aasS'f19_11'
p2908
(lp2909
(lp2910
I67
aI2
aI77
aasS'ID_139_F1_17_F2_11_G_1_SplitPt_86_GenID_0'
p2911
(lp2912
(lp2913
I11
aI84
aI500
aasS'f12_28'
p2914
(lp2915
(lp2916
I7
aI6
aI500
aasS'f12_29'
p2917
(lp2918
(lp2919
I121
aI346
aI490
aasS'f0_13'
p2920
(lp2921
(lp2922
I17
aI1
aI148
aa(lp2923
I21
aI82
aI500
aasS'f0_12'
p2924
(lp2925
(lp2926
I17
aI1
aI154
aa(lp2927
I21
aI12
aI500
aasS'f0_11'
p2928
(lp2929
(lp2930
I68
aI16
aI154
aa(lp2931
I21
aI54
aI494
aasS'f0_10'
p2932
(lp2933
(lp2934
I117
aI264
aI379
aasS'f0_17'
p2935
(lp2936
(lp2937
I21
aI2
aI493
aasS'f0_16'
p2938
(lp2939
(lp2940
I21
aI1
aI500
aasS'f0_15'
p2941
(lp2942
(lp2943
I17
aI1
aI176
aa(lp2944
I21
aI54
aI498
aasS'f12_21'
p2945
(lp2946
(lp2947
I121
aI380
aI486
aasS'f17_18'
p2948
(lp2949
(lp2950
I18
aI3
aI388
aasS'f17_19'
p2951
(lp2952
(lp2953
I63
aI53
aI155
aa(lp2954
I18
aI89
aI497
aasS'ID_228_F1_1_F2_12_G_4_SplitPt_79_GenID_0'
p2955
(lp2956
(lp2957
I121
aI346
aI490
aa(lp2958
I73
aI1
aI79
aasS'f17_14'
p2959
(lp2960
(lp2961
I22
aI13
aI317
aa(lp2962
I18
aI76
aI500
aasS'f17_15'
p2963
(lp2964
(lp2965
I18
aI1
aI500
aasS'f17_16'
p2966
(lp2967
(lp2968
I18
aI16
aI500
aasS'f17_17'
p2969
(lp2970
(lp2971
I18
aI72
aI500
aasS'f17_10'
p2972
(lp2973
(lp2974
I22
aI1
aI243
aa(lp2975
I18
aI173
aI500
aasS'f17_11'
p2976
(lp2977
(lp2978
I22
aI1
aI260
aa(lp2979
I18
aI18
aI500
aasS'f17_12'
p2980
(lp2981
(lp2982
I18
aI101
aI500
aasS'f17_13'
p2983
(lp2984
(lp2985
I93
aI424
aI496
aasS'ID_233_F1_3_F2_12_G_0_SplitPt_238_GenID_0'
p2986
(lp2987
(lp2988
I119
aI388
aI500
aa(lp2989
I7
aI239
aI469
aasS'f5_0'
p2990
(lp2991
(lp2992
I14
aI1
aI499
aas.