(dp1
S'f19_19'
p2
(lp3
(lp4
I1
aI1
aI498
aasS'f9_15'
p5
(lp6
(lp7
I2
aI17
aI496
aasS'f15_29'
p8
(lp9
(lp10
I3
aI5
aI230
aasS'f15_28'
p11
(lp12
(lp13
I3
aI1
aI439
aasS'f15_27'
p14
(lp15
(lp16
I4
aI93
aI181
aasS'f15_26'
p17
(lp18
(lp19
I3
aI1
aI438
aasS'f15_25'
p20
(lp21
(lp22
I3
aI1
aI496
aasS'f15_24'
p23
(lp24
(lp25
I3
aI1
aI494
aasS'f15_23'
p26
(lp27
(lp28
I4
aI93
aI181
aasS'f15_22'
p29
(lp30
(lp31
I3
aI3
aI457
aasS'f15_21'
p32
(lp33
(lp34
I3
aI16
aI389
aasS'f15_20'
p35
(lp36
(lp37
I3
aI16
aI500
aasS'f0_3'
p38
(lp39
(lp40
I5
aI2
aI491
aasS'ID_20_F1_4_F2_12_G_4_SplitPt_150_GenID_0'
p41
(lp42
(lp43
I6
aI124
aI500
aa(lp44
I7
aI1
aI192
aasS'f3_30'
p45
(lp46
(lp47
I8
aI5
aI496
aasS'f3_31'
p48
(lp49
(lp50
I9
aI385
aI499
aasS'ID_60_F1_0_F2_13_G_0_SplitPt_221_GenID_0'
p51
(lp52
(lp53
I10
aI219
aI498
aasS'f19_29'
p54
(lp55
(lp56
I1
aI2
aI482
aasS'f0_2'
p57
(lp58
(lp59
I5
aI1
aI492
aasS'f19_28'
p60
(lp61
(lp62
I1
aI28
aI499
aasS'ID_39_F1_2_F2_14_G_2_SplitPt_106_GenID_0'
p63
(lp64
(lp65
I11
aI1
aI104
aa(lp66
I12
aI70
aI500
aasS'f17_8'
p67
(lp68
(lp69
I13
aI72
aI500
aasS'f2_11'
p70
(lp71
(lp72
I14
aI145
aI500
aasS'f2_10'
p73
(lp74
(lp75
I14
aI159
aI500
aasS'f2_13'
p76
(lp77
(lp78
I14
aI2
aI492
aasS'f2_12'
p79
(lp80
(lp81
I14
aI111
aI496
aasS'f2_15'
p82
(lp83
(lp84
I14
aI259
aI481
aasS'f2_14'
p85
(lp86
(lp87
I14
aI143
aI495
aasS'f2_17'
p88
(lp89
(lp90
I15
aI2
aI200
aa(lp91
I14
aI17
aI500
aasS'f2_16'
p92
(lp93
(lp94
I16
aI285
aI408
aa(lp95
I15
aI1
aI198
aasS'f2_19'
p96
(lp97
(lp98
I15
aI1
aI198
aasS'f2_18'
p99
(lp100
(lp101
I15
aI1
aI198
aa(lp102
I14
aI34
aI500
aasS'ID_13_F1_15_F2_1_G_2_SplitPt_85_GenID_0'
p103
(lp104
(lp105
I17
aI3
aI85
aa(lp106
I5
aI6
aI500
aasS'f19_20'
p107
(lp108
(lp109
I1
aI3
aI496
aasS'ID_19_F1_9_F2_9_G_4_SplitPt_189_GenID_0'
p110
(lp111
(lp112
I2
aI6
aI500
aasS'f19_25'
p113
(lp114
(lp115
I1
aI5
aI444
aasS'f19_24'
p116
(lp117
(lp118
I1
aI16
aI499
aasS'f17_0'
p119
(lp120
(lp121
I13
aI100
aI486
aasS'f17_1'
p122
(lp123
(lp124
I13
aI1
aI493
aasS'f8_31'
p125
(lp126
(lp127
I18
aI2
aI500
aasS'f8_30'
p128
(lp129
(lp130
I19
aI186
aI340
aasS'ID_40_F1_18_F2_1_G_3_SplitPt_219_GenID_0'
p131
(lp132
(lp133
I20
aI1
aI241
aa(lp134
I5
aI220
aI500
aasS'ID_4_F1_15_F2_4_G_3_SplitPt_96_GenID_0'
p135
(lp136
(lp137
I21
aI1
aI118
aa(lp138
I7
aI73
aI498
aasS'f0_15'
p139
(lp140
(lp141
I5
aI3
aI491
aasS'f11_23'
p142
(lp143
(lp144
I22
aI6
aI477
aasS'f11_22'
p145
(lp146
(lp147
I22
aI1
aI420
aasS'f11_21'
p148
(lp149
(lp150
I23
aI84
aI237
aasS'f11_20'
p151
(lp152
(lp153
I22
aI2
aI339
aasS'f11_27'
p154
(lp155
(lp156
I24
aI1
aI141
aa(lp157
I22
aI7
aI347
aasS'f11_26'
p158
(lp159
(lp160
I24
aI3
aI159
aa(lp161
I22
aI18
aI499
aasS'f11_25'
p162
(lp163
(lp164
I24
aI1
aI156
aa(lp165
I22
aI6
aI420
aasS'f11_24'
p166
(lp167
(lp168
I25
aI47
aI268
aa(lp169
I24
aI3
aI148
aasS'f11_29'
p170
(lp171
(lp172
I22
aI3
aI477
aasS'f11_28'
p173
(lp174
(lp175
I26
aI85
aI146
aa(lp176
I22
aI250
aI500
aasS'ID_21_F1_4_F2_14_G_1_SplitPt_69_GenID_0'
p177
(lp178
(lp179
I12
aI49
aI495
aasS'f4_31'
p180
(lp181
(lp182
I7
aI31
aI500
aasS'f4_30'
p183
(lp184
(lp185
I7
aI11
aI498
aasS'ID_48_F1_2_F2_6_G_2_SplitPt_88_GenID_0'
p186
(lp187
(lp188
I27
aI1
aI88
aa(lp189
I28
aI96
aI497
aasS'f8_7'
p190
(lp191
(lp192
I18
aI1
aI499
aasS'f7_22'
p193
(lp194
(lp195
I29
aI13
aI500
aasS'f7_21'
p196
(lp197
(lp198
I29
aI1
aI500
aasS'f14_5'
p199
(lp200
(lp201
I12
aI6
aI498
aasS'f8_4'
p202
(lp203
(lp204
I18
aI17
aI385
aasS'f16_23'
p205
(lp206
(lp207
I30
aI7
aI500
aasS'f7_27'
p208
(lp209
(lp210
I29
aI25
aI468
aasS'f14_7'
p211
(lp212
(lp213
I12
aI1
aI498
aasS'f7_26'
p214
(lp215
(lp216
I29
aI25
aI500
aasS'f3_0'
p217
(lp218
(lp219
I8
aI1
aI500
aasS'f14_6'
p220
(lp221
(lp222
I12
aI227
aI498
aasS'f8_1'
p223
(lp224
(lp225
I18
aI11
aI431
aasS'f3_1'
p226
(lp227
(lp228
I8
aI1
aI500
aasS'f14_1'
p229
(lp230
(lp231
I12
aI2
aI500
aasS'f7_24'
p232
(lp233
(lp234
I29
aI110
aI500
aasS'f3_2'
p235
(lp236
(lp237
I8
aI1
aI500
aasS'f14_0'
p238
(lp239
(lp240
I12
aI13
aI499
aasS'f14_3'
p241
(lp242
(lp243
I31
aI153
aI288
aasS'f14_31'
p244
(lp245
(lp246
I32
aI127
aI245
aasS'f14_30'
p247
(lp248
(lp249
I12
aI79
aI500
aasS'f3_4'
p250
(lp251
(lp252
I8
aI2
aI500
aasS'f14_2'
p253
(lp254
(lp255
I12
aI60
aI500
aasS'f3_5'
p256
(lp257
(lp258
I8
aI1
aI500
aasS'f15_16'
p259
(lp260
(lp261
I3
aI50
aI500
aasS'f15_17'
p262
(lp263
(lp264
I3
aI1
aI496
aasS'f15_14'
p265
(lp266
(lp267
I3
aI2
aI499
aasS'f15_15'
p268
(lp269
(lp270
I3
aI1
aI469
aasS'f15_12'
p271
(lp272
(lp273
I3
aI34
aI491
aasS'f15_13'
p274
(lp275
(lp276
I3
aI24
aI469
aasS'f15_10'
p277
(lp278
(lp279
I33
aI2
aI197
aasS'f15_11'
p280
(lp281
(lp282
I3
aI3
aI472
aasS'f19_23'
p283
(lp284
(lp285
I1
aI1
aI493
aasS'f19_22'
p286
(lp287
(lp288
I1
aI1
aI500
aasS'f19_21'
p289
(lp290
(lp291
I1
aI14
aI480
aasS'ID_12_F1_8_F2_6_G_0_SplitPt_172_GenID_0'
p292
(lp293
(lp294
I18
aI1
aI172
aasS'f19_27'
p295
(lp296
(lp297
I1
aI2
aI499
aasS'f19_26'
p298
(lp299
(lp300
I1
aI9
aI500
aasS'f15_18'
p301
(lp302
(lp303
I3
aI2
aI474
aasS'f15_19'
p304
(lp305
(lp306
I3
aI1
aI500
aasS'f10_28'
p307
(lp308
(lp309
I34
aI26
aI500
aasS'f10_29'
p310
(lp311
(lp312
I34
aI80
aI500
aasS'f10_24'
p313
(lp314
(lp315
I34
aI119
aI498
aasS'f10_25'
p316
(lp317
(lp318
I34
aI13
aI500
aasS'f10_26'
p319
(lp320
(lp321
I34
aI3
aI500
aasS'f10_27'
p322
(lp323
(lp324
I35
aI372
aI472
aasS'f10_20'
p325
(lp326
(lp327
I34
aI3
aI500
aasS'f10_21'
p328
(lp329
(lp330
I36
aI392
aI496
aasS'f10_22'
p331
(lp332
(lp333
I37
aI17
aI155
aasS'f10_23'
p334
(lp335
(lp336
I34
aI107
aI500
aasS'f0_28'
p337
(lp338
(lp339
I5
aI9
aI480
aasS'ID_31_F1_4_F2_12_G_2_SplitPt_214_GenID_0'
p340
(lp341
(lp342
I6
aI202
aI500
aa(lp343
I7
aI1
aI262
aasS'f0_29'
p344
(lp345
(lp346
I5
aI52
aI473
aasS'f13_10'
p347
(lp348
(lp349
I38
aI1
aI108
aa(lp350
I10
aI54
aI484
aasS'f13_11'
p351
(lp352
(lp353
I38
aI12
aI108
aa(lp354
I10
aI63
aI500
aasS'f13_12'
p355
(lp356
(lp357
I10
aI18
aI499
aasS'f13_13'
p358
(lp359
(lp360
I10
aI1
aI494
aasS'f13_14'
p361
(lp362
(lp363
I39
aI325
aI430
aasS'f13_15'
p364
(lp365
(lp366
I10
aI5
aI484
aasS'f13_16'
p367
(lp368
(lp369
I40
aI28
aI143
aasS'f13_17'
p370
(lp371
(lp372
I40
aI49
aI143
aasS'f13_18'
p373
(lp374
(lp375
I10
aI2
aI449
aasS'f13_19'
p376
(lp377
(lp378
I10
aI10
aI454
aasS'f0_24'
p379
(lp380
(lp381
I5
aI8
aI500
aasS'f0_25'
p382
(lp383
(lp384
I5
aI49
aI499
aasS'ID_14_F1_18_F2_18_G_2_SplitPt_177_GenID_0'
p385
(lp386
(lp387
I20
aI1
aI499
aasS'f18_24'
p388
(lp389
(lp390
I20
aI2
aI457
aasS'f18_25'
p391
(lp392
(lp393
I20
aI245
aI457
aa(lp394
I20
aI1
aI181
aasS'f18_26'
p395
(lp396
(lp397
I20
aI1
aI460
aasS'f18_27'
p398
(lp399
(lp400
I20
aI1
aI498
aasS'f18_20'
p401
(lp402
(lp403
I41
aI357
aI500
aasS'f18_21'
p404
(lp405
(lp406
I20
aI5
aI500
aasS'f18_22'
p407
(lp408
(lp409
I20
aI7
aI497
aasS'f18_23'
p410
(lp411
(lp412
I20
aI10
aI497
aasS'f18_28'
p413
(lp414
(lp415
I20
aI9
aI425
aasS'f18_29'
p416
(lp417
(lp418
I20
aI6
aI497
aasS'f11_18'
p419
(lp420
(lp421
I22
aI60
aI500
aasS'f11_19'
p422
(lp423
(lp424
I42
aI294
aI500
aasS'f11_12'
p425
(lp426
(lp427
I24
aI1
aI159
aa(lp428
I22
aI4
aI457
aasS'f11_13'
p429
(lp430
(lp431
I23
aI82
aI237
aa(lp432
I43
aI285
aI499
aasS'f11_10'
p433
(lp434
(lp435
I22
aI4
aI500
aasS'f11_11'
p436
(lp437
(lp438
I22
aI13
aI493
aasS'f11_16'
p439
(lp440
(lp441
I43
aI285
aI499
aasS'f11_17'
p442
(lp443
(lp444
I22
aI6
aI500
aasS'f11_14'
p445
(lp446
(lp447
I25
aI47
aI268
aasS'f11_15'
p448
(lp449
(lp450
I22
aI1
aI457
aasS'f9_14'
p451
(lp452
(lp453
I44
aI376
aI494
aa(lp454
I2
aI29
aI466
aasS'f3_15'
p455
(lp456
(lp457
I8
aI1
aI435
aasS'f9_16'
p458
(lp459
(lp460
I45
aI9
aI239
aa(lp461
I46
aI269
aI457
aa(lp462
I47
aI132
aI329
aasS'f9_17'
p463
(lp464
(lp465
I2
aI3
aI498
aasS'f9_10'
p466
(lp467
(lp468
I2
aI8
aI490
aasS'f9_11'
p469
(lp470
(lp471
I2
aI13
aI491
aasS'f9_12'
p472
(lp473
(lp474
I2
aI42
aI481
aasS'f9_13'
p475
(lp476
(lp477
I48
aI24
aI173
aa(lp478
I2
aI42
aI497
aasS'f9_18'
p479
(lp480
(lp481
I2
aI6
aI474
aasS'f9_19'
p482
(lp483
(lp484
I49
aI118
aI243
aasS'ID_54_F1_1_F2_17_G_1_SplitPt_133_GenID_0'
p485
(lp486
(lp487
I13
aI121
aI500
aasS'ID_59_F1_17_F2_14_G_4_SplitPt_180_GenID_0'
p488
(lp489
(lp490
I12
aI157
aI500
aa(lp491
I13
aI1
aI200
aasS'f7_16'
p492
(lp493
(lp494
I29
aI7
aI500
aasS'f7_17'
p495
(lp496
(lp497
I29
aI6
aI500
aasS'f7_14'
p498
(lp499
(lp500
I50
aI240
aI374
aasS'f7_15'
p501
(lp502
(lp503
I29
aI7
aI498
aasS'f7_12'
p504
(lp505
(lp506
I29
aI2
aI472
aasS'f7_13'
p507
(lp508
(lp509
I29
aI4
aI494
aasS'f7_10'
p510
(lp511
(lp512
I29
aI1
aI500
aasS'f7_11'
p513
(lp514
(lp515
I29
aI1
aI460
aasS'f5_10'
p516
(lp517
(lp518
I51
aI197
aI332
aasS'f5_11'
p519
(lp520
(lp521
I52
aI287
aI428
aa(lp522
I51
aI188
aI332
aasS'f5_12'
p523
(lp524
(lp525
I53
aI5
aI497
aasS'f5_13'
p526
(lp527
(lp528
I53
aI1
aI499
aasS'f5_14'
p529
(lp530
(lp531
I53
aI2
aI499
aasS'f5_15'
p532
(lp533
(lp534
I53
aI7
aI499
aasS'f7_18'
p535
(lp536
(lp537
I29
aI57
aI500
aasS'f7_19'
p538
(lp539
(lp540
I29
aI48
aI500
aasS'ID_51_F1_19_F2_2_G_3_SplitPt_172_GenID_0'
p541
(lp542
(lp543
I54
aI86
aI151
aa(lp544
I14
aI152
aI500
aasS'f0_14'
p545
(lp546
(lp547
I5
aI1
aI494
aasS'f1_1'
p548
(lp549
(lp550
I5
aI2
aI499
aasS'f12_31'
p551
(lp552
(lp553
I6
aI10
aI500
aasS'f12_30'
p554
(lp555
(lp556
I6
aI1
aI500
aasS'f9_7'
p557
(lp558
(lp559
I2
aI21
aI492
aasS'f2_9'
p560
(lp561
(lp562
I14
aI2
aI500
aasS'f2_8'
p563
(lp564
(lp565
I55
aI48
aI476
aa(lp566
I14
aI240
aI500
aasS'f3_17'
p567
(lp568
(lp569
I8
aI1
aI442
aasS'ID_35_F1_18_F2_5_G_2_SplitPt_187_GenID_0'
p570
(lp571
(lp572
I51
aI180
aI332
aa(lp573
I53
aI191
aI499
aa(lp574
I20
aI1
aI188
aasS'ID_0_F1_17_F2_11_G_1_SplitPt_215_GenID_0'
p575
(lp576
(lp577
I13
aI1
aI224
aasS'f3_14'
p578
(lp579
(lp580
I8
aI2
aI497
aasS'f7_4'
p581
(lp582
(lp583
I29
aI9
aI498
aasS'f7_5'
p584
(lp585
(lp586
I29
aI11
aI357
aasS'f7_6'
p587
(lp588
(lp589
I29
aI1
aI498
aasS'ID_52_F1_11_F2_16_G_1_SplitPt_83_GenID_0'
p590
(lp591
(lp592
I30
aI83
aI499
aasS'ID_3_F1_1_F2_15_G_1_SplitPt_205_GenID_0'
p593
(lp594
(lp595
I3
aI203
aI494
aa(lp596
I5
aI1
aI230
aasS'f7_1'
p597
(lp598
(lp599
I29
aI2
aI468
aasS'f7_2'
p600
(lp601
(lp602
I50
aI240
aI389
aasS'f7_3'
p603
(lp604
(lp605
I29
aI26
aI492
aasS'f7_8'
p606
(lp607
(lp608
I29
aI3
aI493
aasS'f7_9'
p609
(lp610
(lp611
I56
aI220
aI398
aasS'f13_8'
p612
(lp613
(lp614
I38
aI2
aI110
aa(lp615
I10
aI32
aI496
aasS'f2_6'
p616
(lp617
(lp618
I14
aI143
aI490
aasS'f19_12'
p619
(lp620
(lp621
I1
aI4
aI494
aasS'f19_13'
p622
(lp623
(lp624
I57
aI351
aI500
aasS'f5_8'
p625
(lp626
(lp627
I53
aI2
aI489
aasS'f5_9'
p628
(lp629
(lp630
I53
aI15
aI489
aasS'f19_16'
p631
(lp632
(lp633
I58
aI137
aI222
aasS'f19_17'
p634
(lp635
(lp636
I1
aI2
aI498
aasS'f19_14'
p637
(lp638
(lp639
I1
aI2
aI500
aasS'f19_15'
p640
(lp641
(lp642
I1
aI2
aI500
aasS'f5_2'
p643
(lp644
(lp645
I53
aI1
aI436
aasS'f5_3'
p646
(lp647
(lp648
I53
aI50
aI441
aasS'f5_0'
p649
(lp650
(lp651
I53
aI2
aI432
aasS'f5_1'
p652
(lp653
(lp654
I53
aI3
aI446
aasS'f5_6'
p655
(lp656
(lp657
I53
aI3
aI444
aasS'f5_7'
p658
(lp659
(lp660
I53
aI3
aI491
aasS'f5_4'
p661
(lp662
(lp663
I53
aI2
aI445
aasS'f5_5'
p664
(lp665
(lp666
I53
aI1
aI441
aasS'ID_34_F1_15_F2_9_G_2_SplitPt_51_GenID_0'
p667
(lp668
(lp669
I48
aI22
aI173
aa(lp670
I2
aI37
aI500
aasS'f14_28'
p671
(lp672
(lp673
I12
aI3
aI500
aasS'f0_9'
p674
(lp675
(lp676
I5
aI4
aI483
aasS'f0_8'
p677
(lp678
(lp679
I5
aI25
aI494
aasS'f8_26'
p680
(lp681
(lp682
I18
aI1
aI500
aasS'f8_27'
p683
(lp684
(lp685
I18
aI1
aI500
aasS'f8_24'
p686
(lp687
(lp688
I18
aI4
aI361
aasS'f3_3'
p689
(lp690
(lp691
I8
aI1
aI428
aasS'f8_22'
p692
(lp693
(lp694
I18
aI4
aI361
aasS'f8_23'
p695
(lp696
(lp697
I18
aI4
aI459
aasS'f8_20'
p698
(lp699
(lp700
I19
aI186
aI340
aasS'f8_21'
p701
(lp702
(lp703
I18
aI3
aI494
aasS'f3_8'
p704
(lp705
(lp706
I8
aI1
aI497
aasS'f3_9'
p707
(lp708
(lp709
I8
aI34
aI499
aasS'f8_28'
p710
(lp711
(lp712
I18
aI1
aI492
aasS'f8_29'
p713
(lp714
(lp715
I18
aI1
aI500
aasS'f1_6'
p716
(lp717
(lp718
I5
aI2
aI499
aasS'f1_7'
p719
(lp720
(lp721
I5
aI2
aI499
aasS'f1_4'
p722
(lp723
(lp724
I5
aI2
aI500
aasS'f1_5'
p725
(lp726
(lp727
I59
aI149
aI304
aasS'f1_2'
p728
(lp729
(lp730
I5
aI2
aI500
aasS'f1_3'
p731
(lp732
(lp733
I5
aI2
aI500
aasS'f1_0'
p734
(lp735
(lp736
I5
aI3
aI500
aasS'f14_21'
p737
(lp738
(lp739
I12
aI1
aI500
aasS'f1_8'
p740
(lp741
(lp742
I5
aI45
aI500
aasS'f1_9'
p743
(lp744
(lp745
I5
aI11
aI498
aasS'f9_8'
p746
(lp747
(lp748
I2
aI2
aI498
aasS'f9_9'
p749
(lp750
(lp751
I2
aI33
aI500
aasS'f9_6'
p752
(lp753
(lp754
I2
aI8
aI484
aasS'f19_30'
p755
(lp756
(lp757
I1
aI26
aI486
aasS'f9_4'
p758
(lp759
(lp760
I2
aI3
aI498
aasS'f9_5'
p761
(lp762
(lp763
I2
aI2
aI494
aasS'f9_2'
p764
(lp765
(lp766
I2
aI34
aI500
aasS'f9_3'
p767
(lp768
(lp769
I2
aI52
aI500
aasS'f9_0'
p770
(lp771
(lp772
I2
aI15
aI489
aasS'f9_1'
p773
(lp774
(lp775
I46
aI269
aI459
aasS'f14_27'
p776
(lp777
(lp778
I12
aI1
aI498
aasS'f17_9'
p779
(lp780
(lp781
I13
aI40
aI500
aasS'f2_28'
p782
(lp783
(lp784
I11
aI1
aI103
aa(lp785
I14
aI62
aI500
aasS'ID_43_F1_3_F2_4_G_3_SplitPt_55_GenID_0'
p786
(lp787
(lp788
I8
aI3
aI83
aa(lp789
I7
aI55
aI500
aasS'f9_29'
p790
(lp791
(lp792
I2
aI6
aI500
aasS'f9_28'
p793
(lp794
(lp795
I2
aI17
aI494
aasS'f2_29'
p796
(lp797
(lp798
I11
aI1
aI100
aa(lp799
I14
aI35
aI500
aasS'f9_25'
p800
(lp801
(lp802
I2
aI6
aI483
aasS'f9_24'
p803
(lp804
(lp805
I2
aI6
aI498
aasS'f9_27'
p806
(lp807
(lp808
I47
aI137
aI329
aasS'f9_26'
p809
(lp810
(lp811
I2
aI1
aI496
aasS'f9_21'
p812
(lp813
(lp814
I2
aI9
aI498
aasS'f9_20'
p815
(lp816
(lp817
I2
aI15
aI499
aasS'f9_23'
p818
(lp819
(lp820
I2
aI23
aI500
aasS'f9_22'
p821
(lp822
(lp823
I2
aI19
aI499
aasS'f5_21'
p824
(lp825
(lp826
I53
aI1
aI479
aasS'f5_20'
p827
(lp828
(lp829
I53
aI2
aI494
aasS'f5_23'
p830
(lp831
(lp832
I53
aI2
aI499
aasS'f5_22'
p833
(lp834
(lp835
I53
aI3
aI497
aasS'f5_25'
p836
(lp837
(lp838
I53
aI2
aI456
aasS'f5_24'
p839
(lp840
(lp841
I53
aI18
aI500
aasS'f5_27'
p842
(lp843
(lp844
I53
aI1
aI428
aasS'f5_26'
p845
(lp846
(lp847
I52
aI287
aI428
aasS'f5_29'
p848
(lp849
(lp850
I53
aI3
aI463
aasS'f5_28'
p851
(lp852
(lp853
I60
aI218
aI323
aasS'ID_33_F1_18_F2_11_G_4_SplitPt_121_GenID_0'
p854
(lp855
(lp856
I22
aI113
aI500
aa(lp857
I20
aI1
aI158
aasS'f10_9'
p858
(lp859
(lp860
I61
aI2
aI202
aa(lp861
I34
aI42
aI490
aasS'f4_28'
p862
(lp863
(lp864
I7
aI5
aI500
aasS'f4_29'
p865
(lp866
(lp867
I7
aI6
aI494
aasS'f14_25'
p868
(lp869
(lp870
I12
aI34
aI498
aasS'f15_31'
p871
(lp872
(lp873
I62
aI115
aI269
aasS'f4_22'
p874
(lp875
(lp876
I7
aI6
aI499
aasS'f4_23'
p877
(lp878
(lp879
I7
aI1
aI499
aasS'f4_20'
p880
(lp881
(lp882
I7
aI3
aI476
aasS'f4_21'
p883
(lp884
(lp885
I7
aI1
aI499
aasS'f4_26'
p886
(lp887
(lp888
I7
aI2
aI499
aasS'f4_27'
p889
(lp890
(lp891
I7
aI1
aI499
aasS'f4_24'
p892
(lp893
(lp894
I7
aI1
aI500
aasS'f4_25'
p895
(lp896
(lp897
I7
aI2
aI500
aasS'f2_20'
p898
(lp899
(lp900
I15
aI8
aI193
aa(lp901
I14
aI161
aI500
aasS'f2_21'
p902
(lp903
(lp904
I15
aI1
aI195
aa(lp905
I14
aI35
aI500
aasS'f0_31'
p906
(lp907
(lp908
I5
aI2
aI459
aasS'f17_30'
p909
(lp910
(lp911
I13
aI1
aI497
aasS'f17_31'
p912
(lp913
(lp914
I13
aI2
aI500
aasS'f4_10'
p915
(lp916
(lp917
I7
aI7
aI353
aasS'f5_18'
p918
(lp919
(lp920
I53
aI2
aI396
aasS'f1_18'
p921
(lp922
(lp923
I5
aI41
aI500
aasS'f1_19'
p924
(lp925
(lp926
I5
aI7
aI495
aasS'f5_19'
p927
(lp928
(lp929
I53
aI1
aI417
aasS'f1_14'
p930
(lp931
(lp932
I5
aI11
aI500
aasS'f1_15'
p933
(lp934
(lp935
I59
aI149
aI304
aasS'f1_16'
p936
(lp937
(lp938
I5
aI37
aI499
aasS'f1_17'
p939
(lp940
(lp941
I5
aI9
aI450
aasS'f1_10'
p942
(lp943
(lp944
I5
aI5
aI497
aasS'f1_11'
p945
(lp946
(lp947
I5
aI95
aI500
aasS'f1_12'
p948
(lp949
(lp950
I5
aI4
aI499
aasS'f1_13'
p951
(lp952
(lp953
I5
aI9
aI500
aasS'f10_31'
p954
(lp955
(lp956
I37
aI17
aI155
aa(lp957
I34
aI25
aI500
aasS'f10_30'
p958
(lp959
(lp960
I34
aI5
aI500
aasS'ID_29_F1_1_F2_8_G_2_SplitPt_184_GenID_0'
p961
(lp962
(lp963
I18
aI186
aI500
aa(lp964
I5
aI2
aI229
aasS'ID_47_F1_9_F2_6_G_1_SplitPt_245_GenID_0'
p965
(lp966
(lp967
I45
aI9
aI239
aa(lp968
I49
aI107
aI243
aa(lp969
I28
aI228
aI500
aasS'ID_17_F1_17_F2_9_G_1_SplitPt_107_GenID_0'
p970
(lp971
(lp972
I44
aI376
aI494
aasS'ID_53_F1_2_F2_10_G_4_SplitPt_180_GenID_0'
p973
(lp974
(lp975
I15
aI1
aI197
aa(lp976
I34
aI176
aI500
aasS'f19_8'
p977
(lp978
(lp979
I1
aI1
aI500
aasS'f19_9'
p980
(lp981
(lp982
I1
aI1
aI500
aasS'f3_18'
p983
(lp984
(lp985
I8
aI1
aI500
aasS'f3_19'
p986
(lp987
(lp988
I8
aI1
aI500
aasS'f1_29'
p989
(lp990
(lp991
I5
aI60
aI500
aasS'f3_12'
p992
(lp993
(lp994
I63
aI203
aI351
aasS'f19_1'
p995
(lp996
(lp997
I58
aI137
aI219
aasS'f3_10'
p998
(lp999
(lp1000
I9
aI329
aI477
aasS'f19_3'
p1001
(lp1002
(lp1003
I1
aI61
aI499
aasS'f3_16'
p1004
(lp1005
(lp1006
I9
aI329
aI499
aasS'f19_5'
p1007
(lp1008
(lp1009
I54
aI86
aI151
aasS'f19_6'
p1010
(lp1011
(lp1012
I1
aI1
aI500
aasS'f19_7'
p1013
(lp1014
(lp1015
I57
aI351
aI500
aa(lp1016
I1
aI82
aI198
aasS'ID_1_F1_17_F2_10_G_3_SplitPt_101_GenID_0'
p1017
(lp1018
(lp1019
I64
aI1
aI104
aa(lp1020
I34
aI85
aI500
aasS'f4_11'
p1021
(lp1022
(lp1023
I7
aI6
aI417
aasS'f18_31'
p1024
(lp1025
(lp1026
I65
aI53
aI147
aasS'f18_30'
p1027
(lp1028
(lp1029
I20
aI3
aI458
aasS'f5_16'
p1030
(lp1031
(lp1032
I53
aI3
aI500
aasS'ID_62_F1_15_F2_14_G_2_SplitPt_226_GenID_0'
p1033
(lp1034
(lp1035
I3
aI1
aI237
aa(lp1036
I12
aI222
aI500
aasS'f5_17'
p1037
(lp1038
(lp1039
I53
aI2
aI500
aasS'f6_9'
p1040
(lp1041
(lp1042
I28
aI1
aI436
aasS'f6_8'
p1043
(lp1044
(lp1045
I28
aI1
aI412
aasS'f6_5'
p1046
(lp1047
(lp1048
I66
aI242
aI387
aasS'f6_4'
p1049
(lp1050
(lp1051
I28
aI1
aI480
aasS'f6_7'
p1052
(lp1053
(lp1054
I28
aI1
aI440
aasS'f6_6'
p1055
(lp1056
(lp1057
I28
aI12
aI500
aasS'f6_1'
p1058
(lp1059
(lp1060
I67
aI27
aI140
aasS'f6_0'
p1061
(lp1062
(lp1063
I28
aI1
aI394
aasS'f6_3'
p1064
(lp1065
(lp1066
I28
aI1
aI464
aasS'f6_2'
p1067
(lp1068
(lp1069
I28
aI1
aI497
aasS'f4_3'
p1070
(lp1071
(lp1072
I7
aI4
aI498
aasS'f4_2'
p1073
(lp1074
(lp1075
I7
aI1
aI497
aasS'f4_1'
p1076
(lp1077
(lp1078
I7
aI7
aI475
aasS'f4_0'
p1079
(lp1080
(lp1081
I7
aI7
aI488
aasS'f4_7'
p1082
(lp1083
(lp1084
I7
aI88
aI499
aasS'f4_6'
p1085
(lp1086
(lp1087
I7
aI49
aI499
aasS'f4_5'
p1088
(lp1089
(lp1090
I67
aI27
aI140
aasS'f4_4'
p1091
(lp1092
(lp1093
I7
aI49
aI499
aasS'f17_2'
p1094
(lp1095
(lp1096
I13
aI166
aI479
aasS'f17_3'
p1097
(lp1098
(lp1099
I13
aI63
aI495
aasS'f4_9'
p1100
(lp1101
(lp1102
I7
aI1
aI357
aasS'f4_8'
p1103
(lp1104
(lp1105
I7
aI1
aI469
aasS'f17_6'
p1106
(lp1107
(lp1108
I68
aI168
aI316
aasS'f17_7'
p1109
(lp1110
(lp1111
I13
aI129
aI493
aasS'f17_4'
p1112
(lp1113
(lp1114
I13
aI44
aI500
aasS'f17_5'
p1115
(lp1116
(lp1117
I13
aI40
aI493
aasS'ID_49_F1_9_F2_4_G_0_SplitPt_136_GenID_0'
p1118
(lp1119
(lp1120
I7
aI96
aI499
aasS'f7_23'
p1121
(lp1122
(lp1123
I56
aI220
aI398
aasS'f8_6'
p1124
(lp1125
(lp1126
I69
aI240
aI497
aasS'f8_5'
p1127
(lp1128
(lp1129
I18
aI17
aI499
aasS'f7_20'
p1130
(lp1131
(lp1132
I50
aI271
aI385
aasS'f8_3'
p1133
(lp1134
(lp1135
I18
aI100
aI499
aasS'f8_2'
p1136
(lp1137
(lp1138
I18
aI4
aI473
aasS'f7_25'
p1139
(lp1140
(lp1141
I29
aI195
aI498
aasS'f8_0'
p1142
(lp1143
(lp1144
I18
aI1
aI371
aasS'f4_19'
p1145
(lp1146
(lp1147
I7
aI2
aI500
aasS'f7_29'
p1148
(lp1149
(lp1150
I70
aI219
aI324
aasS'f7_28'
p1151
(lp1152
(lp1153
I29
aI25
aI500
aasS'f8_9'
p1154
(lp1155
(lp1156
I18
aI3
aI415
aasS'f8_8'
p1157
(lp1158
(lp1159
I18
aI1
aI497
aasS'ID_27_F1_18_F2_12_G_0_SplitPt_216_GenID_0'
p1160
(lp1161
(lp1162
I20
aI9
aI254
aasS'f11_0'
p1163
(lp1164
(lp1165
I22
aI3
aI500
aasS'f11_1'
p1166
(lp1167
(lp1168
I22
aI14
aI500
aasS'ID_37_F1_0_F2_2_G_2_SplitPt_230_GenID_0'
p1169
(lp1170
(lp1171
I14
aI186
aI500
aa(lp1172
I5
aI2
aI434
aasS'f11_4'
p1173
(lp1174
(lp1175
I22
aI47
aI500
aasS'f11_5'
p1176
(lp1177
(lp1178
I22
aI38
aI500
aasS'f11_6'
p1179
(lp1180
(lp1181
I71
aI1
aI60
aa(lp1182
I22
aI10
aI499
aasS'f11_7'
p1183
(lp1184
(lp1185
I71
aI1
aI51
aa(lp1186
I22
aI62
aI500
aasS'f11_8'
p1187
(lp1188
(lp1189
I22
aI25
aI500
aasS'f11_9'
p1190
(lp1191
(lp1192
I26
aI85
aI146
aasS'f13_6'
p1193
(lp1194
(lp1195
I40
aI9
aI174
aa(lp1196
I10
aI50
aI500
aasS'f13_7'
p1197
(lp1198
(lp1199
I40
aI1
aI216
aa(lp1200
I10
aI24
aI498
aasS'f13_4'
p1201
(lp1202
(lp1203
I40
aI10
aI208
aa(lp1204
I10
aI11
aI444
aasS'f13_5'
p1205
(lp1206
(lp1207
I40
aI1
aI229
aa(lp1208
I10
aI20
aI484
aasS'f13_2'
p1209
(lp1210
(lp1211
I72
aI308
aI422
aa(lp1212
I40
aI54
aI208
aasS'f13_3'
p1213
(lp1214
(lp1215
I10
aI2
aI499
aasS'f13_0'
p1216
(lp1217
(lp1218
I40
aI1
aI201
aa(lp1219
I10
aI31
aI494
aasS'f13_1'
p1220
(lp1221
(lp1222
I40
aI1
aI201
aa(lp1223
I10
aI12
aI494
aasS'f2_1'
p1224
(lp1225
(lp1226
I27
aI1
aI86
aa(lp1227
I14
aI52
aI493
aasS'f2_0'
p1228
(lp1229
(lp1230
I73
aI2
aI409
aa(lp1231
I14
aI252
aI481
aasS'f2_3'
p1232
(lp1233
(lp1234
I27
aI7
aI88
aa(lp1235
I14
aI52
aI493
aasS'f2_2'
p1236
(lp1237
(lp1238
I27
aI16
aI88
aa(lp1239
I14
aI145
aI495
aasS'f2_5'
p1240
(lp1241
(lp1242
I73
aI3
aI381
aasS'f2_4'
p1243
(lp1244
(lp1245
I73
aI2
aI409
aa(lp1246
I14
aI330
aI490
aasS'f2_7'
p1247
(lp1248
(lp1249
I14
aI169
aI404
aasS'f13_9'
p1250
(lp1251
(lp1252
I38
aI1
aI110
aa(lp1253
I10
aI27
aI494
aasS'f15_4'
p1254
(lp1255
(lp1256
I3
aI2
aI464
aasS'f15_5'
p1257
(lp1258
(lp1259
I3
aI3
aI499
aasS'f15_6'
p1260
(lp1261
(lp1262
I17
aI3
aI85
aasS'f15_7'
p1263
(lp1264
(lp1265
I3
aI5
aI499
aasS'f15_0'
p1266
(lp1267
(lp1268
I62
aI115
aI258
aa(lp1269
I21
aI2
aI94
aasS'f15_1'
p1270
(lp1271
(lp1272
I21
aI6
aI102
aasS'f15_2'
p1273
(lp1274
(lp1275
I21
aI1
aI116
aasS'f15_3'
p1276
(lp1277
(lp1278
I21
aI1
aI121
aasS'f0_7'
p1279
(lp1280
(lp1281
I5
aI17
aI494
aasS'f0_6'
p1282
(lp1283
(lp1284
I5
aI6
aI494
aasS'f0_5'
p1285
(lp1286
(lp1287
I5
aI1
aI454
aasS'f0_4'
p1288
(lp1289
(lp1290
I5
aI1
aI499
aasS'f15_8'
p1291
(lp1292
(lp1293
I3
aI3
aI498
aasS'f15_9'
p1294
(lp1295
(lp1296
I3
aI2
aI446
aasS'f0_1'
p1297
(lp1298
(lp1299
I5
aI2
aI492
aasS'f0_0'
p1300
(lp1301
(lp1302
I5
aI2
aI490
aasS'f1_28'
p1303
(lp1304
(lp1305
I5
aI14
aI498
aasS'f6_31'
p1306
(lp1307
(lp1308
I28
aI1
aI500
aasS'ID_10_F1_9_F2_0_G_0_SplitPt_114_GenID_0'
p1309
(lp1310
(lp1311
I5
aI229
aI399
aasS'f6_30'
p1312
(lp1313
(lp1314
I28
aI1
aI481
aasS'ID_11_F1_19_F2_18_G_1_SplitPt_185_GenID_0'
p1315
(lp1316
(lp1317
I1
aI4
aI238
aa(lp1318
I20
aI184
aI497
aasS'ID_24_F1_11_F2_14_G_2_SplitPt_70_GenID_0'
p1319
(lp1320
(lp1321
I12
aI68
aI499
aasS'f16_13'
p1322
(lp1323
(lp1324
I30
aI1
aI397
aasS'f16_12'
p1325
(lp1326
(lp1327
I30
aI3
aI495
aasS'f16_11'
p1328
(lp1329
(lp1330
I30
aI1
aI472
aasS'ID_45_F1_2_F2_0_G_4_SplitPt_198_GenID_0'
p1331
(lp1332
(lp1333
I15
aI1
aI198
aa(lp1334
I5
aI171
aI500
aasS'f16_17'
p1335
(lp1336
(lp1337
I30
aI9
aI500
aasS'f16_16'
p1338
(lp1339
(lp1340
I30
aI9
aI463
aasS'f16_15'
p1341
(lp1342
(lp1343
I30
aI34
aI369
aasS'f16_14'
p1344
(lp1345
(lp1346
I74
aI3
aI177
aa(lp1347
I30
aI21
aI465
aasS'f16_19'
p1348
(lp1349
(lp1350
I30
aI1
aI482
aasS'f16_18'
p1351
(lp1352
(lp1353
I30
aI1
aI480
aasS'f6_24'
p1354
(lp1355
(lp1356
I28
aI3
aI498
aasS'f6_25'
p1357
(lp1358
(lp1359
I28
aI3
aI498
aasS'f6_26'
p1360
(lp1361
(lp1362
I28
aI1
aI500
aasS'f6_27'
p1363
(lp1364
(lp1365
I28
aI1
aI489
aasS'f6_20'
p1366
(lp1367
(lp1368
I28
aI1
aI497
aasS'f6_21'
p1369
(lp1370
(lp1371
I28
aI11
aI500
aasS'f6_22'
p1372
(lp1373
(lp1374
I66
aI242
aI387
aa(lp1375
I75
aI1
aI49
aasS'f6_23'
p1376
(lp1377
(lp1378
I75
aI1
aI54
aa(lp1379
I28
aI7
aI495
aasS'f6_28'
p1380
(lp1381
(lp1382
I28
aI1
aI496
aasS'f6_29'
p1383
(lp1384
(lp1385
I28
aI1
aI500
aasS'f1_25'
p1386
(lp1387
(lp1388
I5
aI41
aI493
aasS'f1_24'
p1389
(lp1390
(lp1391
I5
aI9
aI493
aasS'f1_27'
p1392
(lp1393
(lp1394
I5
aI4
aI500
aasS'f1_26'
p1395
(lp1396
(lp1397
I5
aI4
aI500
aasS'f14_19'
p1398
(lp1399
(lp1400
I12
aI34
aI500
aasS'f14_18'
p1401
(lp1402
(lp1403
I12
aI61
aI500
aasS'f1_23'
p1404
(lp1405
(lp1406
I5
aI57
aI500
aasS'f1_22'
p1407
(lp1408
(lp1409
I5
aI66
aI500
aasS'f14_15'
p1410
(lp1411
(lp1412
I12
aI31
aI499
aasS'f14_14'
p1413
(lp1414
(lp1415
I12
aI53
aI499
aasS'f14_17'
p1416
(lp1417
(lp1418
I12
aI14
aI500
aasS'f14_16'
p1419
(lp1420
(lp1421
I12
aI7
aI500
aasS'f14_11'
p1422
(lp1423
(lp1424
I12
aI53
aI500
aasS'f14_10'
p1425
(lp1426
(lp1427
I12
aI79
aI500
aasS'f14_13'
p1428
(lp1429
(lp1430
I12
aI1
aI498
aasS'f14_12'
p1431
(lp1432
(lp1433
I12
aI12
aI497
aasS'f0_12'
p1434
(lp1435
(lp1436
I5
aI1
aI484
aasS'ID_15_F1_12_F2_16_G_3_SplitPt_85_GenID_0'
p1437
(lp1438
(lp1439
I76
aI75
aI292
aa(lp1440
I77
aI1
aI97
aasS'f2_31'
p1441
(lp1442
(lp1443
I16
aI285
aI408
aa(lp1444
I11
aI3
aI100
aasS'f2_30'
p1445
(lp1446
(lp1447
I11
aI10
aI100
aa(lp1448
I14
aI174
aI500
aasS'ID_2_F1_11_F2_4_G_4_SplitPt_52_GenID_0'
p1449
(lp1450
(lp1451
I71
aI1
aI60
aa(lp1452
I7
aI24
aI500
aasS'ID_22_F1_13_F2_13_G_3_SplitPt_141_GenID_0'
p1453
(lp1454
(lp1455
I78
aI1
aI146
aasS'f0_11'
p1456
(lp1457
(lp1458
I5
aI49
aI497
aasS'f13_30'
p1459
(lp1460
(lp1461
I10
aI2
aI470
aasS'f13_31'
p1462
(lp1463
(lp1464
I10
aI41
aI499
aasS'f8_13'
p1465
(lp1466
(lp1467
I18
aI4
aI374
aasS'f8_12'
p1468
(lp1469
(lp1470
I79
aI1
aI91
aa(lp1471
I18
aI17
aI286
aasS'f8_11'
p1472
(lp1473
(lp1474
I18
aI12
aI497
aasS'ID_41_F1_5_F2_9_G_1_SplitPt_195_GenID_0'
p1475
(lp1476
(lp1477
I53
aI1
aI189
aa(lp1478
I2
aI166
aI491
aasS'f8_17'
p1479
(lp1480
(lp1481
I18
aI36
aI469
aasS'f8_16'
p1482
(lp1483
(lp1484
I18
aI3
aI405
aasS'f8_15'
p1485
(lp1486
(lp1487
I69
aI240
aI497
aasS'f8_14'
p1488
(lp1489
(lp1490
I18
aI17
aI333
aasS'f8_19'
p1491
(lp1492
(lp1493
I18
aI3
aI450
aasS'f8_18'
p1494
(lp1495
(lp1496
I18
aI19
aI401
aasS'f0_10'
p1497
(lp1498
(lp1499
I5
aI58
aI497
aasS'f0_17'
p1500
(lp1501
(lp1502
I5
aI201
aI500
aasS'f18_1'
p1503
(lp1504
(lp1505
I20
aI1
aI500
aasS'f18_0'
p1506
(lp1507
(lp1508
I20
aI1
aI450
aasS'f18_3'
p1509
(lp1510
(lp1511
I20
aI6
aI499
aasS'f18_2'
p1512
(lp1513
(lp1514
I20
aI1
aI489
aasS'f18_5'
p1515
(lp1516
(lp1517
I20
aI42
aI486
aasS'f18_4'
p1518
(lp1519
(lp1520
I20
aI13
aI489
aasS'f18_7'
p1521
(lp1522
(lp1523
I20
aI9
aI497
aasS'f18_6'
p1524
(lp1525
(lp1526
I20
aI180
aI500
aa(lp1527
I20
aI12
aI130
aasS'f18_9'
p1528
(lp1529
(lp1530
I20
aI1
aI496
aasS'f18_8'
p1531
(lp1532
(lp1533
I20
aI1
aI492
aasS'ID_61_F1_8_F2_11_G_1_SplitPt_157_GenID_0'
p1534
(lp1535
(lp1536
I18
aI2
aI155
aa(lp1537
I22
aI201
aI500
aasS'f1_20'
p1538
(lp1539
(lp1540
I5
aI51
aI500
aasS'ID_50_F1_8_F2_17_G_0_SplitPt_82_GenID_0'
p1541
(lp1542
(lp1543
I13
aI78
aI493
aasS'f0_16'
p1544
(lp1545
(lp1546
I5
aI2
aI500
aasS'ID_18_F1_6_F2_10_G_3_SplitPt_192_GenID_0'
p1547
(lp1548
(lp1549
I34
aI174
aI500
aa(lp1550
I28
aI1
aI235
aasS'f9_30'
p1551
(lp1552
(lp1553
I2
aI3
aI500
aasS'f9_31'
p1554
(lp1555
(lp1556
I2
aI6
aI500
aasS'f5_30'
p1557
(lp1558
(lp1559
I53
aI2
aI439
aasS'f5_31'
p1560
(lp1561
(lp1562
I53
aI4
aI432
aasS'f16_28'
p1563
(lp1564
(lp1565
I30
aI6
aI497
aasS'f16_29'
p1566
(lp1567
(lp1568
I30
aI17
aI500
aasS'f14_9'
p1569
(lp1570
(lp1571
I12
aI68
aI499
aasS'f14_8'
p1572
(lp1573
(lp1574
I12
aI71
aI499
aasS'f16_22'
p1575
(lp1576
(lp1577
I30
aI1
aI477
aasS'ID_63_F1_8_F2_8_G_2_SplitPt_152_GenID_0'
p1578
(lp1579
(lp1580
I79
aI1
aI91
aasS'f16_20'
p1581
(lp1582
(lp1583
I30
aI3
aI483
aasS'f16_21'
p1584
(lp1585
(lp1586
I30
aI3
aI497
aasS'f16_26'
p1587
(lp1588
(lp1589
I30
aI14
aI479
aasS'f16_27'
p1590
(lp1591
(lp1592
I30
aI3
aI485
aasS'f16_24'
p1593
(lp1594
(lp1595
I30
aI4
aI498
aasS'f16_25'
p1596
(lp1597
(lp1598
I30
aI1
aI500
aasS'f16_3'
p1599
(lp1600
(lp1601
I30
aI2
aI499
aasS'f16_2'
p1602
(lp1603
(lp1604
I30
aI31
aI496
aasS'f16_1'
p1605
(lp1606
(lp1607
I30
aI3
aI495
aasS'f16_0'
p1608
(lp1609
(lp1610
I30
aI6
aI499
aasS'f16_7'
p1611
(lp1612
(lp1613
I74
aI3
aI203
aasS'f16_6'
p1614
(lp1615
(lp1616
I74
aI3
aI203
aasS'f16_5'
p1617
(lp1618
(lp1619
I74
aI3
aI204
aa(lp1620
I30
aI21
aI495
aasS'f16_4'
p1621
(lp1622
(lp1623
I76
aI74
aI292
aa(lp1624
I80
aI19
aI111
aasS'f0_26'
p1625
(lp1626
(lp1627
I5
aI199
aI486
aasS'f0_27'
p1628
(lp1629
(lp1630
I5
aI49
aI500
aasS'f16_9'
p1631
(lp1632
(lp1633
I80
aI19
aI111
aasS'f16_8'
p1634
(lp1635
(lp1636
I74
aI3
aI204
aa(lp1637
I30
aI75
aI485
aasS'f0_22'
p1638
(lp1639
(lp1640
I5
aI9
aI485
aasS'f0_23'
p1641
(lp1642
(lp1643
I5
aI5
aI485
aasS'f0_20'
p1644
(lp1645
(lp1646
I5
aI201
aI500
aasS'f0_21'
p1647
(lp1648
(lp1649
I5
aI29
aI500
aasS'f17_21'
p1650
(lp1651
(lp1652
I13
aI44
aI495
aasS'f17_20'
p1653
(lp1654
(lp1655
I13
aI46
aI500
aasS'f17_23'
p1656
(lp1657
(lp1658
I68
aI168
aI316
aasS'f17_22'
p1659
(lp1660
(lp1661
I13
aI2
aI500
aasS'f17_25'
p1662
(lp1663
(lp1664
I13
aI2
aI500
aasS'f17_24'
p1665
(lp1666
(lp1667
I13
aI1
aI500
aasS'f17_27'
p1668
(lp1669
(lp1670
I13
aI1
aI500
aasS'f17_26'
p1671
(lp1672
(lp1673
I13
aI1
aI500
aasS'f17_29'
p1674
(lp1675
(lp1676
I13
aI1
aI495
aasS'f17_28'
p1677
(lp1678
(lp1679
I13
aI1
aI500
aasS'ID_25_F1_6_F2_14_G_2_SplitPt_158_GenID_0'
p1680
(lp1681
(lp1682
I12
aI158
aI500
aa(lp1683
I28
aI13
aI199
aasS'ID_7_F1_13_F2_14_G_4_SplitPt_109_GenID_0'
p1684
(lp1685
(lp1686
I32
aI127
aI245
aa(lp1687
I38
aI1
aI110
aasS'ID_55_F1_6_F2_1_G_1_SplitPt_247_GenID_0'
p1688
(lp1689
(lp1690
I28
aI1
aI261
aa(lp1691
I5
aI254
aI487
aasS'ID_28_F1_11_F2_2_G_2_SplitPt_158_GenID_0'
p1692
(lp1693
(lp1694
I81
aI322
aI454
aa(lp1695
I24
aI1
aI157
aasS'ID_58_F1_15_F2_14_G_2_SplitPt_81_GenID_0'
p1696
(lp1697
(lp1698
I12
aI55
aI500
aasS'ID_44_F1_6_F2_0_G_0_SplitPt_199_GenID_0'
p1699
(lp1700
(lp1701
I28
aI2
aI206
aa(lp1702
I5
aI209
aI500
aasS'f15_30'
p1703
(lp1704
(lp1705
I3
aI1
aI500
aasS'f10_8'
p1706
(lp1707
(lp1708
I61
aI2
aI149
aa(lp1709
I34
aI42
aI499
aasS'f10_1'
p1710
(lp1711
(lp1712
I34
aI252
aI499
aasS'f10_0'
p1713
(lp1714
(lp1715
I34
aI1
aI433
aasS'f10_3'
p1716
(lp1717
(lp1718
I36
aI392
aI496
aa(lp1719
I34
aI22
aI476
aasS'f10_2'
p1720
(lp1721
(lp1722
I34
aI32
aI496
aasS'f10_5'
p1723
(lp1724
(lp1725
I34
aI76
aI499
aasS'f10_4'
p1726
(lp1727
(lp1728
I34
aI163
aI499
aasS'f10_7'
p1729
(lp1730
(lp1731
I34
aI1
aI499
aasS'f4_17'
p1732
(lp1733
(lp1734
I7
aI1
aI486
aasS'f4_16'
p1735
(lp1736
(lp1737
I7
aI1
aI487
aasS'f4_15'
p1738
(lp1739
(lp1740
I7
aI16
aI416
aasS'f4_14'
p1741
(lp1742
(lp1743
I7
aI12
aI488
aasS'f4_13'
p1744
(lp1745
(lp1746
I7
aI34
aI428
aasS'f4_12'
p1747
(lp1748
(lp1749
I7
aI6
aI352
aasS'f12_9'
p1750
(lp1751
(lp1752
I6
aI1
aI498
aasS'f12_8'
p1753
(lp1754
(lp1755
I77
aI1
aI87
aasS'f12_7'
p1756
(lp1757
(lp1758
I6
aI6
aI500
aasS'f12_6'
p1759
(lp1760
(lp1761
I6
aI11
aI430
aasS'f12_5'
p1762
(lp1763
(lp1764
I6
aI6
aI450
aasS'f12_4'
p1765
(lp1766
(lp1767
I6
aI2
aI450
aasS'f12_3'
p1768
(lp1769
(lp1770
I6
aI10
aI462
aasS'f12_2'
p1771
(lp1772
(lp1773
I6
aI4
aI450
aasS'f12_1'
p1774
(lp1775
(lp1776
I6
aI1
aI500
aasS'f12_0'
p1777
(lp1778
(lp1779
I6
aI3
aI444
aasS'f3_27'
p1780
(lp1781
(lp1782
I8
aI5
aI252
aa(lp1783
I8
aI266
aI498
aasS'f3_26'
p1784
(lp1785
(lp1786
I8
aI5
aI498
aasS'f3_25'
p1787
(lp1788
(lp1789
I8
aI5
aI257
aasS'f3_24'
p1790
(lp1791
(lp1792
I8
aI1
aI500
aasS'f3_23'
p1793
(lp1794
(lp1795
I8
aI3
aI499
aasS'f3_22'
p1796
(lp1797
(lp1798
I8
aI1
aI500
aasS'f3_21'
p1799
(lp1800
(lp1801
I63
aI203
aI351
aasS'f3_20'
p1802
(lp1803
(lp1804
I8
aI8
aI498
aasS'f3_29'
p1805
(lp1806
(lp1807
I8
aI4
aI309
aasS'f3_28'
p1808
(lp1809
(lp1810
I8
aI59
aI500
aasS'f6_19'
p1811
(lp1812
(lp1813
I28
aI3
aI497
aasS'f6_18'
p1814
(lp1815
(lp1816
I28
aI3
aI500
aasS'f6_15'
p1817
(lp1818
(lp1819
I28
aI1
aI497
aasS'f6_14'
p1820
(lp1821
(lp1822
I28
aI1
aI486
aasS'f6_17'
p1823
(lp1824
(lp1825
I28
aI1
aI498
aasS'f6_16'
p1826
(lp1827
(lp1828
I28
aI2
aI500
aasS'f6_11'
p1829
(lp1830
(lp1831
I28
aI1
aI493
aasS'f6_10'
p1832
(lp1833
(lp1834
I28
aI1
aI495
aasS'f6_13'
p1835
(lp1836
(lp1837
I28
aI1
aI481
aasS'f6_12'
p1838
(lp1839
(lp1840
I28
aI1
aI488
aasS'f4_18'
p1841
(lp1842
(lp1843
I7
aI2
aI466
aasS'ID_32_F1_3_F2_2_G_4_SplitPt_249_GenID_0'
p1844
(lp1845
(lp1846
I14
aI246
aI500
aa(lp1847
I8
aI1
aI269
aasS'f1_21'
p1848
(lp1849
(lp1850
I5
aI10
aI499
aasS'f7_30'
p1851
(lp1852
(lp1853
I29
aI8
aI494
aasS'f7_31'
p1854
(lp1855
(lp1856
I29
aI2
aI498
aasS'f12_17'
p1857
(lp1858
(lp1859
I6
aI3
aI497
aasS'f12_16'
p1860
(lp1861
(lp1862
I6
aI32
aI490
aasS'f12_15'
p1863
(lp1864
(lp1865
I77
aI3
aI97
aa(lp1866
I6
aI6
aI472
aasS'f12_14'
p1867
(lp1868
(lp1869
I77
aI8
aI82
aasS'f12_13'
p1870
(lp1871
(lp1872
I6
aI3
aI500
aasS'f12_12'
p1873
(lp1874
(lp1875
I77
aI2
aI85
aa(lp1876
I6
aI3
aI493
aasS'f12_11'
p1877
(lp1878
(lp1879
I6
aI9
aI500
aasS'f12_10'
p1880
(lp1881
(lp1882
I82
aI177
aI269
aasS'f12_19'
p1883
(lp1884
(lp1885
I83
aI336
aI500
aasS'f12_18'
p1886
(lp1887
(lp1888
I6
aI31
aI500
aasS'f11_30'
p1889
(lp1890
(lp1891
I42
aI294
aI500
aasS'f11_31'
p1892
(lp1893
(lp1894
I22
aI7
aI500
aasS'ID_9_F1_6_F2_9_G_3_SplitPt_54_GenID_0'
p1895
(lp1896
(lp1897
I75
aI1
aI54
aa(lp1898
I2
aI48
aI500
aasS'f8_10'
p1899
(lp1900
(lp1901
I18
aI6
aI499
aasS'f3_6'
p1902
(lp1903
(lp1904
I8
aI1
aI500
aasS'f16_10'
p1905
(lp1906
(lp1907
I30
aI3
aI495
aasS'ID_30_F1_19_F2_4_G_3_SplitPt_132_GenID_0'
p1908
(lp1909
(lp1910
I1
aI1
aI138
aa(lp1911
I7
aI122
aI499
aasS'f0_18'
p1912
(lp1913
(lp1914
I5
aI49
aI500
aasS'f18_19'
p1915
(lp1916
(lp1917
I20
aI30
aI459
aasS'f18_18'
p1918
(lp1919
(lp1920
I20
aI50
aI498
aasS'ID_46_F1_3_F2_10_G_4_SplitPt_122_GenID_0'
p1921
(lp1922
(lp1923
I34
aI73
aI500
aa(lp1924
I8
aI1
aI162
aasS'f18_11'
p1925
(lp1926
(lp1927
I20
aI1
aI488
aasS'f18_10'
p1928
(lp1929
(lp1930
I20
aI1
aI497
aasS'f18_13'
p1931
(lp1932
(lp1933
I20
aI1
aI487
aasS'f18_12'
p1934
(lp1935
(lp1936
I20
aI1
aI500
aasS'f18_15'
p1937
(lp1938
(lp1939
I41
aI357
aI500
aasS'f18_14'
p1940
(lp1941
(lp1942
I20
aI1
aI500
aasS'f18_17'
p1943
(lp1944
(lp1945
I20
aI11
aI500
aasS'f18_16'
p1946
(lp1947
(lp1948
I65
aI53
aI147
aasS'f19_0'
p1949
(lp1950
(lp1951
I1
aI16
aI500
aasS'f7_7'
p1952
(lp1953
(lp1954
I29
aI3
aI469
aasS'f3_13'
p1955
(lp1956
(lp1957
I8
aI5
aI500
aasS'f7_0'
p1958
(lp1959
(lp1960
I29
aI6
aI484
aasS'f19_2'
p1961
(lp1962
(lp1963
I1
aI2
aI499
aasS'f0_13'
p1964
(lp1965
(lp1966
I5
aI1
aI499
aasS'ID_5_F1_13_F2_7_G_1_SplitPt_210_GenID_0'
p1967
(lp1968
(lp1969
I70
aI219
aI323
aa(lp1970
I40
aI1
aI241
aasS'f14_29'
p1971
(lp1972
(lp1973
I12
aI1
aI500
aasS'f3_11'
p1974
(lp1975
(lp1976
I8
aI3
aI497
aasS'f1_30'
p1977
(lp1978
(lp1979
I5
aI2
aI498
aasS'f1_31'
p1980
(lp1981
(lp1982
I5
aI4
aI498
aasS'f14_20'
p1983
(lp1984
(lp1985
I12
aI60
aI500
aasS'f19_4'
p1986
(lp1987
(lp1988
I1
aI25
aI500
aasS'f14_22'
p1989
(lp1990
(lp1991
I12
aI3
aI494
aasS'f14_23'
p1992
(lp1993
(lp1994
I12
aI1
aI500
aasS'f14_24'
p1995
(lp1996
(lp1997
I31
aI153
aI288
aasS'f19_31'
p1998
(lp1999
(lp2000
I1
aI3
aI499
aasS'f14_26'
p2001
(lp2002
(lp2003
I12
aI1
aI496
aasS'ID_57_F1_2_F2_9_G_4_SplitPt_103_GenID_0'
p2004
(lp2005
(lp2006
I11
aI1
aI103
aa(lp2007
I2
aI65
aI500
aasS'f10_11'
p2008
(lp2009
(lp2010
I34
aI163
aI499
aasS'f10_10'
p2011
(lp2012
(lp2013
I34
aI42
aI499
aasS'f10_13'
p2014
(lp2015
(lp2016
I61
aI37
aI151
aasS'f10_12'
p2017
(lp2018
(lp2019
I61
aI37
aI212
aasS'f10_15'
p2020
(lp2021
(lp2022
I35
aI372
aI472
aa(lp2023
I34
aI23
aI469
aasS'f10_14'
p2024
(lp2025
(lp2026
I34
aI89
aI499
aasS'f10_17'
p2027
(lp2028
(lp2029
I34
aI128
aI487
aasS'f10_16'
p2030
(lp2031
(lp2032
I34
aI3
aI496
aasS'f10_19'
p2033
(lp2034
(lp2035
I34
aI4
aI500
aasS'f10_18'
p2036
(lp2037
(lp2038
I34
aI103
aI487
aasS'f2_22'
p2039
(lp2040
(lp2041
I15
aI9
aI194
aa(lp2042
I14
aI17
aI500
aasS'f2_23'
p2043
(lp2044
(lp2045
I15
aI9
aI194
aasS'f2_24'
p2046
(lp2047
(lp2048
I11
aI2
aI104
aa(lp2049
I14
aI19
aI500
aasS'f2_25'
p2050
(lp2051
(lp2052
I11
aI2
aI104
aa(lp2053
I14
aI26
aI500
aasS'f2_26'
p2054
(lp2055
(lp2056
I81
aI322
aI454
aa(lp2057
I11
aI1
aI102
aasS'f2_27'
p2058
(lp2059
(lp2060
I14
aI1
aI500
aasS'f13_25'
p2061
(lp2062
(lp2063
I72
aI308
aI413
aa(lp2064
I78
aI1
aI146
aasS'f13_24'
p2065
(lp2066
(lp2067
I39
aI325
aI430
aasS'f13_27'
p2068
(lp2069
(lp2070
I78
aI3
aI144
aasS'f13_26'
p2071
(lp2072
(lp2073
I78
aI36
aI138
aasS'f13_21'
p2074
(lp2075
(lp2076
I10
aI3
aI495
aasS'f13_20'
p2077
(lp2078
(lp2079
I78
aI3
aI132
aa(lp2080
I10
aI9
aI499
aasS'f13_23'
p2081
(lp2082
(lp2083
I10
aI2
aI500
aasS'f13_22'
p2084
(lp2085
(lp2086
I10
aI3
aI500
aasS'f13_29'
p2087
(lp2088
(lp2089
I10
aI185
aI423
aasS'f3_7'
p2090
(lp2091
(lp2092
I8
aI1
aI495
aasS'f14_4'
p2093
(lp2094
(lp2095
I12
aI141
aI498
aasS'ID_23_F1_18_F2_7_G_4_SplitPt_181_GenID_0'
p2096
(lp2097
(lp2098
I29
aI182
aI500
aa(lp2099
I20
aI1
aI202
aasS'f11_3'
p2100
(lp2101
(lp2102
I22
aI4
aI500
aasS'ID_8_F1_6_F2_1_G_1_SplitPt_169_GenID_0'
p2103
(lp2104
(lp2105
I28
aI1
aI170
aa(lp2106
I5
aI48
aI500
aasS'ID_42_F1_12_F2_0_G_1_SplitPt_178_GenID_0'
p2107
(lp2108
(lp2109
I6
aI27
aI172
aa(lp2110
I5
aI174
aI499
aasS'ID_36_F1_16_F2_5_G_2_SplitPt_214_GenID_0'
p2111
(lp2112
(lp2113
I60
aI218
aI323
aasS'f16_31'
p2114
(lp2115
(lp2116
I30
aI4
aI492
aasS'f16_30'
p2117
(lp2118
(lp2119
I30
aI1
aI480
aasS'f19_10'
p2120
(lp2121
(lp2122
I1
aI1
aI498
aasS'ID_16_F1_10_F2_1_G_1_SplitPt_198_GenID_0'
p2123
(lp2124
(lp2125
I61
aI2
aI212
aa(lp2126
I5
aI167
aI497
aasS'f0_19'
p2127
(lp2128
(lp2129
I5
aI108
aI500
aasS'f19_11'
p2130
(lp2131
(lp2132
I1
aI4
aI458
aasS'f12_28'
p2133
(lp2134
(lp2135
I6
aI1
aI500
aasS'f12_29'
p2136
(lp2137
(lp2138
I82
aI177
aI269
aasS'f12_26'
p2139
(lp2140
(lp2141
I83
aI336
aI500
aasS'f12_27'
p2142
(lp2143
(lp2144
I6
aI35
aI500
aasS'f12_24'
p2145
(lp2146
(lp2147
I6
aI1
aI475
aasS'f12_25'
p2148
(lp2149
(lp2150
I84
aI28
aI147
aasS'f12_22'
p2151
(lp2152
(lp2153
I6
aI3
aI500
aasS'f12_23'
p2154
(lp2155
(lp2156
I6
aI28
aI500
aasS'f12_20'
p2157
(lp2158
(lp2159
I6
aI2
aI500
aasS'f12_21'
p2160
(lp2161
(lp2162
I84
aI28
aI147
aasS'f17_18'
p2163
(lp2164
(lp2165
I13
aI46
aI498
aasS'f17_19'
p2166
(lp2167
(lp2168
I13
aI15
aI500
aasS'f17_14'
p2169
(lp2170
(lp2171
I13
aI61
aI494
aasS'f17_15'
p2172
(lp2173
(lp2174
I13
aI53
aI500
aasS'f17_16'
p2175
(lp2176
(lp2177
I13
aI70
aI499
aasS'f17_17'
p2178
(lp2179
(lp2180
I13
aI49
aI495
aasS'f17_10'
p2181
(lp2182
(lp2183
I64
aI1
aI101
aa(lp2184
I13
aI17
aI497
aasS'f17_11'
p2185
(lp2186
(lp2187
I64
aI3
aI104
aa(lp2188
I13
aI53
aI500
aasS'f17_12'
p2189
(lp2190
(lp2191
I13
aI1
aI487
aasS'f17_13'
p2192
(lp2193
(lp2194
I13
aI91
aI500
aasS'f19_18'
p2195
(lp2196
(lp2197
I1
aI3
aI496
aas.