(dp1
S'f19_19'
p2
(lp3
(lp4
I1
aI43
aI494
aasS'ID_65_F1_17_F2_15_G_3_SplitPt_57_GenID_0'
p5
(lp6
(lp7
I2
aI1
aI56
aa(lp8
I3
aI12
aI497
aasS'ID_19_F1_6_F2_6_G_3_SplitPt_136_GenID_0'
p9
(lp10
(lp11
I4
aI1
aI498
aasS'f12_26'
p12
(lp13
(lp14
I5
aI4
aI420
aasS'f15_29'
p15
(lp16
(lp17
I6
aI79
aI499
aasS'f15_28'
p18
(lp19
(lp20
I6
aI1
aI500
aasS'f15_27'
p21
(lp22
(lp23
I7
aI344
aI417
aasS'f15_26'
p24
(lp25
(lp26
I6
aI37
aI500
aasS'ID_103_F1_5_F2_10_G_2_SplitPt_83_GenID_0'
p27
(lp28
(lp29
I8
aI1
aI82
aa(lp30
I9
aI66
aI500
aasS'f15_24'
p31
(lp32
(lp33
I6
aI24
aI430
aasS'f15_23'
p34
(lp35
(lp36
I6
aI3
aI476
aasS'f15_22'
p37
(lp38
(lp39
I6
aI6
aI495
aasS'f15_21'
p40
(lp41
(lp42
I10
aI1
aI111
aa(lp43
I6
aI196
aI500
aasS'f15_20'
p44
(lp45
(lp46
I6
aI198
aI500
aasS'f3_30'
p47
(lp48
(lp49
I11
aI2
aI81
aa(lp50
I12
aI69
aI499
aasS'f3_31'
p51
(lp52
(lp53
I13
aI1
aI160
aa(lp54
I12
aI97
aI492
aasS'f8_20'
p55
(lp56
(lp57
I14
aI85
aI499
aasS'f15_14'
p58
(lp59
(lp60
I7
aI347
aI417
aasS'f9_17'
p61
(lp62
(lp63
I15
aI42
aI500
aasS'f15_15'
p64
(lp65
(lp66
I3
aI69
aI500
aasS'f15_12'
p67
(lp68
(lp69
I3
aI3
aI499
aasS'ID_27_F1_3_F2_1_G_3_SplitPt_80_GenID_0'
p70
(lp71
(lp72
I11
aI2
aI81
aa(lp73
I16
aI81
aI496
aasS'f17_8'
p74
(lp75
(lp76
I17
aI21
aI175
aa(lp77
I18
aI2
aI96
aa(lp78
I19
aI26
aI493
aasS'f2_11'
p79
(lp80
(lp81
I20
aI1
aI500
aasS'f2_10'
p82
(lp83
(lp84
I20
aI6
aI478
aasS'f2_13'
p85
(lp86
(lp87
I21
aI1
aI122
aa(lp88
I20
aI2
aI482
aasS'f2_12'
p89
(lp90
(lp91
I21
aI8
aI111
aasS'f2_15'
p92
(lp93
(lp94
I22
aI77
aI217
aasS'f2_14'
p95
(lp96
(lp97
I20
aI1
aI500
aasS'f2_17'
p98
(lp99
(lp100
I20
aI55
aI500
aasS'f2_16'
p101
(lp102
(lp103
I20
aI10
aI500
aasS'f2_19'
p104
(lp105
(lp106
I20
aI86
aI499
aasS'f2_18'
p107
(lp108
(lp109
I20
aI97
aI497
aasS'f12_22'
p110
(lp111
(lp112
I5
aI1
aI455
aasS'f15_18'
p113
(lp114
(lp115
I6
aI3
aI480
aasS'f15_19'
p116
(lp117
(lp118
I10
aI2
aI108
aa(lp119
I6
aI41
aI459
aasS'f4_9'
p120
(lp121
(lp122
I23
aI29
aI494
aasS'ID_127_F1_5_F2_4_G_3_SplitPt_150_GenID_0'
p123
(lp124
(lp125
I24
aI5
aI165
aa(lp126
I23
aI150
aI500
aasS'f8_31'
p127
(lp128
(lp129
I25
aI357
aI499
aasS'f8_30'
p130
(lp131
(lp132
I14
aI49
aI495
aasS'f12_23'
p133
(lp134
(lp135
I5
aI64
aI498
aasS'ID_59_F1_2_F2_6_G_1_SplitPt_82_GenID_0'
p136
(lp137
(lp138
I4
aI89
aI492
aasS'f17_4'
p139
(lp140
(lp141
I19
aI103
aI499
aasS'f12_20'
p142
(lp143
(lp144
I5
aI1
aI455
aasS'ID_109_F1_11_F2_11_G_4_SplitPt_64_GenID_0'
p145
(lp146
(lp147
I26
aI167
aI322
aasS'f19_1'
p148
(lp149
(lp150
I1
aI25
aI500
aasS'f11_23'
p151
(lp152
(lp153
I27
aI15
aI461
aasS'f11_22'
p154
(lp155
(lp156
I27
aI28
aI494
aasS'f11_21'
p157
(lp158
(lp159
I27
aI179
aI498
aasS'f11_20'
p160
(lp161
(lp162
I27
aI54
aI498
aasS'f11_27'
p163
(lp164
(lp165
I28
aI1
aI70
aasS'f11_26'
p166
(lp167
(lp168
I28
aI1
aI64
aa(lp169
I27
aI49
aI497
aasS'f11_25'
p170
(lp171
(lp172
I27
aI46
aI500
aasS'f11_24'
p173
(lp174
(lp175
I27
aI192
aI500
aasS'f11_29'
p176
(lp177
(lp178
I29
aI1
aI158
aa(lp179
I27
aI49
aI497
aasS'f11_28'
p180
(lp181
(lp182
I29
aI1
aI177
aa(lp183
I27
aI50
aI494
aasS'f15_25'
p184
(lp185
(lp186
I6
aI79
aI499
aasS'ID_41_F1_15_F2_17_G_4_SplitPt_105_GenID_0'
p187
(lp188
(lp189
I10
aI1
aI111
aa(lp190
I19
aI105
aI500
aasS'f19_31'
p191
(lp192
(lp193
I1
aI142
aI500
aasS'f4_31'
p194
(lp195
(lp196
I30
aI1
aI138
aa(lp197
I23
aI7
aI424
aasS'ID_119_F1_11_F2_0_G_4_SplitPt_87_GenID_0'
p198
(lp199
(lp200
I31
aI1
aI88
aa(lp201
I32
aI88
aI499
aasS'f15_9'
p202
(lp203
(lp204
I3
aI12
aI497
aasS'ID_80_F1_0_F2_17_G_3_SplitPt_221_GenID_0'
p205
(lp206
(lp207
I33
aI3
aI254
aa(lp208
I19
aI220
aI500
aasS'f7_23'
p209
(lp210
(lp211
I34
aI2
aI490
aasS'f7_22'
p212
(lp213
(lp214
I34
aI32
aI495
aasS'ID_83_F1_10_F2_15_G_2_SplitPt_73_GenID_0'
p215
(lp216
(lp217
I3
aI66
aI499
aasS'f8_5'
p218
(lp219
(lp220
I14
aI33
aI495
aasS'ID_36_F1_12_F2_2_G_4_SplitPt_57_GenID_0'
p221
(lp222
(lp223
I5
aI1
aI107
aa(lp224
I20
aI49
aI500
aasS'f16_22'
p225
(lp226
(lp227
I35
aI4
aI500
aasS'f8_4'
p228
(lp229
(lp230
I14
aI2
aI497
aasS'f16_23'
p231
(lp232
(lp233
I35
aI1
aI500
aasS'f8_3'
p234
(lp235
(lp236
I14
aI80
aI500
aasS'f16_20'
p237
(lp238
(lp239
I35
aI7
aI387
aasS'f7_26'
p240
(lp241
(lp242
I36
aI1
aI191
aa(lp243
I34
aI43
aI497
aasS'f8_26'
p244
(lp245
(lp246
I14
aI50
aI498
aasS'f16_21'
p247
(lp248
(lp249
I35
aI14
aI443
aasS'f8_1'
p250
(lp251
(lp252
I14
aI59
aI493
aasS'f3_1'
p253
(lp254
(lp255
I37
aI10
aI474
aasS'f16_26'
p256
(lp257
(lp258
I35
aI1
aI431
aasS'f19_5'
p259
(lp260
(lp261
I1
aI1
aI500
aasS'f8_0'
p262
(lp263
(lp264
I14
aI2
aI447
aasS'f8_24'
p265
(lp266
(lp267
I14
aI110
aI499
aasS'f14_0'
p268
(lp269
(lp270
I38
aI1
aI498
aasS'f8_25'
p271
(lp272
(lp273
I14
aI157
aI500
aasS'f16_24'
p274
(lp275
(lp276
I35
aI6
aI451
aasS'f14_31'
p277
(lp278
(lp279
I39
aI1
aI467
aasS'f14_30'
p280
(lp281
(lp282
I40
aI385
aI498
aasS'f8_22'
p283
(lp284
(lp285
I14
aI98
aI499
aasS'ID_117_F1_19_F2_1_G_3_SplitPt_66_GenID_0'
p286
(lp287
(lp288
I41
aI3
aI64
aa(lp289
I16
aI54
aI500
aasS'f14_2'
p290
(lp291
(lp292
I42
aI1
aI137
aasS'ID_95_F1_4_F2_0_G_3_SplitPt_138_GenID_0'
p293
(lp294
(lp295
I30
aI1
aI138
aa(lp296
I32
aI105
aI500
aasS'f15_16'
p297
(lp298
(lp299
I10
aI4
aI106
aasS'f15_17'
p300
(lp301
(lp302
I10
aI1
aI106
aa(lp303
I6
aI3
aI500
aasS'f19_29'
p304
(lp305
(lp306
I43
aI13
aI264
aa(lp307
I1
aI140
aI500
aasS'f19_28'
p308
(lp309
(lp310
I44
aI20
aI142
aasS'ID_116_F1_2_F2_3_G_3_SplitPt_111_GenID_0'
p311
(lp312
(lp313
I21
aI1
aI115
aa(lp314
I37
aI112
aI498
aasS'f15_13'
p315
(lp316
(lp317
I3
aI45
aI499
aasS'f15_10'
p318
(lp319
(lp320
I45
aI158
aI308
aasS'f15_11'
p321
(lp322
(lp323
I3
aI13
aI500
aasS'f19_6'
p324
(lp325
(lp326
I1
aI29
aI500
aasS'f19_22'
p327
(lp328
(lp329
I1
aI39
aI496
aasS'f19_21'
p330
(lp331
(lp332
I1
aI1
aI499
aasS'f19_20'
p333
(lp334
(lp335
I46
aI6
aI150
aa(lp336
I43
aI75
aI254
aasS'f19_27'
p337
(lp338
(lp339
I44
aI4
aI129
aa(lp340
I43
aI9
aI277
aa(lp341
I1
aI47
aI500
aasS'f19_26'
p342
(lp343
(lp344
I47
aI108
aI193
aa(lp345
I44
aI1
aI162
aa(lp346
I1
aI144
aI500
aasS'f19_25'
p347
(lp348
(lp349
I44
aI1
aI142
aa(lp350
I43
aI21
aI259
aa(lp351
I1
aI145
aI500
aasS'f19_24'
p352
(lp353
(lp354
I44
aI1
aI142
aa(lp355
I43
aI18
aI247
aa(lp356
I1
aI151
aI500
aasS'f10_28'
p357
(lp358
(lp359
I48
aI52
aI499
aasS'f10_29'
p360
(lp361
(lp362
I48
aI30
aI498
aasS'f10_24'
p363
(lp364
(lp365
I48
aI1
aI499
aasS'f10_25'
p366
(lp367
(lp368
I48
aI30
aI478
aasS'f10_26'
p369
(lp370
(lp371
I49
aI328
aI499
aasS'f10_27'
p372
(lp373
(lp374
I48
aI52
aI499
aasS'f10_20'
p375
(lp376
(lp377
I50
aI1
aI271
aasS'f10_21'
p378
(lp379
(lp380
I50
aI1
aI227
aa(lp381
I48
aI72
aI500
aasS'f10_22'
p382
(lp383
(lp384
I48
aI40
aI497
aasS'f10_23'
p385
(lp386
(lp387
I48
aI54
aI499
aasS'ID_77_F1_3_F2_4_G_3_SplitPt_152_GenID_0'
p388
(lp389
(lp390
I37
aI4
aI183
aa(lp391
I23
aI127
aI500
aasS'f19_7'
p392
(lp393
(lp394
I1
aI57
aI500
aasS'f0_29'
p395
(lp396
(lp397
I32
aI73
aI500
aasS'f13_10'
p398
(lp399
(lp400
I51
aI135
aI218
aasS'f13_11'
p401
(lp402
(lp403
I52
aI1
aI499
aasS'f13_12'
p404
(lp405
(lp406
I52
aI44
aI499
aasS'f13_13'
p407
(lp408
(lp409
I52
aI10
aI493
aasS'f13_14'
p410
(lp411
(lp412
I53
aI263
aI500
aa(lp413
I54
aI1
aI70
aasS'f13_15'
p414
(lp415
(lp416
I54
aI1
aI76
aasS'f13_16'
p417
(lp418
(lp419
I52
aI1
aI498
aasS'f13_17'
p420
(lp421
(lp422
I52
aI1
aI498
aasS'f13_18'
p423
(lp424
(lp425
I55
aI30
aI150
aasS'f13_19'
p426
(lp427
(lp428
I55
aI9
aI189
aasS'ID_107_F1_17_F2_4_G_4_SplitPt_51_GenID_0'
p429
(lp430
(lp431
I56
aI1
aI66
aa(lp432
I23
aI20
aI500
aasS'f16_9'
p433
(lp434
(lp435
I57
aI1
aI165
aa(lp436
I58
aI163
aI500
aasS'f16_8'
p437
(lp438
(lp439
I57
aI1
aI165
aa(lp440
I58
aI160
aI500
aasS'f18_24'
p441
(lp442
(lp443
I59
aI5
aI284
aasS'f18_25'
p444
(lp445
(lp446
I60
aI315
aI489
aasS'f18_26'
p447
(lp448
(lp449
I61
aI2
aI500
aasS'f18_27'
p450
(lp451
(lp452
I62
aI109
aI298
aasS'f18_20'
p453
(lp454
(lp455
I63
aI116
aI500
aasS'f18_21'
p456
(lp457
(lp458
I63
aI119
aI500
aasS'f18_22'
p459
(lp460
(lp461
I64
aI7
aI435
aa(lp462
I63
aI211
aI438
aasS'f18_23'
p463
(lp464
(lp465
I63
aI179
aI500
aasS'f18_28'
p466
(lp467
(lp468
I61
aI2
aI497
aasS'f18_29'
p469
(lp470
(lp471
I62
aI109
aI298
aa(lp472
I61
aI110
aI495
aasS'f11_18'
p473
(lp474
(lp475
I27
aI54
aI498
aasS'f11_19'
p476
(lp477
(lp478
I27
aI1
aI500
aasS'f11_12'
p479
(lp480
(lp481
I65
aI9
aI497
aasS'f11_13'
p482
(lp483
(lp484
I66
aI1
aI212
aa(lp485
I65
aI33
aI478
aasS'f11_10'
p486
(lp487
(lp488
I65
aI33
aI500
aasS'f11_11'
p489
(lp490
(lp491
I67
aI152
aI274
aasS'f11_16'
p492
(lp493
(lp494
I27
aI31
aI461
aasS'f11_17'
p495
(lp496
(lp497
I27
aI19
aI500
aasS'f11_14'
p498
(lp499
(lp500
I68
aI162
aI217
aa(lp501
I31
aI1
aI88
aasS'f11_15'
p502
(lp503
(lp504
I31
aI2
aI86
aa(lp505
I65
aI24
aI500
aasS'f9_14'
p506
(lp507
(lp508
I15
aI50
aI500
aasS'f9_15'
p509
(lp510
(lp511
I15
aI48
aI500
aasS'f9_16'
p512
(lp513
(lp514
I15
aI59
aI499
aasS'ID_14_F1_11_F2_6_G_3_SplitPt_125_GenID_0'
p515
(lp516
(lp517
I69
aI2
aI125
aa(lp518
I4
aI113
aI500
aasS'f9_10'
p519
(lp520
(lp521
I15
aI46
aI490
aasS'f9_11'
p522
(lp523
(lp524
I15
aI48
aI499
aasS'f9_12'
p525
(lp526
(lp527
I15
aI59
aI500
aasS'f9_13'
p528
(lp529
(lp530
I15
aI66
aI500
aasS'f9_18'
p531
(lp532
(lp533
I15
aI43
aI494
aasS'f9_19'
p534
(lp535
(lp536
I15
aI16
aI475
aasS'ID_94_F1_9_F2_3_G_3_SplitPt_86_GenID_0'
p537
(lp538
(lp539
I70
aI2
aI90
aa(lp540
I37
aI70
aI500
aasS'ID_55_F1_8_F2_14_G_2_SplitPt_176_GenID_0'
p541
(lp542
(lp543
I38
aI177
aI499
aasS'f5_18'
p544
(lp545
(lp546
I71
aI44
aI493
aa(lp547
I72
aI1
aI174
aasS'f5_19'
p548
(lp549
(lp550
I73
aI23
aI498
aa(lp551
I72
aI1
aI173
aasS'f7_14'
p552
(lp553
(lp554
I74
aI180
aI498
aasS'f7_15'
p555
(lp556
(lp557
I34
aI46
aI273
aasS'f7_12'
p558
(lp559
(lp560
I74
aI175
aI489
aasS'f7_13'
p561
(lp562
(lp563
I74
aI156
aI489
aasS'f7_10'
p564
(lp565
(lp566
I74
aI287
aI489
aasS'f7_11'
p567
(lp568
(lp569
I74
aI179
aI489
aasS'f5_10'
p570
(lp571
(lp572
I24
aI1
aI173
aasS'f5_11'
p573
(lp574
(lp575
I24
aI1
aI168
aa(lp576
I75
aI63
aI382
aasS'f5_12'
p577
(lp578
(lp579
I76
aI60
aI162
aasS'f5_13'
p580
(lp581
(lp582
I75
aI10
aI455
aasS'f5_14'
p583
(lp584
(lp585
I75
aI5
aI468
aasS'f5_15'
p586
(lp587
(lp588
I75
aI31
aI469
aasS'f5_16'
p589
(lp590
(lp591
I73
aI248
aI464
aasS'f5_17'
p592
(lp593
(lp594
I77
aI3
aI430
aasS'f11_8'
p595
(lp596
(lp597
I65
aI9
aI500
aasS'ID_11_F1_11_F2_2_G_1_SplitPt_162_GenID_0'
p598
(lp599
(lp600
I78
aI3
aI173
aasS'f12_31'
p601
(lp602
(lp603
I5
aI14
aI475
aasS'f12_30'
p604
(lp605
(lp606
I5
aI4
aI450
aasS'ID_74_F1_6_F2_1_G_1_SplitPt_119_GenID_0'
p607
(lp608
(lp609
I16
aI123
aI499
aasS'f3_16'
p610
(lp611
(lp612
I12
aI123
aI500
aasS'f9_7'
p613
(lp614
(lp615
I15
aI61
aI498
aasS'ID_81_F1_4_F2_19_G_3_SplitPt_79_GenID_0'
p616
(lp617
(lp618
I30
aI1
aI97
aa(lp619
I1
aI81
aI497
aasS'f2_9'
p620
(lp621
(lp622
I20
aI29
aI500
aasS'ID_22_F1_1_F2_10_G_1_SplitPt_229_GenID_0'
p623
(lp624
(lp625
I48
aI243
aI500
aasS'ID_78_F1_10_F2_10_G_3_SplitPt_154_GenID_0'
p626
(lp627
(lp628
I79
aI1
aI189
aa(lp629
I48
aI116
aI500
aasS'ID_101_F1_12_F2_17_G_2_SplitPt_118_GenID_0'
p630
(lp631
(lp632
I19
aI101
aI443
aasS'f16_25'
p633
(lp634
(lp635
I58
aI119
aI500
aasS'f7_4'
p636
(lp637
(lp638
I80
aI7
aI75
aa(lp639
I74
aI239
aI498
aasS'f7_5'
p640
(lp641
(lp642
I81
aI28
aI138
aa(lp643
I80
aI3
aI75
aa(lp644
I74
aI29
aI500
aasS'f7_7'
p645
(lp646
(lp647
I82
aI401
aI500
aasS'f7_0'
p648
(lp649
(lp650
I82
aI401
aI500
aasS'f7_1'
p651
(lp652
(lp653
I74
aI275
aI465
aasS'f7_2'
p654
(lp655
(lp656
I83
aI385
aI491
aasS'ID_32_F1_3_F2_7_G_1_SplitPt_175_GenID_0'
p657
(lp658
(lp659
I83
aI382
aI492
aasS'f7_8'
p660
(lp661
(lp662
I84
aI24
aI202
aa(lp663
I74
aI29
aI478
aasS'f7_9'
p664
(lp665
(lp666
I85
aI153
aI264
aasS'f13_8'
p667
(lp668
(lp669
I52
aI11
aI500
aasS'f13_9'
p670
(lp671
(lp672
I52
aI8
aI499
aasS'f19_12'
p673
(lp674
(lp675
I86
aI15
aI273
aa(lp676
I1
aI58
aI500
aasS'ID_89_F1_13_F2_17_G_3_SplitPt_249_GenID_0'
p677
(lp678
(lp679
I19
aI215
aI498
aa(lp680
I52
aI1
aI249
aasS'f5_8'
p681
(lp682
(lp683
I24
aI1
aI146
aa(lp684
I75
aI35
aI469
aasS'f5_9'
p685
(lp686
(lp687
I24
aI2
aI145
aa(lp688
I75
aI34
aI455
aasS'f19_16'
p689
(lp690
(lp691
I46
aI6
aI150
aa(lp692
I1
aI11
aI495
aasS'f19_17'
p693
(lp694
(lp695
I47
aI103
aI193
aasS'f19_14'
p696
(lp697
(lp698
I87
aI326
aI457
aasS'f19_15'
p699
(lp700
(lp701
I1
aI75
aI484
aasS'f5_2'
p702
(lp703
(lp704
I75
aI45
aI498
aasS'f5_3'
p705
(lp706
(lp707
I75
aI38
aI489
aasS'f5_0'
p708
(lp709
(lp710
I75
aI4
aI478
aasS'f5_1'
p711
(lp712
(lp713
I75
aI13
aI454
aasS'f5_6'
p714
(lp715
(lp716
I76
aI62
aI163
aa(lp717
I88
aI3
aI142
aasS'f5_7'
p718
(lp719
(lp720
I88
aI7
aI140
aasS'f5_4'
p721
(lp722
(lp723
I89
aI196
aI341
aasS'f5_5'
p724
(lp725
(lp726
I75
aI22
aI489
aasS'f15_2'
p727
(lp728
(lp729
I3
aI3
aI470
aasS'f15_3'
p730
(lp731
(lp732
I3
aI3
aI475
aasS'ID_106_F1_12_F2_18_G_2_SplitPt_139_GenID_0'
p733
(lp734
(lp735
I90
aI1
aI151
aa(lp736
I91
aI119
aI494
aasS'f3_0'
p737
(lp738
(lp739
I37
aI75
aI497
aasS'f8_27'
p740
(lp741
(lp742
I92
aI365
aI499
aasS'f3_2'
p743
(lp744
(lp745
I37
aI45
aI500
aasS'f3_3'
p746
(lp747
(lp748
I37
aI3
aI494
aasS'f3_4'
p749
(lp750
(lp751
I37
aI1
aI497
aasS'f1_21'
p752
(lp753
(lp754
I16
aI4
aI380
aasS'f3_6'
p755
(lp756
(lp757
I37
aI1
aI500
aasS'f3_7'
p758
(lp759
(lp760
I37
aI1
aI452
aasS'f3_8'
p761
(lp762
(lp763
I37
aI11
aI499
aasS'f3_9'
p764
(lp765
(lp766
I37
aI1
aI499
aasS'ID_8_F1_4_F2_1_G_0_SplitPt_223_GenID_0'
p767
(lp768
(lp769
I93
aI292
aI430
aasS'f8_28'
p770
(lp771
(lp772
I94
aI130
aI317
aasS'f8_29'
p773
(lp774
(lp775
I95
aI172
aI350
aasS'f1_6'
p776
(lp777
(lp778
I16
aI49
aI496
aasS'f1_7'
p779
(lp780
(lp781
I16
aI2
aI494
aasS'f1_4'
p782
(lp783
(lp784
I16
aI39
aI490
aasS'f1_5'
p785
(lp786
(lp787
I16
aI39
aI486
aasS'f1_2'
p788
(lp789
(lp790
I16
aI32
aI495
aasS'f1_3'
p791
(lp792
(lp793
I16
aI2
aI495
aasS'f1_0'
p794
(lp795
(lp796
I16
aI39
aI500
aasS'f1_1'
p797
(lp798
(lp799
I16
aI65
aI499
aasS'ID_5_F1_2_F2_14_G_3_SplitPt_108_GenID_0'
p800
(lp801
(lp802
I96
aI2
aI127
aa(lp803
I38
aI110
aI499
aasS'f1_8'
p804
(lp805
(lp806
I16
aI29
aI490
aasS'f1_9'
p807
(lp808
(lp809
I16
aI42
aI500
aasS'ID_68_F1_1_F2_13_G_1_SplitPt_69_GenID_0'
p810
(lp811
(lp812
I52
aI94
aI368
aasS'f9_8'
p813
(lp814
(lp815
I15
aI50
aI478
aasS'f9_9'
p816
(lp817
(lp818
I15
aI12
aI498
aasS'f9_6'
p819
(lp820
(lp821
I15
aI45
aI499
aasS'f19_30'
p822
(lp823
(lp824
I43
aI5
aI256
aa(lp825
I1
aI145
aI500
aasS'f9_4'
p826
(lp827
(lp828
I70
aI2
aI95
aa(lp829
I15
aI45
aI496
aasS'f9_5'
p830
(lp831
(lp832
I97
aI2
aI177
aa(lp833
I15
aI63
aI480
aasS'f9_2'
p834
(lp835
(lp836
I98
aI20
aI232
aa(lp837
I15
aI22
aI488
aasS'f9_3'
p838
(lp839
(lp840
I15
aI247
aI488
aasS'f9_0'
p841
(lp842
(lp843
I98
aI4
aI248
aa(lp844
I15
aI18
aI481
aasS'f9_1'
p845
(lp846
(lp847
I98
aI4
aI230
aa(lp848
I15
aI64
aI500
aasS'ID_57_F1_0_F2_2_G_3_SplitPt_89_GenID_0'
p849
(lp850
(lp851
I99
aI2
aI90
aa(lp852
I20
aI50
aI500
aasS'f10_11'
p853
(lp854
(lp855
I9
aI128
aI499
aasS'f9_29'
p856
(lp857
(lp858
I15
aI27
aI491
aasS'f9_28'
p859
(lp860
(lp861
I15
aI41
aI473
aasS'f9_25'
p862
(lp863
(lp864
I15
aI1
aI443
aasS'f9_24'
p865
(lp866
(lp867
I15
aI1
aI473
aasS'f9_27'
p868
(lp869
(lp870
I15
aI27
aI475
aasS'f9_26'
p871
(lp872
(lp873
I15
aI61
aI345
aasS'f9_21'
p874
(lp875
(lp876
I15
aI16
aI500
aasS'f9_20'
p877
(lp878
(lp879
I15
aI25
aI499
aasS'f9_23'
p880
(lp881
(lp882
I100
aI1
aI143
aa(lp883
I15
aI59
aI500
aasS'f9_22'
p884
(lp885
(lp886
I100
aI1
aI143
aa(lp887
I15
aI84
aI500
aasS'f5_21'
p888
(lp889
(lp890
I73
aI248
aI491
aa(lp891
I72
aI11
aI167
aa(lp892
I75
aI71
aI410
aasS'f5_20'
p893
(lp894
(lp895
I77
aI3
aI427
aa(lp896
I72
aI2
aI169
aasS'f5_23'
p897
(lp898
(lp899
I8
aI1
aI82
aasS'f5_22'
p900
(lp901
(lp902
I72
aI1
aI180
aasS'f5_24'
p903
(lp904
(lp905
I73
aI23
aI403
aasS'ID_46_F1_7_F2_4_G_2_SplitPt_77_GenID_0'
p906
(lp907
(lp908
I80
aI3
aI75
aa(lp909
I23
aI78
aI500
aasS'f5_26'
p910
(lp911
(lp912
I73
aI94
aI495
aa(lp913
I24
aI20
aI173
aasS'f5_29'
p914
(lp915
(lp916
I101
aI11
aI197
aasS'f5_28'
p917
(lp918
(lp919
I71
aI44
aI493
aasS'f15_30'
p920
(lp921
(lp922
I6
aI81
aI499
aasS'f4_28'
p923
(lp924
(lp925
I23
aI38
aI498
aasS'f4_29'
p926
(lp927
(lp928
I23
aI1
aI431
aasS'ID_104_F1_3_F2_19_G_4_SplitPt_233_GenID_0'
p929
(lp930
(lp931
I37
aI1
aI233
aa(lp932
I1
aI192
aI500
aasS'f15_31'
p933
(lp934
(lp935
I6
aI1
aI499
aasS'f4_22'
p936
(lp937
(lp938
I23
aI60
aI497
aasS'f4_23'
p939
(lp940
(lp941
I23
aI125
aI497
aasS'f4_20'
p942
(lp943
(lp944
I23
aI1
aI500
aasS'f10_16'
p945
(lp946
(lp947
I102
aI190
aI456
aa(lp948
I50
aI1
aI212
aasS'f4_26'
p949
(lp950
(lp951
I103
aI1
aI169
aasS'f4_27'
p952
(lp953
(lp954
I103
aI2
aI144
aa(lp955
I23
aI25
aI431
aasS'f4_24'
p956
(lp957
(lp958
I103
aI1
aI221
aasS'f4_25'
p959
(lp960
(lp961
I23
aI1
aI444
aasS'f2_20'
p962
(lp963
(lp964
I20
aI17
aI500
aasS'f2_21'
p965
(lp966
(lp967
I20
aI62
aI499
aasS'f13_7'
p968
(lp969
(lp970
I52
aI7
aI500
aasS'f0_31'
p971
(lp972
(lp973
I32
aI51
aI500
aasS'f0_30'
p974
(lp975
(lp976
I32
aI51
aI500
aasS'f17_30'
p977
(lp978
(lp979
I19
aI60
aI480
aasS'f17_31'
p980
(lp981
(lp982
I19
aI21
aI487
aasS'ID_44_F1_6_F2_3_G_1_SplitPt_93_GenID_0'
p983
(lp984
(lp985
I12
aI89
aI496
aasS'f10_0'
p986
(lp987
(lp988
I48
aI23
aI448
aasS'f10_5'
p989
(lp990
(lp991
I48
aI53
aI450
aasS'f7_16'
p992
(lp993
(lp994
I34
aI32
aI482
aasS'f1_18'
p995
(lp996
(lp997
I16
aI26
aI494
aasS'f1_19'
p998
(lp999
(lp1000
I104
aI1
aI118
aa(lp1001
I16
aI2
aI451
aasS'f7_17'
p1002
(lp1003
(lp1004
I34
aI100
aI476
aasS'f1_14'
p1005
(lp1006
(lp1007
I16
aI95
aI497
aasS'f1_15'
p1008
(lp1009
(lp1010
I16
aI100
aI496
aasS'f1_16'
p1011
(lp1012
(lp1013
I104
aI2
aI131
aa(lp1014
I16
aI3
aI379
aasS'f1_17'
p1015
(lp1016
(lp1017
I16
aI12
aI391
aasS'f1_10'
p1018
(lp1019
(lp1020
I105
aI241
aI461
aasS'f1_11'
p1021
(lp1022
(lp1023
I16
aI3
aI495
aasS'f1_12'
p1024
(lp1025
(lp1026
I16
aI6
aI496
aasS'f1_13'
p1027
(lp1028
(lp1029
I16
aI42
aI494
aasS'ID_118_F1_5_F2_11_G_2_SplitPt_200_GenID_0'
p1030
(lp1031
(lp1032
I106
aI246
aI405
aa(lp1033
I101
aI1
aI197
aasS'ID_97_F1_11_F2_10_G_4_SplitPt_64_GenID_0'
p1034
(lp1035
(lp1036
I28
aI1
aI70
aa(lp1037
I48
aI64
aI500
aasS'ID_98_F1_12_F2_0_G_3_SplitPt_196_GenID_0'
p1038
(lp1039
(lp1040
I107
aI198
aI500
aa(lp1041
I90
aI1
aI193
aasS'f10_30'
p1042
(lp1043
(lp1044
I48
aI35
aI499
aasS'ID_99_F1_13_F2_12_G_1_SplitPt_116_GenID_0'
p1045
(lp1046
(lp1047
I108
aI146
aI322
aasS'f4_21'
p1048
(lp1049
(lp1050
I23
aI8
aI500
aasS'f4_11'
p1051
(lp1052
(lp1053
I23
aI106
aI500
aasS'f4_10'
p1054
(lp1055
(lp1056
I23
aI83
aI500
aasS'f19_8'
p1057
(lp1058
(lp1059
I1
aI180
aI491
aasS'f19_9'
p1060
(lp1061
(lp1062
I1
aI1
aI500
aasS'f3_18'
p1063
(lp1064
(lp1065
I12
aI33
aI500
aasS'f3_19'
p1066
(lp1067
(lp1068
I12
aI8
aI500
aasS'f19_0'
p1069
(lp1070
(lp1071
I87
aI326
aI457
aasS'f3_13'
p1072
(lp1073
(lp1074
I37
aI1
aI374
aasS'f3_10'
p1075
(lp1076
(lp1077
I37
aI5
aI500
aasS'f3_11'
p1078
(lp1079
(lp1080
I37
aI3
aI500
aasS'f19_4'
p1081
(lp1082
(lp1083
I86
aI15
aI273
aa(lp1084
I41
aI3
aI64
aa(lp1085
I1
aI32
aI500
aasS'f3_17'
p1086
(lp1087
(lp1088
I12
aI37
aI500
aasS'f3_14'
p1089
(lp1090
(lp1091
I37
aI7
aI499
aasS'f3_15'
p1092
(lp1093
(lp1094
I37
aI5
aI499
aasS'f18_31'
p1095
(lp1096
(lp1097
I60
aI314
aI489
aasS'f18_30'
p1098
(lp1099
(lp1100
I59
aI5
aI290
aa(lp1101
I61
aI56
aI500
aasS'f7_18'
p1102
(lp1103
(lp1104
I34
aI46
aI495
aasS'f7_19'
p1105
(lp1106
(lp1107
I34
aI35
aI480
aasS'ID_43_F1_12_F2_2_G_2_SplitPt_134_GenID_0'
p1108
(lp1109
(lp1110
I5
aI3
aI134
aa(lp1111
I20
aI127
aI472
aasS'f6_9'
p1112
(lp1113
(lp1114
I109
aI46
aI223
aasS'f6_8'
p1115
(lp1116
(lp1117
I109
aI46
aI223
aa(lp1118
I4
aI47
aI465
aasS'f6_5'
p1119
(lp1120
(lp1121
I4
aI3
aI497
aasS'f6_4'
p1122
(lp1123
(lp1124
I110
aI46
aI239
aa(lp1125
I4
aI54
aI497
aasS'f6_7'
p1126
(lp1127
(lp1128
I4
aI57
aI500
aasS'f6_6'
p1129
(lp1130
(lp1131
I4
aI12
aI500
aasS'f6_1'
p1132
(lp1133
(lp1134
I4
aI1
aI498
aasS'f6_0'
p1135
(lp1136
(lp1137
I4
aI1
aI498
aasS'f6_3'
p1138
(lp1139
(lp1140
I111
aI364
aI498
aasS'f6_2'
p1141
(lp1142
(lp1143
I4
aI1
aI500
aasS'f4_3'
p1144
(lp1145
(lp1146
I23
aI19
aI494
aasS'f4_2'
p1147
(lp1148
(lp1149
I23
aI7
aI500
aasS'f4_1'
p1150
(lp1151
(lp1152
I112
aI13
aI221
aa(lp1153
I23
aI50
aI500
aasS'f17_9'
p1154
(lp1155
(lp1156
I17
aI21
aI179
aa(lp1157
I19
aI89
aI499
aasS'f4_7'
p1158
(lp1159
(lp1160
I23
aI52
aI498
aasS'f4_6'
p1161
(lp1162
(lp1163
I23
aI78
aI500
aasS'f4_5'
p1164
(lp1165
(lp1166
I23
aI1
aI500
aasS'f4_4'
p1167
(lp1168
(lp1169
I112
aI13
aI221
aa(lp1170
I23
aI24
aI498
aasS'f17_2'
p1171
(lp1172
(lp1173
I19
aI106
aI500
aasS'f17_3'
p1174
(lp1175
(lp1176
I19
aI105
aI500
aasS'f17_0'
p1177
(lp1178
(lp1179
I19
aI109
aI494
aasS'f17_1'
p1180
(lp1181
(lp1182
I19
aI60
aI500
aasS'f17_6'
p1183
(lp1184
(lp1185
I19
aI1
aI487
aasS'f17_7'
p1186
(lp1187
(lp1188
I19
aI194
aI500
aasS'ID_82_F1_11_F2_0_G_2_SplitPt_57_GenID_0'
p1189
(lp1190
(lp1191
I32
aI58
aI500
aasS'f17_5'
p1192
(lp1193
(lp1194
I19
aI95
aI499
aasS'f8_7'
p1195
(lp1196
(lp1197
I94
aI131
aI317
aasS'f8_6'
p1198
(lp1199
(lp1200
I95
aI172
aI350
aasS'f7_21'
p1201
(lp1202
(lp1203
I113
aI322
aI478
aasS'f7_20'
p1204
(lp1205
(lp1206
I34
aI32
aI482
aasS'f7_27'
p1207
(lp1208
(lp1209
I36
aI1
aI190
aa(lp1210
I34
aI49
aI500
aasS'f8_2'
p1211
(lp1212
(lp1213
I25
aI352
aI499
aa(lp1214
I14
aI47
aI495
aasS'f7_25'
p1215
(lp1216
(lp1217
I36
aI5
aI148
aa(lp1218
I34
aI6
aI455
aasS'f7_24'
p1219
(lp1220
(lp1221
I113
aI322
aI478
aa(lp1222
I36
aI2
aI176
aasS'f4_19'
p1223
(lp1224
(lp1225
I23
aI87
aI468
aasS'f7_29'
p1226
(lp1227
(lp1228
I36
aI2
aI150
aasS'f7_28'
p1229
(lp1230
(lp1231
I36
aI1
aI143
aa(lp1232
I34
aI35
aI493
aasS'f8_9'
p1233
(lp1234
(lp1235
I114
aI2
aI193
aa(lp1236
I14
aI83
aI487
aasS'f8_8'
p1237
(lp1238
(lp1239
I114
aI2
aI201
aa(lp1240
I14
aI87
aI490
aasS'ID_24_F1_6_F2_12_G_1_SplitPt_155_GenID_0'
p1241
(lp1242
(lp1243
I5
aI157
aI464
aasS'f11_0'
p1244
(lp1245
(lp1246
I68
aI162
aI217
aa(lp1247
I78
aI3
aI151
aasS'f11_1'
p1248
(lp1249
(lp1250
I26
aI167
aI322
aa(lp1251
I65
aI168
aI497
aasS'f11_2'
p1252
(lp1253
(lp1254
I69
aI2
aI125
aa(lp1255
I65
aI9
aI479
aasS'f11_3'
p1256
(lp1257
(lp1258
I67
aI147
aI275
aa(lp1259
I69
aI3
aI125
aasS'f11_4'
p1260
(lp1261
(lp1262
I65
aI49
aI381
aasS'f11_5'
p1263
(lp1264
(lp1265
I65
aI49
aI381
aasS'f11_6'
p1266
(lp1267
(lp1268
I78
aI31
aI172
aasS'f11_7'
p1269
(lp1270
(lp1271
I26
aI167
aI322
aasS'ID_3_F1_2_F2_3_G_4_SplitPt_122_GenID_0'
p1272
(lp1273
(lp1274
I115
aI81
aI122
aa(lp1275
I12
aI88
aI500
aasS'f11_9'
p1276
(lp1277
(lp1278
I106
aI246
aI406
aasS'f13_6'
p1279
(lp1280
(lp1281
I53
aI263
aI500
aa(lp1282
I52
aI9
aI481
aasS'f2_8'
p1283
(lp1284
(lp1285
I116
aI57
aI208
aa(lp1286
I20
aI59
aI499
aasS'f13_4'
p1287
(lp1288
(lp1289
I52
aI1
aI499
aasS'f13_5'
p1290
(lp1291
(lp1292
I52
aI4
aI500
aasS'f13_2'
p1293
(lp1294
(lp1295
I51
aI135
aI218
aasS'f13_3'
p1296
(lp1297
(lp1298
I52
aI48
aI499
aasS'f13_0'
p1299
(lp1300
(lp1301
I52
aI9
aI496
aasS'f13_1'
p1302
(lp1303
(lp1304
I52
aI1
aI495
aasS'f2_1'
p1305
(lp1306
(lp1307
I20
aI58
aI497
aasS'f2_0'
p1308
(lp1309
(lp1310
I116
aI57
aI202
aasS'f2_3'
p1311
(lp1312
(lp1313
I20
aI5
aI500
aasS'f2_2'
p1314
(lp1315
(lp1316
I20
aI10
aI444
aasS'f2_5'
p1317
(lp1318
(lp1319
I20
aI7
aI497
aasS'f2_4'
p1320
(lp1321
(lp1322
I20
aI58
aI500
aasS'f2_7'
p1323
(lp1324
(lp1325
I22
aI77
aI217
aasS'f2_6'
p1326
(lp1327
(lp1328
I20
aI24
aI413
aasS'f15_4'
p1329
(lp1330
(lp1331
I3
aI14
aI487
aasS'f15_5'
p1332
(lp1333
(lp1334
I3
aI1
aI487
aasS'f15_6'
p1335
(lp1336
(lp1337
I3
aI3
aI493
aasS'f15_7'
p1338
(lp1339
(lp1340
I3
aI2
aI499
aasS'f15_0'
p1341
(lp1342
(lp1343
I3
aI2
aI500
aasS'f15_1'
p1344
(lp1345
(lp1346
I3
aI4
aI499
aasS'f0_9'
p1347
(lp1348
(lp1349
I117
aI1
aI166
aasS'f0_8'
p1350
(lp1351
(lp1352
I118
aI43
aI375
aa(lp1353
I117
aI1
aI161
aasS'f0_7'
p1354
(lp1355
(lp1356
I32
aI67
aI497
aasS'f0_6'
p1357
(lp1358
(lp1359
I32
aI65
aI497
aasS'f0_5'
p1360
(lp1361
(lp1362
I32
aI21
aI495
aasS'f0_4'
p1363
(lp1364
(lp1365
I32
aI8
aI497
aasS'f0_3'
p1366
(lp1367
(lp1368
I119
aI93
aI267
aa(lp1369
I33
aI3
aI222
aasS'f0_2'
p1370
(lp1371
(lp1372
I120
aI114
aI218
aasS'f0_1'
p1373
(lp1374
(lp1375
I33
aI1
aI212
aa(lp1376
I32
aI8
aI379
aasS'f0_0'
p1377
(lp1378
(lp1379
I33
aI1
aI243
aa(lp1380
I32
aI3
aI460
aasS'ID_71_F1_12_F2_18_G_2_SplitPt_211_GenID_0'
p1381
(lp1382
(lp1383
I121
aI2
aI242
aa(lp1384
I63
aI205
aI500
aasS'ID_84_F1_6_F2_0_G_3_SplitPt_63_GenID_0'
p1385
(lp1386
(lp1387
I122
aI1
aI66
aa(lp1388
I32
aI65
aI497
aasS'ID_13_F1_6_F2_6_G_2_SplitPt_87_GenID_0'
p1389
(lp1390
(lp1391
I4
aI68
aI500
aasS'f16_13'
p1392
(lp1393
(lp1394
I58
aI183
aI500
aasS'f16_12'
p1395
(lp1396
(lp1397
I58
aI140
aI494
aasS'f16_11'
p1398
(lp1399
(lp1400
I58
aI48
aI494
aasS'f16_10'
p1401
(lp1402
(lp1403
I58
aI201
aI498
aasS'f16_17'
p1404
(lp1405
(lp1406
I35
aI121
aI500
aasS'f16_16'
p1407
(lp1408
(lp1409
I35
aI22
aI500
aasS'f16_15'
p1410
(lp1411
(lp1412
I58
aI48
aI500
aasS'f16_14'
p1413
(lp1414
(lp1415
I58
aI152
aI494
aasS'ID_67_F1_3_F2_0_G_1_SplitPt_136_GenID_0'
p1416
(lp1417
(lp1418
I32
aI152
aI476
aasS'f16_19'
p1419
(lp1420
(lp1421
I35
aI58
aI498
aasS'f16_18'
p1422
(lp1423
(lp1424
I123
aI255
aI497
aa(lp1425
I35
aI4
aI410
aasS'f6_24'
p1426
(lp1427
(lp1428
I4
aI168
aI441
aasS'f6_25'
p1429
(lp1430
(lp1431
I4
aI140
aI425
aasS'f6_26'
p1432
(lp1433
(lp1434
I4
aI174
aI446
aasS'f6_27'
p1435
(lp1436
(lp1437
I124
aI198
aI315
aasS'f6_20'
p1438
(lp1439
(lp1440
I124
aI198
aI315
aa(lp1441
I110
aI46
aI239
aa(lp1442
I125
aI1
aI101
aasS'f6_21'
p1443
(lp1444
(lp1445
I125
aI1
aI101
aa(lp1446
I4
aI15
aI500
aasS'f6_22'
p1447
(lp1448
(lp1449
I109
aI46
aI223
aa(lp1450
I125
aI2
aI102
aasS'f6_23'
p1451
(lp1452
(lp1453
I4
aI12
aI500
aasS'f6_28'
p1454
(lp1455
(lp1456
I4
aI109
aI500
aasS'f6_29'
p1457
(lp1458
(lp1459
I4
aI10
aI496
aasS'f1_25'
p1460
(lp1461
(lp1462
I126
aI287
aI497
aa(lp1463
I127
aI4
aI176
aasS'f1_24'
p1464
(lp1465
(lp1466
I128
aI12
aI351
aa(lp1467
I126
aI287
aI490
aa(lp1468
I127
aI1
aI178
aasS'f1_27'
p1469
(lp1470
(lp1471
I16
aI4
aI482
aasS'f1_26'
p1472
(lp1473
(lp1474
I127
aI2
aI145
aa(lp1475
I16
aI3
aI495
aasS'f14_19'
p1476
(lp1477
(lp1478
I129
aI1
aI81
aa(lp1479
I130
aI10
aI298
aasS'f14_18'
p1480
(lp1481
(lp1482
I129
aI1
aI85
aa(lp1483
I130
aI88
aI479
aasS'f1_23'
p1484
(lp1485
(lp1486
I16
aI12
aI451
aasS'f1_22'
p1487
(lp1488
(lp1489
I16
aI12
aI456
aasS'f14_14'
p1490
(lp1491
(lp1492
I131
aI187
aI484
aasS'f14_17'
p1493
(lp1494
(lp1495
I130
aI36
aI497
aasS'f14_16'
p1496
(lp1497
(lp1498
I130
aI28
aI478
aasS'f14_11'
p1499
(lp1500
(lp1501
I131
aI56
aI499
aasS'f14_10'
p1502
(lp1503
(lp1504
I131
aI13
aI500
aasS'f14_13'
p1505
(lp1506
(lp1507
I131
aI11
aI432
aasS'f14_12'
p1508
(lp1509
(lp1510
I131
aI74
aI348
aasS'ID_126_F1_2_F2_13_G_2_SplitPt_200_GenID_0'
p1511
(lp1512
(lp1513
I96
aI2
aI200
aa(lp1514
I52
aI203
aI498
aasS'ID_56_F1_3_F2_4_G_2_SplitPt_107_GenID_0'
p1515
(lp1516
(lp1517
I23
aI110
aI499
aasS'f2_31'
p1518
(lp1519
(lp1520
I96
aI23
aI177
aa(lp1521
I20
aI62
aI500
aasS'f2_30'
p1522
(lp1523
(lp1524
I96
aI21
aI193
aasS'ID_29_F1_14_F2_4_G_3_SplitPt_73_GenID_0'
p1525
(lp1526
(lp1527
I23
aI47
aI496
aasS'ID_10_F1_19_F2_18_G_2_SplitPt_58_GenID_0'
p1528
(lp1529
(lp1530
I91
aI58
aI493
aasS'f13_30'
p1531
(lp1532
(lp1533
I52
aI49
aI493
aasS'f8_13'
p1534
(lp1535
(lp1536
I114
aI1
aI207
aa(lp1537
I14
aI74
aI499
aasS'f8_12'
p1538
(lp1539
(lp1540
I114
aI36
aI228
aa(lp1541
I14
aI47
aI499
aasS'f8_11'
p1542
(lp1543
(lp1544
I114
aI1
aI202
aa(lp1545
I14
aI75
aI492
aasS'f8_10'
p1546
(lp1547
(lp1548
I114
aI1
aI234
aa(lp1549
I14
aI33
aI456
aasS'f8_17'
p1550
(lp1551
(lp1552
I14
aI75
aI500
aasS'ID_113_F1_17_F2_6_G_2_SplitPt_127_GenID_0'
p1553
(lp1554
(lp1555
I132
aI28
aI145
aa(lp1556
I4
aI131
aI500
aasS'f8_15'
p1557
(lp1558
(lp1559
I14
aI23
aI499
aasS'f8_14'
p1560
(lp1561
(lp1562
I114
aI1
aI201
aa(lp1563
I14
aI33
aI499
aasS'f8_19'
p1564
(lp1565
(lp1566
I92
aI365
aI499
aasS'f8_18'
p1567
(lp1568
(lp1569
I14
aI48
aI500
aasS'f8_23'
p1570
(lp1571
(lp1572
I14
aI130
aI500
aasS'f18_1'
p1573
(lp1574
(lp1575
I133
aI269
aI496
aasS'f18_0'
p1576
(lp1577
(lp1578
I91
aI100
aI496
aasS'f18_3'
p1579
(lp1580
(lp1581
I91
aI104
aI464
aasS'ID_102_F1_11_F2_10_G_2_SplitPt_192_GenID_0'
p1582
(lp1583
(lp1584
I29
aI1
aI187
aa(lp1585
I48
aI191
aI474
aasS'f18_5'
p1586
(lp1587
(lp1588
I133
aI269
aI431
aasS'f18_4'
p1589
(lp1590
(lp1591
I91
aI100
aI496
aasS'f18_7'
p1592
(lp1593
(lp1594
I133
aI273
aI496
aa(lp1595
I61
aI108
aI412
aasS'f18_6'
p1596
(lp1597
(lp1598
I91
aI154
aI500
aasS'f18_9'
p1599
(lp1600
(lp1601
I91
aI1
aI499
aasS'f18_8'
p1602
(lp1603
(lp1604
I91
aI2
aI500
aasS'ID_34_F1_5_F2_8_G_2_SplitPt_145_GenID_0'
p1605
(lp1606
(lp1607
I88
aI3
aI142
aa(lp1608
I14
aI141
aI499
aasS'f1_20'
p1609
(lp1610
(lp1611
I16
aI2
aI397
aasS'ID_125_F1_9_F2_17_G_3_SplitPt_144_GenID_0'
p1612
(lp1613
(lp1614
I100
aI1
aI143
aa(lp1615
I19
aI106
aI500
aasS'f9_30'
p1616
(lp1617
(lp1618
I15
aI1
aI442
aasS'f8_21'
p1619
(lp1620
(lp1621
I14
aI52
aI499
aasS'f5_30'
p1622
(lp1623
(lp1624
I101
aI1
aI183
aasS'f5_31'
p1625
(lp1626
(lp1627
I101
aI5
aI190
aa(lp1628
I73
aI95
aI498
aasS'f19_11'
p1629
(lp1630
(lp1631
I1
aI4
aI500
aasS'f16_28'
p1632
(lp1633
(lp1634
I35
aI1
aI498
aasS'f16_29'
p1635
(lp1636
(lp1637
I35
aI6
aI402
aasS'f14_9'
p1638
(lp1639
(lp1640
I131
aI11
aI483
aasS'f14_8'
p1641
(lp1642
(lp1643
I131
aI101
aI498
aasS'f19_18'
p1644
(lp1645
(lp1646
I1
aI18
aI500
aasS'f14_5'
p1647
(lp1648
(lp1649
I42
aI1
aI139
aasS'f14_4'
p1650
(lp1651
(lp1652
I42
aI1
aI142
aa(lp1653
I38
aI2
aI402
aasS'f14_7'
p1654
(lp1655
(lp1656
I42
aI2
aI135
aasS'f14_6'
p1657
(lp1658
(lp1659
I42
aI1
aI135
aa(lp1660
I38
aI4
aI494
aasS'f14_1'
p1661
(lp1662
(lp1663
I38
aI1
aI498
aasS'f16_27'
p1664
(lp1665
(lp1666
I134
aI296
aI428
aasS'f14_3'
p1667
(lp1668
(lp1669
I38
aI3
aI493
aasS'f1_28'
p1670
(lp1671
(lp1672
I128
aI12
aI343
aasS'f16_3'
p1673
(lp1674
(lp1675
I135
aI1
aI97
aa(lp1676
I58
aI95
aI499
aasS'f16_2'
p1677
(lp1678
(lp1679
I123
aI255
aI497
aa(lp1680
I136
aI10
aI201
aa(lp1681
I58
aI89
aI451
aasS'f16_1'
p1682
(lp1683
(lp1684
I137
aI1
aI127
aa(lp1685
I58
aI101
aI470
aasS'f16_0'
p1686
(lp1687
(lp1688
I137
aI3
aI128
aa(lp1689
I58
aI110
aI499
aasS'f16_7'
p1690
(lp1691
(lp1692
I58
aI116
aI470
aasS'f16_6'
p1693
(lp1694
(lp1695
I58
aI111
aI480
aasS'f16_5'
p1696
(lp1697
(lp1698
I134
aI296
aI428
aasS'f16_4'
p1699
(lp1700
(lp1701
I58
aI90
aI500
aasS'f0_26'
p1702
(lp1703
(lp1704
I32
aI51
aI500
aasS'f0_27'
p1705
(lp1706
(lp1707
I119
aI93
aI267
aasS'f0_24'
p1708
(lp1709
(lp1710
I138
aI99
aI288
aasS'f0_25'
p1711
(lp1712
(lp1713
I120
aI114
aI219
aasS'f0_22'
p1714
(lp1715
(lp1716
I32
aI28
aI497
aasS'f0_23'
p1717
(lp1718
(lp1719
I32
aI7
aI499
aasS'f0_20'
p1720
(lp1721
(lp1722
I32
aI91
aI500
aasS'f0_21'
p1723
(lp1724
(lp1725
I32
aI89
aI499
aasS'f17_21'
p1726
(lp1727
(lp1728
I19
aI34
aI489
aasS'f17_20'
p1729
(lp1730
(lp1731
I132
aI28
aI144
aa(lp1732
I2
aI1
aI56
aa(lp1733
I19
aI105
aI500
aasS'f17_23'
p1734
(lp1735
(lp1736
I19
aI2
aI498
aasS'f17_22'
p1737
(lp1738
(lp1739
I19
aI2
aI489
aasS'f17_25'
p1740
(lp1741
(lp1742
I139
aI2
aI141
aasS'f17_24'
p1743
(lp1744
(lp1745
I139
aI1
aI145
aa(lp1746
I19
aI60
aI500
aasS'f17_27'
p1747
(lp1748
(lp1749
I140
aI191
aI272
aa(lp1750
I139
aI1
aI165
aasS'f17_26'
p1751
(lp1752
(lp1753
I56
aI1
aI64
aa(lp1754
I19
aI47
aI500
aasS'f17_29'
p1755
(lp1756
(lp1757
I19
aI88
aI499
aasS'f17_28'
p1758
(lp1759
(lp1760
I19
aI95
aI500
aasS'ID_108_F1_7_F2_17_G_2_SplitPt_161_GenID_0'
p1761
(lp1762
(lp1763
I81
aI2
aI144
aa(lp1764
I19
aI164
aI487
aasS'ID_23_F1_1_F2_9_G_3_SplitPt_180_GenID_0'
p1765
(lp1766
(lp1767
I127
aI1
aI178
aa(lp1768
I15
aI191
aI500
aasS'ID_35_F1_17_F2_5_G_2_SplitPt_192_GenID_0'
p1769
(lp1770
(lp1771
I89
aI196
aI341
aa(lp1772
I17
aI21
aI183
aasS'f10_9'
p1773
(lp1774
(lp1775
I49
aI328
aI499
aa(lp1776
I48
aI109
aI478
aasS'f10_8'
p1777
(lp1778
(lp1779
I102
aI186
aI499
aa(lp1780
I79
aI2
aI184
aasS'f10_1'
p1781
(lp1782
(lp1783
I48
aI37
aI450
aasS'ID_15_F1_9_F2_15_G_1_SplitPt_89_GenID_0'
p1784
(lp1785
(lp1786
I45
aI151
aI310
aa(lp1787
I3
aI176
aI484
aasS'f10_3'
p1788
(lp1789
(lp1790
I48
aI17
aI463
aasS'f10_2'
p1791
(lp1792
(lp1793
I141
aI1
aI220
aasS'f7_3'
p1794
(lp1795
(lp1796
I142
aI2
aI431
aasS'f10_4'
p1797
(lp1798
(lp1799
I48
aI145
aI496
aasS'f10_7'
p1800
(lp1801
(lp1802
I48
aI44
aI383
aasS'f10_6'
p1803
(lp1804
(lp1805
I141
aI1
aI220
aa(lp1806
I48
aI20
aI440
aasS'f4_17'
p1807
(lp1808
(lp1809
I23
aI1
aI450
aasS'f4_16'
p1810
(lp1811
(lp1812
I23
aI1
aI488
aasS'f4_15'
p1813
(lp1814
(lp1815
I23
aI5
aI479
aasS'f4_14'
p1816
(lp1817
(lp1818
I23
aI24
aI500
aasS'f4_13'
p1819
(lp1820
(lp1821
I23
aI9
aI499
aasS'f4_12'
p1822
(lp1823
(lp1824
I23
aI1
aI499
aasS'f12_9'
p1825
(lp1826
(lp1827
I143
aI41
aI482
aasS'f12_8'
p1828
(lp1829
(lp1830
I143
aI138
aI447
aasS'f12_7'
p1831
(lp1832
(lp1833
I144
aI64
aI491
aasS'f12_6'
p1834
(lp1835
(lp1836
I144
aI5
aI462
aasS'f12_5'
p1837
(lp1838
(lp1839
I144
aI71
aI499
aasS'f12_4'
p1840
(lp1841
(lp1842
I144
aI7
aI499
aasS'f12_3'
p1843
(lp1844
(lp1845
I121
aI16
aI206
aa(lp1846
I144
aI33
aI494
aasS'f12_2'
p1847
(lp1848
(lp1849
I121
aI5
aI206
aasS'f12_1'
p1850
(lp1851
(lp1852
I145
aI100
aI257
aa(lp1853
I121
aI2
aI241
aasS'f12_0'
p1854
(lp1855
(lp1856
I121
aI8
aI203
aasS'f3_27'
p1857
(lp1858
(lp1859
I13
aI14
aI257
aa(lp1860
I12
aI91
aI496
aasS'f3_26'
p1861
(lp1862
(lp1863
I13
aI36
aI206
aasS'f3_25'
p1864
(lp1865
(lp1866
I13
aI1
aI170
aa(lp1867
I12
aI84
aI499
aasS'f3_24'
p1868
(lp1869
(lp1870
I13
aI1
aI176
aa(lp1871
I12
aI84
aI491
aasS'f3_23'
p1872
(lp1873
(lp1874
I12
aI8
aI372
aasS'f3_22'
p1875
(lp1876
(lp1877
I12
aI130
aI498
aasS'f3_21'
p1878
(lp1879
(lp1880
I12
aI37
aI491
aasS'ID_48_F1_18_F2_10_G_2_SplitPt_147_GenID_0'
p1881
(lp1882
(lp1883
I48
aI149
aI495
aasS'f3_29'
p1884
(lp1885
(lp1886
I13
aI7
aI175
aa(lp1887
I12
aI94
aI499
aasS'f3_28'
p1888
(lp1889
(lp1890
I13
aI14
aI257
aa(lp1891
I12
aI33
aI499
aasS'ID_31_F1_7_F2_3_G_2_SplitPt_69_GenID_0'
p1892
(lp1893
(lp1894
I12
aI56
aI499
aasS'f6_19'
p1895
(lp1896
(lp1897
I4
aI19
aI499
aasS'f6_18'
p1898
(lp1899
(lp1900
I4
aI13
aI454
aasS'f6_15'
p1901
(lp1902
(lp1903
I4
aI6
aI498
aasS'f6_14'
p1904
(lp1905
(lp1906
I4
aI1
aI498
aasS'f6_17'
p1907
(lp1908
(lp1909
I146
aI322
aI383
aa(lp1910
I122
aI3
aI63
aasS'f6_16'
p1911
(lp1912
(lp1913
I122
aI1
aI66
aasS'f6_11'
p1914
(lp1915
(lp1916
I4
aI9
aI498
aasS'f6_10'
p1917
(lp1918
(lp1919
I4
aI34
aI387
aasS'f6_13'
p1920
(lp1921
(lp1922
I4
aI143
aI500
aasS'f6_12'
p1923
(lp1924
(lp1925
I4
aI9
aI500
aasS'f4_18'
p1926
(lp1927
(lp1928
I23
aI8
aI500
aasS'f4_30'
p1929
(lp1930
(lp1931
I30
aI1
aI138
aasS'ID_38_F1_13_F2_5_G_1_SplitPt_249_GenID_0'
p1932
(lp1933
(lp1934
I52
aI1
aI277
aasS'f10_31'
p1935
(lp1936
(lp1937
I48
aI36
aI500
aasS'ID_7_F1_4_F2_4_G_4_SplitPt_124_GenID_0'
p1938
(lp1939
(lp1940
I103
aI1
aI221
aasS'f19_23'
p1941
(lp1942
(lp1943
I1
aI26
aI496
aasS'ID_96_F1_12_F2_12_G_3_SplitPt_81_GenID_0'
p1944
(lp1945
(lp1946
I145
aI100
aI257
aa(lp1947
I147
aI1
aI104
aasS'ID_110_F1_6_F2_13_G_3_SplitPt_104_GenID_0'
p1948
(lp1949
(lp1950
I125
aI1
aI102
aa(lp1951
I52
aI105
aI496
aasS'f15_8'
p1952
(lp1953
(lp1954
I3
aI9
aI499
aasS'ID_86_F1_16_F2_4_G_3_SplitPt_97_GenID_0'
p1955
(lp1956
(lp1957
I135
aI1
aI97
aa(lp1958
I136
aI10
aI178
aa(lp1959
I23
aI84
aI500
aasS'ID_114_F1_19_F2_14_G_4_SplitPt_129_GenID_0'
p1960
(lp1961
(lp1962
I44
aI1
aI160
aa(lp1963
I131
aI126
aI500
aasS'ID_47_F1_12_F2_12_G_3_SplitPt_137_GenID_0'
p1964
(lp1965
(lp1966
I143
aI120
aI500
aa(lp1967
I5
aI2
aI160
aasS'f7_30'
p1968
(lp1969
(lp1970
I34
aI30
aI500
aasS'f7_31'
p1971
(lp1972
(lp1973
I85
aI154
aI264
aa(lp1974
I36
aI30
aI190
aasS'f12_17'
p1975
(lp1976
(lp1977
I5
aI1
aI466
aasS'f12_16'
p1978
(lp1979
(lp1980
I5
aI1
aI498
aasS'f12_15'
p1981
(lp1982
(lp1983
I108
aI146
aI321
aa(lp1984
I90
aI1
aI190
aasS'f12_14'
p1985
(lp1986
(lp1987
I90
aI2
aI100
aa(lp1988
I143
aI42
aI500
aasS'f12_13'
p1989
(lp1990
(lp1991
I90
aI1
aI193
aa(lp1992
I143
aI58
aI491
aasS'f12_12'
p1993
(lp1994
(lp1995
I90
aI4
aI193
aa(lp1996
I143
aI14
aI500
aasS'f12_11'
p1997
(lp1998
(lp1999
I147
aI1
aI84
aa(lp2000
I143
aI72
aI500
aasS'f12_10'
p2001
(lp2002
(lp2003
I147
aI2
aI104
aa(lp2004
I143
aI14
aI498
aasS'ID_93_F1_16_F2_12_G_3_SplitPt_132_GenID_0'
p2005
(lp2006
(lp2007
I137
aI1
aI128
aa(lp2008
I143
aI134
aI499
aasS'ID_122_F1_7_F2_19_G_4_SplitPt_147_GenID_0'
p2009
(lp2010
(lp2011
I36
aI1
aI189
aa(lp2012
I34
aI51
aI329
aa(lp2013
I1
aI130
aI500
aasS'f12_19'
p2014
(lp2015
(lp2016
I5
aI1
aI493
aasS'f12_18'
p2017
(lp2018
(lp2019
I5
aI1
aI461
aasS'ID_53_F1_7_F2_15_G_2_SplitPt_201_GenID_0'
p2020
(lp2021
(lp2022
I84
aI24
aI202
aa(lp2023
I6
aI183
aI497
aasS'f11_30'
p2024
(lp2025
(lp2026
I29
aI1
aI187
aa(lp2027
I27
aI49
aI327
aasS'f11_31'
p2028
(lp2029
(lp2030
I29
aI1
aI185
aa(lp2031
I27
aI46
aI484
aasS'ID_75_F1_9_F2_6_G_3_SplitPt_235_GenID_0'
p2032
(lp2033
(lp2034
I98
aI4
aI252
aa(lp2035
I4
aI233
aI500
aasS'ID_42_F1_0_F2_11_G_4_SplitPt_182_GenID_0'
p2036
(lp2037
(lp2038
I33
aI1
aI190
aa(lp2039
I65
aI174
aI500
aasS'f4_8'
p2040
(lp2041
(lp2042
I23
aI5
aI494
aasS'f8_16'
p2043
(lp2044
(lp2045
I14
aI102
aI498
aasS'ID_111_F1_14_F2_2_G_4_SplitPt_80_GenID_0'
p2046
(lp2047
(lp2048
I115
aI81
aI122
aa(lp2049
I129
aI1
aI85
aasS'f3_5'
p2050
(lp2051
(lp2052
I37
aI1
aI443
aasS'f18_19'
p2053
(lp2054
(lp2055
I63
aI119
aI485
aasS'f18_18'
p2056
(lp2057
(lp2058
I63
aI116
aI500
aasS'f0_28'
p2059
(lp2060
(lp2061
I32
aI55
aI500
aasS'f18_11'
p2062
(lp2063
(lp2064
I91
aI1
aI499
aasS'f18_10'
p2065
(lp2066
(lp2067
I148
aI5
aI245
aasS'f18_13'
p2068
(lp2069
(lp2070
I148
aI5
aI245
aasS'f18_12'
p2071
(lp2072
(lp2073
I91
aI1
aI477
aasS'f18_15'
p2074
(lp2075
(lp2076
I91
aI27
aI497
aasS'f18_14'
p2077
(lp2078
(lp2079
I91
aI96
aI480
aasS'f18_17'
p2080
(lp2081
(lp2082
I63
aI218
aI494
aasS'f18_16'
p2083
(lp2084
(lp2085
I64
aI7
aI435
aa(lp2086
I63
aI224
aI468
aasS'f3_12'
p2087
(lp2088
(lp2089
I37
aI4
aI471
aasS'f12_27'
p2090
(lp2091
(lp2092
I5
aI32
aI500
aasS'f19_2'
p2093
(lp2094
(lp2095
I1
aI41
aI500
aasS'f19_3'
p2096
(lp2097
(lp2098
I1
aI22
aI500
aasS'f1_30'
p2099
(lp2100
(lp2101
I93
aI292
aI430
aasS'f14_20'
p2102
(lp2103
(lp2104
I130
aI10
aI469
aasS'f14_21'
p2105
(lp2106
(lp2107
I130
aI25
aI437
aasS'f14_22'
p2108
(lp2109
(lp2110
I130
aI32
aI479
aasS'f14_23'
p2111
(lp2112
(lp2113
I130
aI32
aI497
aasS'f14_24'
p2114
(lp2115
(lp2116
I39
aI105
aI500
aasS'f14_25'
p2117
(lp2118
(lp2119
I39
aI1
aI500
aasS'f14_26'
p2120
(lp2121
(lp2122
I40
aI385
aI498
aasS'f14_27'
p2123
(lp2124
(lp2125
I39
aI115
aI500
aasS'f2_28'
p2126
(lp2127
(lp2128
I96
aI1
aI200
aa(lp2129
I20
aI10
aI497
aasS'f2_29'
p2130
(lp2131
(lp2132
I96
aI1
aI200
aa(lp2133
I20
aI81
aI500
aasS'f10_13'
p2134
(lp2135
(lp2136
I79
aI1
aI165
aa(lp2137
I9
aI84
aI478
aasS'f10_12'
p2138
(lp2139
(lp2140
I79
aI1
aI167
aa(lp2141
I9
aI85
aI500
aasS'f10_15'
p2142
(lp2143
(lp2144
I9
aI84
aI500
aasS'f10_14'
p2145
(lp2146
(lp2147
I79
aI3
aI167
aa(lp2148
I9
aI64
aI500
aasS'f10_17'
p2149
(lp2150
(lp2151
I102
aI184
aI499
aa(lp2152
I50
aI1
aI243
aasS'ID_37_F1_0_F2_2_G_3_SplitPt_161_GenID_0'
p2153
(lp2154
(lp2155
I117
aI1
aI166
aa(lp2156
I20
aI131
aI497
aasS'f10_19'
p2157
(lp2158
(lp2159
I48
aI213
aI500
aasS'f10_18'
p2160
(lp2161
(lp2162
I50
aI54
aI271
aasS'f2_22'
p2163
(lp2164
(lp2165
I20
aI86
aI499
aasS'f2_23'
p2166
(lp2167
(lp2168
I20
aI138
aI473
aasS'f2_24'
p2169
(lp2170
(lp2171
I20
aI76
aI487
aasS'f2_25'
p2172
(lp2173
(lp2174
I20
aI85
aI487
aasS'f2_26'
p2175
(lp2176
(lp2177
I20
aI14
aI500
aasS'f2_27'
p2178
(lp2179
(lp2180
I96
aI1
aI191
aa(lp2181
I20
aI85
aI500
aasS'f13_25'
p2182
(lp2183
(lp2184
I55
aI9
aI192
aa(lp2185
I52
aI11
aI479
aasS'f13_24'
p2186
(lp2187
(lp2188
I52
aI9
aI461
aasS'f13_27'
p2189
(lp2190
(lp2191
I52
aI97
aI499
aasS'f13_26'
p2192
(lp2193
(lp2194
I52
aI58
aI490
aasS'f13_21'
p2195
(lp2196
(lp2197
I52
aI3
aI496
aasS'f13_20'
p2198
(lp2199
(lp2200
I52
aI70
aI486
aasS'f13_23'
p2201
(lp2202
(lp2203
I52
aI10
aI496
aasS'f13_22'
p2204
(lp2205
(lp2206
I55
aI32
aI150
aasS'ID_105_F1_8_F2_6_G_4_SplitPt_198_GenID_0'
p2207
(lp2208
(lp2209
I111
aI364
aI498
aa(lp2210
I114
aI1
aI202
aasS'f13_29'
p2211
(lp2212
(lp2213
I52
aI9
aI499
aasS'f13_28'
p2214
(lp2215
(lp2216
I52
aI10
aI448
aasS'ID_115_F1_8_F2_1_G_1_SplitPt_162_GenID_0'
p2217
(lp2218
(lp2219
I126
aI287
aI497
aasS'f4_0'
p2220
(lp2221
(lp2222
I23
aI1
aI500
aasS'ID_2_F1_1_F2_4_G_2_SplitPt_131_GenID_0'
p2223
(lp2224
(lp2225
I104
aI1
aI131
aa(lp2226
I23
aI188
aI500
aasS'ID_51_F1_17_F2_14_G_4_SplitPt_103_GenID_0'
p2227
(lp2228
(lp2229
I18
aI1
aI104
aa(lp2230
I39
aI101
aI500
aasS'ID_76_F1_5_F2_18_G_4_SplitPt_185_GenID_0'
p2231
(lp2232
(lp2233
I8
aI1
aI82
aa(lp2234
I91
aI168
aI500
aasS'ID_50_F1_5_F2_15_G_4_SplitPt_151_GenID_0'
p2235
(lp2236
(lp2237
I24
aI1
aI168
aa(lp2238
I3
aI144
aI500
aasS'ID_121_F1_16_F2_9_G_4_SplitPt_165_GenID_0'
p2239
(lp2240
(lp2241
I57
aI1
aI165
aa(lp2242
I15
aI141
aI500
aasS'ID_61_F1_7_F2_12_G_3_SplitPt_52_GenID_0'
p2243
(lp2244
(lp2245
I5
aI54
aI500
aasS'ID_52_F1_14_F2_2_G_4_SplitPt_139_GenID_0'
p2246
(lp2247
(lp2248
I42
aI1
aI142
aa(lp2249
I20
aI87
aI500
aasS'ID_17_F1_12_F2_1_G_1_SplitPt_84_GenID_0'
p2250
(lp2251
(lp2252
I105
aI241
aI461
aasS'ID_33_F1_3_F2_8_G_2_SplitPt_176_GenID_0'
p2253
(lp2254
(lp2255
I13
aI1
aI196
aa(lp2256
I14
aI173
aI496
aasS'ID_16_F1_13_F2_15_G_4_SplitPt_70_GenID_0'
p2257
(lp2258
(lp2259
I7
aI344
aI417
aa(lp2260
I54
aI1
aI75
aasS'f19_13'
p2261
(lp2262
(lp2263
I1
aI10
aI500
aasS'f16_31'
p2264
(lp2265
(lp2266
I35
aI8
aI430
aasS'f16_30'
p2267
(lp2268
(lp2269
I35
aI6
aI500
aasS'f19_10'
p2270
(lp2271
(lp2272
I1
aI43
aI500
aasS'f0_19'
p2273
(lp2274
(lp2275
I32
aI7
aI495
aasS'f0_18'
p2276
(lp2277
(lp2278
I32
aI55
aI497
aasS'f12_28'
p2279
(lp2280
(lp2281
I5
aI2
aI434
aasS'f12_29'
p2282
(lp2283
(lp2284
I5
aI2
aI461
aasS'f0_13'
p2285
(lp2286
(lp2287
I118
aI43
aI375
aa(lp2288
I107
aI199
aI500
aasS'f0_12'
p2289
(lp2290
(lp2291
I107
aI199
aI498
aasS'f12_24'
p2292
(lp2293
(lp2294
I5
aI2
aI500
aasS'f12_25'
p2295
(lp2296
(lp2297
I5
aI2
aI500
aasS'f0_17'
p2298
(lp2299
(lp2300
I99
aI2
aI90
aa(lp2301
I32
aI68
aI500
aasS'f0_16'
p2302
(lp2303
(lp2304
I99
aI2
aI90
aa(lp2305
I32
aI58
aI500
aasS'f0_15'
p2306
(lp2307
(lp2308
I107
aI198
aI498
aasS'f12_21'
p2309
(lp2310
(lp2311
I5
aI6
aI230
aasS'f17_18'
p2312
(lp2313
(lp2314
I19
aI2
aI498
aasS'f17_19'
p2315
(lp2316
(lp2317
I19
aI34
aI498
aasS'f17_14'
p2318
(lp2319
(lp2320
I19
aI208
aI498
aasS'f17_15'
p2321
(lp2322
(lp2323
I19
aI26
aI412
aasS'f17_16'
p2324
(lp2325
(lp2326
I19
aI88
aI493
aasS'f17_17'
p2327
(lp2328
(lp2329
I140
aI191
aI272
aasS'f17_10'
p2330
(lp2331
(lp2332
I18
aI1
aI104
aa(lp2333
I19
aI52
aI480
aasS'f17_11'
p2334
(lp2335
(lp2336
I18
aI2
aI104
aa(lp2337
I19
aI171
aI498
aasS'f17_12'
p2338
(lp2339
(lp2340
I19
aI91
aI498
aasS'f17_13'
p2341
(lp2342
(lp2343
I19
aI89
aI499
aasS'ID_25_F1_17_F2_6_G_3_SplitPt_140_GenID_0'
p2344
(lp2345
(lp2346
I146
aI322
aI383
aa(lp2347
I139
aI1
aI163
aasS'f18_2'
p2348
(lp2349
(lp2350
I91
aI73
aI500
aasS'f6_31'
p2351
(lp2352
(lp2353
I4
aI80
aI477
aas.