(dp1
S'f5_1'
p2
(lp3
(lp4
I1
aI86
aI487
aasS'ID_41_F1_1_F2_12_G_2_SplitPt_90_GenID_0'
p5
(lp6
(lp7
I2
aI320
aI461
aasS'ID_39_F1_9_F2_1_G_1_SplitPt_55_GenID_0'
p8
(lp9
(lp10
I3
aI88
aI478
aasS'f15_29'
p11
(lp12
(lp13
I4
aI159
aI260
aasS'f15_28'
p14
(lp15
(lp16
I5
aI63
aI499
aasS'f15_27'
p17
(lp18
(lp19
I4
aI162
aI260
aasS'f15_26'
p20
(lp21
(lp22
I6
aI338
aI499
aasS'ID_36_F1_11_F2_6_G_4_SplitPt_50_GenID_0'
p23
(lp24
(lp25
I7
aI1
aI64
aa(lp26
I8
aI51
aI500
aasS'f3_30'
p27
(lp28
(lp29
I9
aI201
aI455
aasS'f3_31'
p30
(lp31
(lp32
I9
aI121
aI468
aasS'f17_8'
p33
(lp34
(lp35
I10
aI165
aI499
aasS'f2_11'
p36
(lp37
(lp38
I11
aI9
aI391
aasS'f2_10'
p39
(lp40
(lp41
I11
aI63
aI454
aasS'f2_13'
p42
(lp43
(lp44
I11
aI58
aI499
aasS'f17_9'
p45
(lp46
(lp47
I10
aI78
aI499
aasS'f2_15'
p48
(lp49
(lp50
I11
aI14
aI500
aasS'f2_14'
p51
(lp52
(lp53
I11
aI9
aI490
aasS'f2_17'
p54
(lp55
(lp56
I12
aI23
aI236
aa(lp57
I13
aI24
aI466
aasS'f2_16'
p58
(lp59
(lp60
I13
aI17
aI500
aasS'f2_19'
p61
(lp62
(lp63
I14
aI96
aI235
aasS'f2_18'
p64
(lp65
(lp66
I13
aI74
aI500
aasS'ID_60_F1_2_F2_3_G_1_SplitPt_143_GenID_0'
p67
(lp68
(lp69
I15
aI194
aI289
aa(lp70
I9
aI200
aI398
aasS'f19_25'
p71
(lp72
(lp73
I16
aI22
aI443
aasS'f19_24'
p74
(lp75
(lp76
I16
aI2
aI448
aasS'f8_30'
p77
(lp78
(lp79
I17
aI31
aI428
aasS'ID_22_F1_3_F2_17_G_3_SplitPt_152_GenID_0'
p80
(lp81
(lp82
I18
aI1
aI219
aa(lp83
I19
aI139
aI499
aasS'ID_56_F1_5_F2_14_G_4_SplitPt_223_GenID_0'
p84
(lp85
(lp86
I20
aI1
aI243
aa(lp87
I21
aI209
aI500
aasS'f12_21'
p88
(lp89
(lp90
I22
aI147
aI497
aasS'f19_30'
p91
(lp92
(lp93
I16
aI50
aI499
aasS'f11_23'
p94
(lp95
(lp96
I23
aI329
aI497
aa(lp97
I24
aI11
aI403
aasS'f11_20'
p98
(lp99
(lp100
I25
aI8
aI144
aasS'f11_27'
p101
(lp102
(lp103
I25
aI1
aI156
aa(lp104
I26
aI98
aI466
aasS'f11_26'
p105
(lp106
(lp107
I25
aI1
aI105
aasS'f11_25'
p108
(lp109
(lp110
I26
aI21
aI466
aasS'f11_24'
p111
(lp112
(lp113
I26
aI105
aI484
aasS'f11_29'
p114
(lp115
(lp116
I26
aI105
aI327
aasS'f11_28'
p117
(lp118
(lp119
I25
aI1
aI164
aa(lp120
I26
aI105
aI485
aasS'f19_31'
p121
(lp122
(lp123
I16
aI34
aI491
aasS'f4_31'
p124
(lp125
(lp126
I27
aI56
aI491
aasS'f7_21'
p127
(lp128
(lp129
I28
aI156
aI455
aasS'f14_5'
p130
(lp131
(lp132
I21
aI221
aI495
aa(lp133
I21
aI1
aI77
aasS'f7_20'
p134
(lp135
(lp136
I28
aI156
aI495
aasS'ID_18_F1_14_F2_9_G_4_SplitPt_183_GenID_0'
p137
(lp138
(lp139
I29
aI165
aI500
aa(lp140
I21
aI1
aI218
aasS'f14_4'
p141
(lp142
(lp143
I21
aI7
aI500
aasS'f14_7'
p144
(lp145
(lp146
I21
aI1
aI490
aasS'f8_26'
p147
(lp148
(lp149
I17
aI30
aI480
aasS'f14_6'
p150
(lp151
(lp152
I21
aI1
aI500
aasS'f14_1'
p153
(lp154
(lp155
I21
aI50
aI130
aa(lp156
I21
aI247
aI468
aasS'f19_5'
p157
(lp158
(lp159
I30
aI172
aI355
aa(lp160
I31
aI3
aI348
aasS'f16_27'
p161
(lp162
(lp163
I32
aI74
aI500
aasS'f8_25'
p164
(lp165
(lp166
I33
aI90
aI358
aasS'f16_24'
p167
(lp168
(lp169
I32
aI52
aI496
aasS'f14_31'
p170
(lp171
(lp172
I34
aI105
aI439
aasS'f14_30'
p173
(lp174
(lp175
I34
aI91
aI497
aasS'f8_22'
p176
(lp177
(lp178
I35
aI7
aI397
aa(lp179
I36
aI174
aI498
aasS'ID_29_F1_16_F2_8_G_2_SplitPt_171_GenID_0'
p180
(lp181
(lp182
I37
aI295
aI500
aasS'f16_25'
p183
(lp184
(lp185
I32
aI65
aI496
aasS'f19_29'
p186
(lp187
(lp188
I16
aI2
aI500
aasS'f19_28'
p189
(lp190
(lp191
I16
aI37
aI500
aasS'f15_12'
p192
(lp193
(lp194
I38
aI4
aI124
aasS'f19_23'
p195
(lp196
(lp197
I39
aI163
aI499
aasS'f19_22'
p198
(lp199
(lp200
I39
aI162
aI500
aasS'f19_21'
p201
(lp202
(lp203
I39
aI168
aI463
aasS'f3_7'
p204
(lp205
(lp206
I40
aI79
aI500
aasS'f19_27'
p207
(lp208
(lp209
I16
aI22
aI497
aasS'f19_26'
p210
(lp211
(lp212
I16
aI2
aI448
aasS'f15_18'
p213
(lp214
(lp215
I6
aI338
aI499
aasS'f15_19'
p216
(lp217
(lp218
I41
aI185
aI499
aasS'f10_28'
p219
(lp220
(lp221
I42
aI101
aI475
aasS'f10_24'
p222
(lp223
(lp224
I43
aI2
aI239
aa(lp225
I42
aI129
aI500
aasS'f10_25'
p226
(lp227
(lp228
I43
aI1
aI242
aa(lp229
I42
aI135
aI500
aasS'f10_26'
p230
(lp231
(lp232
I43
aI1
aI240
aa(lp233
I42
aI190
aI483
aasS'f10_27'
p234
(lp235
(lp236
I43
aI1
aI241
aa(lp237
I42
aI101
aI487
aasS'f10_20'
p238
(lp239
(lp240
I44
aI61
aI490
aasS'f10_21'
p241
(lp242
(lp243
I44
aI33
aI470
aasS'f10_22'
p244
(lp245
(lp246
I44
aI33
aI475
aasS'f10_23'
p247
(lp248
(lp249
I44
aI61
aI439
aasS'f0_28'
p250
(lp251
(lp252
I45
aI63
aI190
aasS'f0_29'
p253
(lp254
(lp255
I46
aI65
aI212
aasS'f13_10'
p256
(lp257
(lp258
I47
aI18
aI198
aa(lp259
I48
aI162
aI500
aasS'f13_11'
p260
(lp261
(lp262
I48
aI6
aI500
aasS'f13_12'
p263
(lp264
(lp265
I47
aI18
aI215
aa(lp266
I49
aI106
aI268
aasS'f13_13'
p267
(lp268
(lp269
I49
aI81
aI267
aasS'f13_14'
p270
(lp271
(lp272
I48
aI10
aI459
aasS'f13_15'
p273
(lp274
(lp275
I48
aI12
aI498
aasS'f13_16'
p276
(lp277
(lp278
I50
aI167
aI493
aasS'f13_18'
p279
(lp280
(lp281
I51
aI168
aI483
aasS'f13_19'
p282
(lp283
(lp284
I52
aI76
aI484
aasS'f18_24'
p285
(lp286
(lp287
I53
aI43
aI491
aasS'f18_25'
p288
(lp289
(lp290
I53
aI5
aI488
aasS'f18_26'
p291
(lp292
(lp293
I54
aI2
aI155
aa(lp294
I53
aI66
aI476
aasS'f18_27'
p295
(lp296
(lp297
I54
aI11
aI153
aa(lp298
I53
aI43
aI491
aasS'f18_20'
p299
(lp300
(lp301
I53
aI241
aI497
aasS'f18_21'
p302
(lp303
(lp304
I53
aI92
aI492
aasS'f18_22'
p305
(lp306
(lp307
I53
aI230
aI492
aasS'f18_23'
p308
(lp309
(lp310
I53
aI102
aI492
aasS'f18_28'
p311
(lp312
(lp313
I53
aI56
aI493
aasS'f18_29'
p314
(lp315
(lp316
I53
aI52
aI489
aasS'f11_18'
p317
(lp318
(lp319
I24
aI8
aI384
aasS'f11_12'
p320
(lp321
(lp322
I26
aI53
aI386
aasS'f11_13'
p323
(lp324
(lp325
I26
aI54
aI362
aasS'f11_10'
p326
(lp327
(lp328
I26
aI25
aI453
aasS'ID_3_F1_16_F2_19_G_4_SplitPt_161_GenID_0'
p329
(lp330
(lp331
I39
aI162
aI500
aa(lp332
I55
aI1
aI162
aasS'f11_16'
p333
(lp334
(lp335
I26
aI1
aI414
aasS'f11_17'
p336
(lp337
(lp338
I24
aI12
aI398
aa(lp339
I25
aI1
aI144
aasS'f11_15'
p340
(lp341
(lp342
I26
aI50
aI343
aasS'f9_14'
p343
(lp344
(lp345
I56
aI1
aI389
aasS'f9_15'
p346
(lp347
(lp348
I56
aI37
aI359
aasS'f9_16'
p349
(lp350
(lp351
I57
aI12
aI315
aa(lp352
I58
aI1
aI76
aasS'f9_17'
p353
(lp354
(lp355
I58
aI1
aI76
aasS'f9_10'
p356
(lp357
(lp358
I56
aI1
aI496
aasS'f9_11'
p359
(lp360
(lp361
I56
aI38
aI496
aasS'f5_18'
p362
(lp363
(lp364
I59
aI46
aI474
aa(lp365
I20
aI1
aI224
aasS'f5_19'
p366
(lp367
(lp368
I20
aI1
aI227
aasS'f7_14'
p369
(lp370
(lp371
I60
aI61
aI497
aasS'f7_15'
p372
(lp373
(lp374
I61
aI23
aI229
aa(lp375
I60
aI243
aI500
aasS'f7_12'
p376
(lp377
(lp378
I60
aI225
aI500
aasS'f7_13'
p379
(lp380
(lp381
I60
aI62
aI497
aasS'f7_10'
p382
(lp383
(lp384
I62
aI1
aI185
aa(lp385
I60
aI71
aI492
aasS'f7_11'
p386
(lp387
(lp388
I62
aI4
aI185
aasS'f5_10'
p389
(lp390
(lp391
I63
aI3
aI460
aasS'f5_11'
p392
(lp393
(lp394
I63
aI14
aI452
aasS'f5_14'
p395
(lp396
(lp397
I63
aI13
aI455
aasS'f5_15'
p398
(lp399
(lp400
I63
aI2
aI460
aasS'f5_16'
p401
(lp402
(lp403
I20
aI3
aI231
aasS'f5_17'
p404
(lp405
(lp406
I59
aI46
aI477
aa(lp407
I20
aI2
aI204
aasS'f2_9'
p408
(lp409
(lp410
I11
aI14
aI497
aasS'f2_8'
p411
(lp412
(lp413
I11
aI64
aI469
aasS'ID_54_F1_9_F2_15_G_4_SplitPt_73_GenID_0'
p414
(lp415
(lp416
I58
aI1
aI76
aa(lp417
I5
aI63
aI500
aasS'f7_4'
p418
(lp419
(lp420
I62
aI9
aI155
aasS'f7_5'
p421
(lp422
(lp423
I60
aI46
aI479
aasS'f7_6'
p424
(lp425
(lp426
I60
aI61
aI311
aasS'f7_7'
p427
(lp428
(lp429
I60
aI48
aI496
aasS'f7_0'
p430
(lp431
(lp432
I60
aI150
aI377
aasS'f7_1'
p433
(lp434
(lp435
I60
aI61
aI472
aasS'f7_2'
p436
(lp437
(lp438
I60
aI80
aI371
aasS'f7_3'
p439
(lp440
(lp441
I60
aI98
aI311
aasS'f7_8'
p442
(lp443
(lp444
I62
aI1
aI189
aa(lp445
I60
aI91
aI480
aasS'ID_8_F1_2_F2_18_G_2_SplitPt_190_GenID_0'
p446
(lp447
(lp448
I64
aI76
aI174
aa(lp449
I53
aI194
aI488
aasS'ID_30_F1_4_F2_16_G_3_SplitPt_110_GenID_0'
p450
(lp451
(lp452
I65
aI1
aI149
aa(lp453
I32
aI86
aI500
aasS'f2_7'
p454
(lp455
(lp456
I66
aI31
aI476
aasS'f13_9'
p457
(lp458
(lp459
I49
aI85
aI268
aasS'ID_51_F1_18_F2_6_G_3_SplitPt_158_GenID_0'
p460
(lp461
(lp462
I54
aI2
aI165
aa(lp463
I67
aI142
aI500
aasS'f19_12'
p464
(lp465
(lp466
I68
aI2
aI458
aasS'f19_13'
p467
(lp468
(lp469
I68
aI156
aI433
aasS'f5_8'
p470
(lp471
(lp472
I63
aI16
aI452
aasS'f5_9'
p473
(lp474
(lp475
I63
aI3
aI455
aasS'f19_14'
p476
(lp477
(lp478
I68
aI53
aI450
aasS'f19_15'
p479
(lp480
(lp481
I68
aI57
aI459
aasS'f5_2'
p482
(lp483
(lp484
I1
aI86
aI500
aasS'f5_3'
p485
(lp486
(lp487
I69
aI2
aI193
aa(lp488
I1
aI79
aI491
aasS'f6_31'
p489
(lp490
(lp491
I70
aI276
aI373
aasS'f6_30'
p492
(lp493
(lp494
I71
aI273
aI320
aasS'f5_7'
p495
(lp496
(lp497
I69
aI2
aI193
aasS'f5_4'
p498
(lp499
(lp500
I20
aI58
aI248
aasS'f2_12'
p501
(lp502
(lp503
I11
aI27
aI473
aasS'f11_11'
p504
(lp505
(lp506
I26
aI176
aI498
aasS'f0_8'
p507
(lp508
(lp509
I72
aI49
aI498
aasS'f3_0'
p510
(lp511
(lp512
I40
aI84
aI493
aasS'f8_27'
p513
(lp514
(lp515
I33
aI1
aI433
aasS'f3_2'
p516
(lp517
(lp518
I73
aI149
aI482
aasS'f3_3'
p519
(lp520
(lp521
I40
aI79
aI500
aasS'f3_4'
p522
(lp523
(lp524
I73
aI149
aI482
aasS'f8_23'
p525
(lp526
(lp527
I36
aI167
aI498
aasS'f8_21'
p528
(lp529
(lp530
I36
aI239
aI498
aasS'f3_9'
p531
(lp532
(lp533
I74
aI1
aI391
aasS'f8_28'
p534
(lp535
(lp536
I33
aI61
aI378
aasS'ID_17_F1_0_F2_19_G_4_SplitPt_103_GenID_0'
p537
(lp538
(lp539
I75
aI1
aI106
aa(lp540
I16
aI86
aI500
aasS'f1_6'
p541
(lp542
(lp543
I76
aI324
aI487
aasS'f1_4'
p544
(lp545
(lp546
I77
aI4
aI452
aasS'f1_5'
p547
(lp548
(lp549
I78
aI215
aI419
aasS'f1_3'
p550
(lp551
(lp552
I76
aI324
aI487
aasS'f1_0'
p553
(lp554
(lp555
I78
aI219
aI419
aasS'f1_1'
p556
(lp557
(lp558
I77
aI120
aI499
aasS'f9_8'
p559
(lp560
(lp561
I56
aI56
aI496
aasS'f9_9'
p562
(lp563
(lp564
I56
aI56
aI496
aasS'f9_6'
p565
(lp566
(lp567
I79
aI4
aI167
aa(lp568
I29
aI179
aI498
aasS'f9_7'
p569
(lp570
(lp571
I79
aI1
aI167
aa(lp572
I29
aI149
aI500
aasS'f9_4'
p573
(lp574
(lp575
I29
aI145
aI500
aasS'f9_5'
p576
(lp577
(lp578
I29
aI145
aI500
aasS'f9_3'
p579
(lp580
(lp581
I80
aI174
aI497
aasS'f9_1'
p582
(lp583
(lp584
I80
aI174
aI497
aasS'ID_57_F1_7_F2_15_G_2_SplitPt_117_GenID_0'
p585
(lp586
(lp587
I81
aI99
aI496
aasS'ID_21_F1_10_F2_1_G_4_SplitPt_103_GenID_0'
p588
(lp589
(lp590
I82
aI1
aI107
aa(lp591
I3
aI99
aI500
aasS'f9_29'
p592
(lp593
(lp594
I83
aI41
aI432
aasS'f9_28'
p595
(lp596
(lp597
I83
aI5
aI468
aasS'f2_29'
p598
(lp599
(lp600
I13
aI82
aI493
aasS'f9_25'
p601
(lp602
(lp603
I84
aI1
aI493
aasS'f9_27'
p604
(lp605
(lp606
I84
aI47
aI493
aasS'f9_26'
p607
(lp608
(lp609
I84
aI1
aI422
aasS'f9_20'
p610
(lp611
(lp612
I57
aI10
aI326
aasS'f5_21'
p613
(lp614
(lp615
I85
aI7
aI397
aa(lp616
I59
aI200
aI477
aasS'f5_20'
p617
(lp618
(lp619
I59
aI85
aI398
aasS'f5_23'
p620
(lp621
(lp622
I20
aI1
aI227
aasS'f5_22'
p623
(lp624
(lp625
I85
aI7
aI397
aa(lp626
I20
aI1
aI248
aasS'f5_27'
p627
(lp628
(lp629
I86
aI60
aI218
aasS'f5_29'
p630
(lp631
(lp632
I87
aI16
aI228
aasS'f5_28'
p633
(lp634
(lp635
I87
aI15
aI228
aasS'f15_30'
p636
(lp637
(lp638
I5
aI72
aI500
aasS'f4_28'
p639
(lp640
(lp641
I88
aI270
aI492
aasS'f4_29'
p642
(lp643
(lp644
I27
aI56
aI491
aasS'f15_31'
p645
(lp646
(lp647
I5
aI74
aI500
aasS'f4_22'
p648
(lp649
(lp650
I89
aI110
aI487
aasS'f4_23'
p651
(lp652
(lp653
I88
aI269
aI492
aasS'f4_20'
p654
(lp655
(lp656
I89
aI74
aI500
aasS'f4_21'
p657
(lp658
(lp659
I89
aI41
aI500
aasS'f4_26'
p660
(lp661
(lp662
I90
aI7
aI404
aasS'f4_27'
p663
(lp664
(lp665
I90
aI1
aI437
aasS'f4_24'
p666
(lp667
(lp668
I90
aI1
aI437
aasS'ID_38_F1_7_F2_18_G_2_SplitPt_81_GenID_0'
p669
(lp670
(lp671
I91
aI266
aI446
aasS'ID_20_F1_5_F2_9_G_2_SplitPt_230_GenID_0'
p672
(lp673
(lp674
I86
aI60
aI218
aasS'f0_30'
p675
(lp676
(lp677
I72
aI35
aI337
aasS'ID_16_F1_18_F2_12_G_4_SplitPt_96_GenID_0'
p678
(lp679
(lp680
I92
aI89
aI150
aa(lp681
I93
aI1
aI98
aasS'f17_30'
p682
(lp683
(lp684
I19
aI2
aI408
aasS'f17_31'
p685
(lp686
(lp687
I19
aI59
aI389
aasS'f7_16'
p688
(lp689
(lp690
I94
aI1
aI93
aasS'f1_19'
p691
(lp692
(lp693
I3
aI49
aI499
aasS'f7_17'
p694
(lp695
(lp696
I94
aI1
aI93
aasS'f1_15'
p697
(lp698
(lp699
I95
aI14
aI318
aasS'f1_11'
p700
(lp701
(lp702
I95
aI14
aI318
aasS'f10_31'
p703
(lp704
(lp705
I43
aI1
aI234
aasS'f10_30'
p706
(lp707
(lp708
I42
aI127
aI471
aasS'f19_9'
p709
(lp710
(lp711
I96
aI3
aI340
aasS'f3_18'
p712
(lp713
(lp714
I97
aI327
aI472
aa(lp715
I18
aI4
aI144
aa(lp716
I9
aI13
aI459
aasS'f3_19'
p717
(lp718
(lp719
I18
aI1
aI219
aa(lp720
I9
aI29
aI468
aasS'ID_14_F1_5_F2_16_G_4_SplitPt_233_GenID_0'
p721
(lp722
(lp723
I87
aI1
aI237
aa(lp724
I98
aI227
aI500
aasS'f3_12'
p725
(lp726
(lp727
I99
aI4
aI104
aasS'f3_13'
p728
(lp729
(lp730
I99
aI9
aI98
aasS'f3_10'
p731
(lp732
(lp733
I74
aI1
aI391
aasS'f19_2'
p734
(lp735
(lp736
I31
aI34
aI483
aasS'f3_16'
p737
(lp738
(lp739
I18
aI19
aI163
aa(lp740
I9
aI29
aI459
aasS'f3_17'
p741
(lp742
(lp743
I18
aI4
aI146
aa(lp744
I9
aI89
aI499
aasS'f19_7'
p745
(lp746
(lp747
I100
aI80
aI498
aasS'f18_31'
p748
(lp749
(lp750
I53
aI5
aI497
aasS'f18_30'
p751
(lp752
(lp753
I53
aI48
aI492
aasS'ID_27_F1_14_F2_11_G_1_SplitPt_154_GenID_0'
p754
(lp755
(lp756
I21
aI1
aI162
aasS'f6_9'
p757
(lp758
(lp759
I101
aI91
aI494
aasS'f6_5'
p760
(lp761
(lp762
I8
aI51
aI500
aasS'f6_4'
p763
(lp764
(lp765
I8
aI52
aI498
aasS'f6_7'
p766
(lp767
(lp768
I8
aI52
aI490
aasS'f6_6'
p769
(lp770
(lp771
I8
aI57
aI492
aasS'f6_1'
p772
(lp773
(lp774
I102
aI31
aI135
aasS'f6_0'
p775
(lp776
(lp777
I103
aI53
aI492
aasS'f6_3'
p778
(lp779
(lp780
I102
aI2
aI134
aasS'f6_2'
p781
(lp782
(lp783
I103
aI53
aI492
aa(lp784
I102
aI1
aI166
aasS'f4_3'
p785
(lp786
(lp787
I104
aI205
aI349
aasS'f4_2'
p788
(lp789
(lp790
I105
aI4
aI489
aasS'f4_1'
p791
(lp792
(lp793
I65
aI1
aI152
aa(lp794
I105
aI149
aI484
aasS'f4_0'
p795
(lp796
(lp797
I65
aI1
aI103
aasS'f4_7'
p798
(lp799
(lp800
I105
aI4
aI397
aasS'f4_6'
p801
(lp802
(lp803
I105
aI4
aI489
aasS'f4_4'
p804
(lp805
(lp806
I105
aI142
aI486
aasS'f17_2'
p807
(lp808
(lp809
I19
aI193
aI500
aasS'f17_3'
p810
(lp811
(lp812
I106
aI8
aI411
aa(lp813
I19
aI193
aI500
aasS'f17_0'
p814
(lp815
(lp816
I19
aI131
aI496
aasS'f17_1'
p817
(lp818
(lp819
I19
aI25
aI499
aasS'f17_4'
p820
(lp821
(lp822
I106
aI8
aI411
aasS'ID_44_F1_1_F2_4_G_3_SplitPt_147_GenID_0'
p823
(lp824
(lp825
I104
aI205
aI349
aa(lp826
I107
aI3
aI143
aasS'f7_23'
p827
(lp828
(lp829
I28
aI157
aI497
aasS'f7_22'
p830
(lp831
(lp832
I28
aI157
aI495
aasS'f8_5'
p833
(lp834
(lp835
I108
aI2
aI161
aa(lp836
I37
aI295
aI500
aasS'f8_4'
p837
(lp838
(lp839
I109
aI13
aI435
aa(lp840
I37
aI331
aI478
aasS'f8_3'
p841
(lp842
(lp843
I110
aI107
aI498
aasS'f8_2'
p844
(lp845
(lp846
I110
aI118
aI498
aasS'f7_25'
p847
(lp848
(lp849
I111
aI133
aI322
aasS'f8_0'
p850
(lp851
(lp852
I109
aI14
aI435
aa(lp853
I108
aI2
aI161
aasS'f7_29'
p854
(lp855
(lp856
I61
aI23
aI229
aasS'f7_28'
p857
(lp858
(lp859
I60
aI13
aI463
aasS'f8_9'
p860
(lp861
(lp862
I33
aI33
aI492
aasS'f16_16'
p863
(lp864
(lp865
I112
aI52
aI480
aasS'f11_1'
p866
(lp867
(lp868
I23
aI329
aI497
aasS'f11_2'
p869
(lp870
(lp871
I7
aI1
aI71
aasS'f11_3'
p872
(lp873
(lp874
I7
aI1
aI52
aa(lp875
I26
aI66
aI493
aasS'f11_8'
p876
(lp877
(lp878
I26
aI27
aI466
aasS'f11_9'
p879
(lp880
(lp881
I26
aI25
aI498
aasS'f13_6'
p882
(lp883
(lp884
I113
aI43
aI492
aasS'f13_7'
p885
(lp886
(lp887
I114
aI43
aI492
aasS'f13_4'
p888
(lp889
(lp890
I114
aI1
aI427
aasS'f13_5'
p891
(lp892
(lp893
I52
aI1
aI398
aasS'f13_2'
p894
(lp895
(lp896
I114
aI43
aI396
aasS'f13_0'
p897
(lp898
(lp899
I114
aI1
aI492
aasS'f13_1'
p900
(lp901
(lp902
I52
aI87
aI346
aasS'f2_1'
p903
(lp904
(lp905
I11
aI50
aI183
aasS'f2_0'
p906
(lp907
(lp908
I115
aI42
aI318
aasS'f2_3'
p909
(lp910
(lp911
I11
aI27
aI276
aasS'f2_2'
p912
(lp913
(lp914
I66
aI31
aI465
aa(lp915
I11
aI27
aI281
aasS'f2_5'
p916
(lp917
(lp918
I66
aI50
aI495
aasS'f2_4'
p919
(lp920
(lp921
I11
aI81
aI412
aasS'f13_8'
p922
(lp923
(lp924
I47
aI18
aI215
aasS'f2_6'
p925
(lp926
(lp927
I115
aI42
aI318
aa(lp928
I11
aI31
aI192
aasS'f15_4'
p929
(lp930
(lp931
I38
aI4
aI124
aasS'f15_6'
p932
(lp933
(lp934
I6
aI387
aI498
aasS'f15_7'
p935
(lp936
(lp937
I41
aI185
aI499
aasS'f15_0'
p938
(lp939
(lp940
I81
aI284
aI496
aasS'f15_1'
p941
(lp942
(lp943
I81
aI2
aI403
aasS'f15_2'
p944
(lp945
(lp946
I81
aI104
aI496
aasS'f15_3'
p947
(lp948
(lp949
I81
aI2
aI457
aasS'f0_7'
p950
(lp951
(lp952
I116
aI30
aI475
aasS'f0_6'
p953
(lp954
(lp955
I117
aI11
aI181
aasS'f0_5'
p956
(lp957
(lp958
I118
aI312
aI473
aa(lp959
I46
aI65
aI220
aasS'f0_4'
p960
(lp961
(lp962
I45
aI63
aI190
aasS'f0_3'
p963
(lp964
(lp965
I117
aI11
aI181
aa(lp966
I75
aI2
aI106
aa(lp967
I116
aI19
aI475
aasS'f0_2'
p968
(lp969
(lp970
I75
aI1
aI106
aasS'f0_1'
p971
(lp972
(lp973
I119
aI1
aI137
aasS'f0_0'
p974
(lp975
(lp976
I118
aI317
aI473
aa(lp977
I119
aI1
aI149
aasS'ID_15_F1_9_F2_8_G_3_SplitPt_167_GenID_0'
p978
(lp979
(lp980
I79
aI1
aI167
aa(lp981
I36
aI167
aI498
aasS'ID_11_F1_6_F2_9_G_4_SplitPt_144_GenID_0'
p982
(lp983
(lp984
I120
aI1
aI144
aa(lp985
I29
aI145
aI500
aasS'ID_52_F1_2_F2_12_G_2_SplitPt_222_GenID_0'
p986
(lp987
(lp988
I22
aI222
aI486
aasS'ID_42_F1_6_F2_2_G_4_SplitPt_134_GenID_0'
p989
(lp990
(lp991
I102
aI1
aI168
aa(lp992
I11
aI134
aI500
aasS'f16_13'
p993
(lp994
(lp995
I121
aI60
aI486
aasS'f16_12'
p996
(lp997
(lp998
I121
aI12
aI500
aasS'f16_17'
p999
(lp1000
(lp1001
I112
aI52
aI489
aasS'f19_11'
p1002
(lp1003
(lp1004
I68
aI2
aI433
aasS'f16_15'
p1005
(lp1006
(lp1007
I121
aI106
aI500
aasS'f16_14'
p1008
(lp1009
(lp1010
I121
aI21
aI486
aasS'ID_12_F1_11_F2_17_G_4_SplitPt_103_GenID_0'
p1011
(lp1012
(lp1013
I25
aI1
aI105
aa(lp1014
I10
aI79
aI500
aasS'f16_19'
p1015
(lp1016
(lp1017
I112
aI52
aI483
aasS'f16_18'
p1018
(lp1019
(lp1020
I112
aI3
aI491
aasS'f6_24'
p1021
(lp1022
(lp1023
I120
aI2
aI144
aasS'f6_25'
p1024
(lp1025
(lp1026
I120
aI1
aI144
aasS'f6_27'
p1027
(lp1028
(lp1029
I70
aI276
aI370
aa(lp1030
I71
aI273
aI320
aasS'f6_20'
p1031
(lp1032
(lp1033
I122
aI7
aI448
aasS'ID_34_F1_12_F2_12_G_4_SplitPt_145_GenID_0'
p1034
(lp1035
(lp1036
I92
aI89
aI150
aasS'f6_22'
p1037
(lp1038
(lp1039
I122
aI7
aI490
aasS'f6_28'
p1040
(lp1041
(lp1042
I67
aI149
aI500
aasS'f6_29'
p1043
(lp1044
(lp1045
I67
aI149
aI499
aasS'f1_25'
p1046
(lp1047
(lp1048
I3
aI79
aI500
aasS'f1_24'
p1049
(lp1050
(lp1051
I3
aI110
aI500
aasS'f1_27'
p1052
(lp1053
(lp1054
I3
aI87
aI500
aasS'f1_26'
p1055
(lp1056
(lp1057
I3
aI109
aI497
aasS'f1_21'
p1058
(lp1059
(lp1060
I3
aI49
aI498
aasS'f1_20'
p1061
(lp1062
(lp1063
I3
aI228
aI491
aasS'f1_23'
p1064
(lp1065
(lp1066
I107
aI3
aI143
aa(lp1067
I3
aI99
aI498
aasS'f1_22'
p1068
(lp1069
(lp1070
I107
aI3
aI141
aa(lp1071
I3
aI79
aI499
aasS'f14_15'
p1072
(lp1073
(lp1074
I21
aI1
aI483
aasS'f14_14'
p1075
(lp1076
(lp1077
I21
aI164
aI437
aasS'f14_17'
p1078
(lp1079
(lp1080
I21
aI90
aI461
aasS'f14_16'
p1081
(lp1082
(lp1083
I123
aI29
aI423
aasS'f14_11'
p1084
(lp1085
(lp1086
I21
aI1
aI500
aasS'f14_10'
p1087
(lp1088
(lp1089
I124
aI112
aI292
aasS'f14_13'
p1090
(lp1091
(lp1092
I125
aI278
aI463
aa(lp1093
I21
aI2
aI437
aasS'f14_12'
p1094
(lp1095
(lp1096
I21
aI55
aI469
aasS'f0_12'
p1097
(lp1098
(lp1099
I72
aI48
aI485
aasS'f2_31'
p1100
(lp1101
(lp1102
I13
aI1
aI487
aasS'f2_30'
p1103
(lp1104
(lp1105
I126
aI83
aI254
aasS'ID_55_F1_3_F2_8_G_3_SplitPt_106_GenID_0'
p1106
(lp1107
(lp1108
I127
aI10
aI106
aa(lp1109
I110
aI107
aI498
aasS'f8_8'
p1110
(lp1111
(lp1112
I33
aI47
aI492
aasS'ID_19_F1_7_F2_4_G_4_SplitPt_93_GenID_0'
p1113
(lp1114
(lp1115
I94
aI1
aI93
aa(lp1116
I89
aI94
aI500
aasS'f13_30'
p1117
(lp1118
(lp1119
I128
aI40
aI407
aasS'f8_13'
p1120
(lp1121
(lp1122
I33
aI1
aI489
aasS'f8_12'
p1123
(lp1124
(lp1125
I17
aI32
aI480
aasS'f8_11'
p1126
(lp1127
(lp1128
I129
aI316
aI434
aa(lp1129
I130
aI11
aI224
aasS'f8_10'
p1130
(lp1131
(lp1132
I130
aI3
aI254
aa(lp1133
I33
aI86
aI479
aasS'f8_17'
p1134
(lp1135
(lp1136
I35
aI54
aI479
aasS'f8_16'
p1137
(lp1138
(lp1139
I35
aI7
aI476
aasS'f8_15'
p1140
(lp1141
(lp1142
I33
aI50
aI492
aasS'f8_14'
p1143
(lp1144
(lp1145
I33
aI47
aI492
aasS'f8_18'
p1146
(lp1147
(lp1148
I35
aI54
aI479
aasS'ID_9_F1_18_F2_7_G_2_SplitPt_155_GenID_0'
p1149
(lp1150
(lp1151
I28
aI156
aI497
aasS'ID_45_F1_14_F2_5_G_4_SplitPt_85_GenID_0'
p1152
(lp1153
(lp1154
I1
aI79
aI500
aa(lp1155
I21
aI1
aI86
aasS'f18_0'
p1156
(lp1157
(lp1158
I91
aI266
aI446
aa(lp1159
I131
aI8
aI399
aasS'f18_3'
p1160
(lp1161
(lp1162
I93
aI2
aI98
aa(lp1163
I131
aI36
aI440
aasS'f18_2'
p1164
(lp1165
(lp1166
I93
aI1
aI98
aa(lp1167
I131
aI42
aI460
aasS'f18_5'
p1168
(lp1169
(lp1170
I131
aI10
aI440
aasS'f18_6'
p1171
(lp1172
(lp1173
I131
aI36
aI446
aasS'f18_9'
p1174
(lp1175
(lp1176
I131
aI80
aI438
aasS'f18_8'
p1177
(lp1178
(lp1179
I131
aI97
aI435
aasS'ID_58_F1_13_F2_12_G_4_SplitPt_204_GenID_0'
p1180
(lp1181
(lp1182
I2
aI320
aI461
aa(lp1183
I128
aI1
aI220
aasS'ID_61_F1_6_F2_13_G_2_SplitPt_124_GenID_0'
p1184
(lp1185
(lp1186
I48
aI38
aI467
aasS'f9_30'
p1187
(lp1188
(lp1189
I83
aI35
aI468
aasS'f9_31'
p1190
(lp1191
(lp1192
I83
aI5
aI330
aasS'f5_30'
p1193
(lp1194
(lp1195
I132
aI13
aI457
aa(lp1196
I87
aI1
aI233
aasS'f5_31'
p1197
(lp1198
(lp1199
I87
aI1
aI237
aasS'ID_28_F1_15_F2_8_G_2_SplitPt_81_GenID_0'
p1200
(lp1201
(lp1202
I129
aI316
aI434
aasS'f16_28'
p1203
(lp1204
(lp1205
I133
aI37
aI211
aasS'f14_9'
p1206
(lp1207
(lp1208
I21
aI5
aI202
aasS'f14_8'
p1209
(lp1210
(lp1211
I125
aI278
aI463
aasS'f16_22'
p1212
(lp1213
(lp1214
I55
aI10
aI143
aasS'f16_23'
p1215
(lp1216
(lp1217
I55
aI20
aI162
aasS'f16_20'
p1218
(lp1219
(lp1220
I55
aI1
aI161
aa(lp1221
I32
aI74
aI500
aasS'f16_21'
p1222
(lp1223
(lp1224
I55
aI2
aI162
aa(lp1225
I32
aI74
aI498
aasS'f16_26'
p1226
(lp1227
(lp1228
I133
aI35
aI211
aa(lp1229
I32
aI74
aI500
aasS'f14_0'
p1230
(lp1231
(lp1232
I21
aI209
aI469
aa(lp1233
I21
aI50
aI130
aasS'f14_3'
p1234
(lp1235
(lp1236
I124
aI112
aI292
aasS'f14_2'
p1237
(lp1238
(lp1239
I123
aI19
aI466
aa(lp1240
I21
aI222
aI471
aa(lp1241
I21
aI11
aI128
aasS'f16_2'
p1242
(lp1243
(lp1244
I98
aI84
aI479
aasS'f16_7'
p1245
(lp1246
(lp1247
I134
aI1
aI183
aa(lp1248
I98
aI84
aI499
aasS'f16_6'
p1249
(lp1250
(lp1251
I134
aI7
aI180
aa(lp1252
I98
aI234
aI500
aasS'f16_5'
p1253
(lp1254
(lp1255
I134
aI6
aI160
aa(lp1256
I98
aI235
aI497
aasS'f16_4'
p1257
(lp1258
(lp1259
I98
aI227
aI497
aasS'f0_26'
p1260
(lp1261
(lp1262
I72
aI1
aI382
aasS'f0_27'
p1263
(lp1264
(lp1265
I72
aI35
aI384
aasS'f0_24'
p1266
(lp1267
(lp1268
I72
aI12
aI432
aasS'f0_25'
p1269
(lp1270
(lp1271
I72
aI1
aI398
aasS'f0_22'
p1272
(lp1273
(lp1274
I135
aI4
aI279
aasS'f0_23'
p1275
(lp1276
(lp1277
I135
aI26
aI286
aasS'f0_20'
p1278
(lp1279
(lp1280
I135
aI58
aI289
aasS'f17_21'
p1281
(lp1282
(lp1283
I136
aI341
aI494
aa(lp1284
I19
aI25
aI492
aasS'f17_20'
p1285
(lp1286
(lp1287
I19
aI134
aI495
aasS'f17_22'
p1288
(lp1289
(lp1290
I19
aI61
aI479
aasS'f17_25'
p1291
(lp1292
(lp1293
I19
aI136
aI490
aasS'f17_26'
p1294
(lp1295
(lp1296
I137
aI184
aI500
aasS'f17_29'
p1297
(lp1298
(lp1299
I19
aI178
aI492
aasS'f17_28'
p1300
(lp1301
(lp1302
I19
aI2
aI488
aasS'ID_0_F1_10_F2_7_G_4_SplitPt_242_GenID_0'
p1303
(lp1304
(lp1305
I138
aI135
aI239
aa(lp1306
I60
aI225
aI500
aasS'ID_7_F1_16_F2_13_G_4_SplitPt_183_GenID_0'
p1307
(lp1308
(lp1309
I134
aI1
aI183
aa(lp1310
I48
aI147
aI500
aasS'ID_49_F1_7_F2_2_G_4_SplitPt_189_GenID_0'
p1311
(lp1312
(lp1313
I62
aI1
aI193
aa(lp1314
I13
aI159
aI500
aasS'f10_9'
p1315
(lp1316
(lp1317
I82
aI1
aI103
aa(lp1318
I139
aI174
aI461
aasS'f10_8'
p1319
(lp1320
(lp1321
I82
aI1
aI107
aasS'f10_1'
p1322
(lp1323
(lp1324
I139
aI9
aI467
aasS'f10_0'
p1325
(lp1326
(lp1327
I139
aI28
aI467
aasS'f10_3'
p1328
(lp1329
(lp1330
I139
aI39
aI378
aasS'f10_2'
p1331
(lp1332
(lp1333
I139
aI9
aI430
aasS'f10_5'
p1334
(lp1335
(lp1336
I139
aI41
aI457
aasS'f10_4'
p1337
(lp1338
(lp1339
I139
aI1
aI496
aasS'f10_7'
p1340
(lp1341
(lp1342
I139
aI1
aI467
aasS'f10_6'
p1343
(lp1344
(lp1345
I139
aI64
aI467
aasS'f4_17'
p1346
(lp1347
(lp1348
I89
aI41
aI498
aasS'f4_16'
p1349
(lp1350
(lp1351
I89
aI44
aI489
aasS'f12_9'
p1352
(lp1353
(lp1354
I22
aI57
aI486
aasS'f12_8'
p1355
(lp1356
(lp1357
I22
aI1
aI490
aasS'f12_7'
p1358
(lp1359
(lp1360
I22
aI99
aI354
aasS'f12_6'
p1361
(lp1362
(lp1363
I22
aI91
aI347
aasS'f12_5'
p1364
(lp1365
(lp1366
I22
aI85
aI371
aasS'f12_4'
p1367
(lp1368
(lp1369
I22
aI53
aI495
aasS'f12_3'
p1370
(lp1371
(lp1372
I22
aI78
aI418
aasS'f12_2'
p1373
(lp1374
(lp1375
I22
aI30
aI495
aasS'f12_1'
p1376
(lp1377
(lp1378
I22
aI41
aI489
aasS'f12_0'
p1379
(lp1380
(lp1381
I22
aI30
aI478
aasS'f3_27'
p1382
(lp1383
(lp1384
I9
aI53
aI482
aasS'f3_26'
p1385
(lp1386
(lp1387
I127
aI10
aI106
aa(lp1388
I9
aI17
aI499
aasS'f3_25'
p1389
(lp1390
(lp1391
I97
aI327
aI472
aa(lp1392
I9
aI124
aI465
aasS'f3_24'
p1393
(lp1394
(lp1395
I15
aI190
aI289
aa(lp1396
I140
aI18
aI233
aa(lp1397
I141
aI334
aI493
aasS'f3_22'
p1398
(lp1399
(lp1400
I9
aI177
aI443
aasS'f3_21'
p1401
(lp1402
(lp1403
I18
aI12
aI219
aasS'f3_20'
p1404
(lp1405
(lp1406
I141
aI334
aI493
aa(lp1407
I18
aI1
aI154
aasS'f3_29'
p1408
(lp1409
(lp1410
I9
aI4
aI435
aasS'f3_28'
p1411
(lp1412
(lp1413
I140
aI18
aI233
aa(lp1414
I142
aI72
aI499
aasS'f6_19'
p1415
(lp1416
(lp1417
I143
aI3
aI418
aasS'f6_15'
p1418
(lp1419
(lp1420
I101
aI89
aI494
aasS'f6_16'
p1421
(lp1422
(lp1423
I143
aI3
aI418
aasS'ID_48_F1_8_F2_17_G_3_SplitPt_222_GenID_0'
p1424
(lp1425
(lp1426
I130
aI3
aI254
aa(lp1427
I19
aI228
aI500
aasS'f7_30'
p1428
(lp1429
(lp1430
I60
aI32
aI476
aasS'f7_31'
p1431
(lp1432
(lp1433
I111
aI133
aI326
aasS'f12_17'
p1434
(lp1435
(lp1436
I22
aI217
aI458
aasS'f12_16'
p1437
(lp1438
(lp1439
I22
aI82
aI496
aasS'f12_15'
p1440
(lp1441
(lp1442
I22
aI29
aI499
aasS'f12_14'
p1443
(lp1444
(lp1445
I22
aI54
aI489
aasS'f12_13'
p1446
(lp1447
(lp1448
I22
aI86
aI498
aasS'f12_12'
p1449
(lp1450
(lp1451
I2
aI320
aI461
aasS'f12_11'
p1452
(lp1453
(lp1454
I22
aI1
aI500
aasS'f12_10'
p1455
(lp1456
(lp1457
I22
aI1
aI500
aasS'ID_63_F1_0_F2_10_G_4_SplitPt_130_GenID_0'
p1458
(lp1459
(lp1460
I138
aI135
aI239
aa(lp1461
I119
aI1
aI150
aasS'f12_19'
p1462
(lp1463
(lp1464
I22
aI150
aI496
aasS'f12_18'
p1465
(lp1466
(lp1467
I22
aI82
aI497
aasS'f18_19'
p1468
(lp1469
(lp1470
I53
aI52
aI497
aasS'f18_18'
p1471
(lp1472
(lp1473
I53
aI48
aI490
aasS'f18_11'
p1474
(lp1475
(lp1476
I144
aI40
aI235
aasS'f18_10'
p1477
(lp1478
(lp1479
I145
aI13
aI242
aa(lp1480
I131
aI58
aI443
aasS'f18_12'
p1481
(lp1482
(lp1483
I144
aI40
aI235
aa(lp1484
I131
aI58
aI443
aasS'f18_15'
p1485
(lp1486
(lp1487
I145
aI13
aI242
aasS'f18_14'
p1488
(lp1489
(lp1490
I131
aI10
aI435
aasS'f18_17'
p1491
(lp1492
(lp1493
I53
aI102
aI497
aasS'f18_16'
p1494
(lp1495
(lp1496
I53
aI102
aI494
aasS'f19_0'
p1497
(lp1498
(lp1499
I30
aI172
aI353
aasS'f19_1'
p1500
(lp1501
(lp1502
I31
aI3
aI483
aasS'ID_5_F1_3_F2_3_G_3_SplitPt_81_GenID_0'
p1503
(lp1504
(lp1505
I99
aI4
aI102
aa(lp1506
I9
aI57
aI499
aasS'f0_13'
p1507
(lp1508
(lp1509
I72
aI66
aI496
aasS'f14_29'
p1510
(lp1511
(lp1512
I146
aI85
aI270
aasS'f12_22'
p1513
(lp1514
(lp1515
I22
aI140
aI499
aasS'f14_22'
p1516
(lp1517
(lp1518
I146
aI72
aI198
aasS'f14_23'
p1519
(lp1520
(lp1521
I146
aI40
aI286
aasS'f14_24'
p1522
(lp1523
(lp1524
I34
aI4
aI499
aasS'f14_25'
p1525
(lp1526
(lp1527
I146
aI48
aI285
aa(lp1528
I34
aI68
aI498
aasS'f14_26'
p1529
(lp1530
(lp1531
I34
aI61
aI499
aasS'f14_27'
p1532
(lp1533
(lp1534
I34
aI4
aI417
aasS'f2_28'
p1535
(lp1536
(lp1537
I13
aI148
aI434
aasS'f10_10'
p1538
(lp1539
(lp1540
I139
aI126
aI379
aasS'f10_13'
p1541
(lp1542
(lp1543
I139
aI8
aI457
aasS'f10_12'
p1544
(lp1545
(lp1546
I139
aI8
aI496
aasS'f10_15'
p1547
(lp1548
(lp1549
I139
aI82
aI497
aasS'f12_20'
p1550
(lp1551
(lp1552
I22
aI142
aI488
aasS'f10_17'
p1553
(lp1554
(lp1555
I147
aI5
aI454
aasS'f10_16'
p1556
(lp1557
(lp1558
I44
aI61
aI490
aasS'f10_19'
p1559
(lp1560
(lp1561
I147
aI5
aI453
aasS'f2_21'
p1562
(lp1563
(lp1564
I148
aI16
aI440
aa(lp1565
I13
aI191
aI449
aasS'f2_22'
p1566
(lp1567
(lp1568
I12
aI23
aI236
aasS'f2_23'
p1569
(lp1570
(lp1571
I14
aI96
aI235
aasS'f2_24'
p1572
(lp1573
(lp1574
I64
aI76
aI174
aa(lp1575
I13
aI82
aI498
aasS'f2_25'
p1576
(lp1577
(lp1578
I126
aI83
aI254
aasS'f2_26'
p1579
(lp1580
(lp1581
I13
aI230
aI485
aasS'f7_9'
p1582
(lp1583
(lp1584
I62
aI2
aI193
aa(lp1585
I60
aI72
aI492
aasS'f13_25'
p1586
(lp1587
(lp1588
I128
aI1
aI455
aasS'f13_24'
p1589
(lp1590
(lp1591
I50
aI48
aI493
aa(lp1592
I128
aI1
aI220
aasS'f13_27'
p1593
(lp1594
(lp1595
I128
aI1
aI440
aasS'f13_26'
p1596
(lp1597
(lp1598
I128
aI48
aI198
aasS'f13_21'
p1599
(lp1600
(lp1601
I50
aI220
aI426
aasS'f13_20'
p1602
(lp1603
(lp1604
I50
aI63
aI380
aasS'f13_23'
p1605
(lp1606
(lp1607
I128
aI117
aI455
aasS'f13_22'
p1608
(lp1609
(lp1610
I52
aI209
aI479
aa(lp1611
I128
aI1
aI297
aasS'f13_29'
p1612
(lp1613
(lp1614
I52
aI1
aI484
aasS'f13_28'
p1615
(lp1616
(lp1617
I51
aI168
aI483
aa(lp1618
I114
aI1
aI414
aasS'f6_21'
p1619
(lp1620
(lp1621
I122
aI43
aI490
aasS'f16_31'
p1622
(lp1623
(lp1624
I32
aI22
aI420
aasS'f19_10'
p1625
(lp1626
(lp1627
I96
aI3
aI340
aasS'f0_18'
p1628
(lp1629
(lp1630
I135
aI1
aI260
aasS'f12_29'
p1631
(lp1632
(lp1633
I149
aI105
aI451
aasS'f12_26'
p1634
(lp1635
(lp1636
I149
aI32
aI475
aasS'f12_27'
p1637
(lp1638
(lp1639
I150
aI27
aI460
aasS'f12_24'
p1640
(lp1641
(lp1642
I150
aI27
aI460
aasS'f12_25'
p1643
(lp1644
(lp1645
I149
aI32
aI475
aasS'f0_17'
p1646
(lp1647
(lp1648
I151
aI58
aI493
aa(lp1649
I135
aI25
aI292
aasS'f12_23'
p1650
(lp1651
(lp1652
I22
aI136
aI500
aasS'f0_15'
p1653
(lp1654
(lp1655
I72
aI48
aI467
aasS'f0_14'
p1656
(lp1657
(lp1658
I72
aI59
aI475
aasS'f18_1'
p1659
(lp1660
(lp1661
I131
aI10
aI480
aasS'f17_14'
p1662
(lp1663
(lp1664
I152
aI89
aI475
aasS'f17_16'
p1665
(lp1666
(lp1667
I19
aI220
aI406
aasS'f17_17'
p1668
(lp1669
(lp1670
I136
aI347
aI494
aasS'f17_10'
p1671
(lp1672
(lp1673
I10
aI105
aI499
aasS'f17_11'
p1674
(lp1675
(lp1676
I10
aI102
aI500
aasS'f17_12'
p1677
(lp1678
(lp1679
I10
aI116
aI496
aasS'f17_13'
p1680
(lp1681
(lp1682
I152
aI89
aI475
aasS'f5_0'
p1683
(lp1684
(lp1685
I1
aI86
aI488
aas.