(dp1
S'f6_30'
p2
(lp3
(lp4
I1
aI1
aI500
aasS'ID_475_F1_8_F2_5_G_1_SplitPt_135_GenID_0'
p5
(lp6
(lp7
I2
aI2
aI135
aa(lp8
I1
aI99
aI497
aasS'ID_33_F1_19_F2_8_G_0_SplitPt_159_GenID_0'
p9
(lp10
(lp11
I2
aI8
aI500
aa(lp12
I3
aI1
aI154
aasS'ID_291_F1_15_F2_6_G_0_SplitPt_170_GenID_0'
p13
(lp14
(lp15
I1
aI1
aI500
aasS'ID_460_F1_18_F2_15_G_1_SplitPt_56_GenID_0'
p16
(lp17
(lp18
I1
aI54
aI499
aasS'ID_416_F1_9_F2_19_G_2_SplitPt_214_GenID_0'
p19
(lp20
(lp21
I3
aI166
aI500
aa(lp22
I1
aI1
aI271
aasS'f14_3'
p23
(lp24
(lp25
I1
aI1
aI499
aasS'f18_8'
p26
(lp27
(lp28
I4
aI185
aI310
aasS'ID_243_F1_6_F2_13_G_0_SplitPt_145_GenID_0'
p29
(lp30
(lp31
I5
aI36
aI498
aa(lp32
I1
aI1
aI148
aasS'ID_181_F1_14_F2_9_G_1_SplitPt_221_GenID_0'
p33
(lp34
(lp35
I6
aI231
aI348
aa(lp36
I7
aI287
aI371
aasS'ID_253_F1_18_F2_16_G_2_SplitPt_66_GenID_0'
p37
(lp38
(lp39
I8
aI72
aI146
aa(lp40
I9
aI4
aI78
aasS'ID_287_F1_11_F2_17_G_4_SplitPt_188_GenID_0'
p41
(lp42
(lp43
I10
aI1
aI206
aa(lp44
I1
aI76
aI500
aasS'f15_29'
p45
(lp46
(lp47
I1
aI2
aI500
aasS'f15_28'
p48
(lp49
(lp50
I1
aI1
aI500
aasS'f15_27'
p51
(lp52
(lp53
I1
aI1
aI496
aasS'ID_187_F1_17_F2_8_G_1_SplitPt_113_GenID_0'
p54
(lp55
(lp56
I2
aI23
aI500
aa(lp57
I1
aI3
aI113
aasS'f15_25'
p58
(lp59
(lp60
I1
aI1
aI500
aasS'f15_24'
p61
(lp62
(lp63
I1
aI1
aI500
aasS'f15_23'
p64
(lp65
(lp66
I1
aI1
aI500
aasS'f15_22'
p67
(lp68
(lp69
I1
aI1
aI500
aasS'ID_389_F1_6_F2_13_G_0_SplitPt_202_GenID_0'
p70
(lp71
(lp72
I5
aI115
aI498
aa(lp73
I1
aI1
aI219
aasS'f15_20'
p74
(lp75
(lp76
I11
aI39
aI80
aasS'f9_16'
p77
(lp78
(lp79
I1
aI1
aI500
aasS'ID_208_F1_7_F2_6_G_4_SplitPt_168_GenID_0'
p80
(lp81
(lp82
I1
aI1
aI500
aasS'ID_99_F1_6_F2_15_G_1_SplitPt_67_GenID_0'
p83
(lp84
(lp85
I12
aI1
aI63
aa(lp86
I1
aI52
aI500
aasS'f14_22'
p87
(lp88
(lp89
I1
aI1
aI500
aasS'f3_12'
p90
(lp91
(lp92
I1
aI1
aI500
aasS'f3_30'
p93
(lp94
(lp95
I1
aI1
aI500
aasS'f3_31'
p96
(lp97
(lp98
I1
aI1
aI500
aasS'ID_321_F1_13_F2_10_G_3_SplitPt_142_GenID_0'
p99
(lp100
(lp101
I5
aI1
aI153
aa(lp102
I1
aI138
aI500
aasS'f7_11'
p103
(lp104
(lp105
I1
aI1
aI500
aasS'ID_69_F1_2_F2_0_G_3_SplitPt_76_GenID_0'
p106
(lp107
(lp108
I13
aI51
aI500
aa(lp109
I14
aI1
aI77
aasS'ID_106_F1_2_F2_0_G_2_SplitPt_249_GenID_0'
p110
(lp111
(lp112
I13
aI221
aI500
aa(lp113
I14
aI1
aI251
aasS'f9_17'
p114
(lp115
(lp116
I1
aI1
aI500
aasS'ID_117_F1_16_F2_17_G_0_SplitPt_157_GenID_0'
p117
(lp118
(lp119
I1
aI27
aI500
aasS'f15_15'
p120
(lp121
(lp122
I1
aI1
aI500
aasS'f5_11'
p123
(lp124
(lp125
I1
aI1
aI500
aasS'ID_120_F1_6_F2_18_G_4_SplitPt_220_GenID_0'
p126
(lp127
(lp128
I15
aI394
aI468
aa(lp129
I16
aI141
aI240
aa(lp130
I1
aI1
aI236
aasS'ID_110_F1_8_F2_10_G_4_SplitPt_89_GenID_0'
p131
(lp132
(lp133
I2
aI1
aI130
aa(lp134
I1
aI70
aI500
aasS'f6_2'
p135
(lp136
(lp137
I1
aI1
aI500
aasS'ID_157_F1_1_F2_0_G_2_SplitPt_243_GenID_0'
p138
(lp139
(lp140
I17
aI391
aI497
aa(lp141
I14
aI1
aI320
aasS'f15_13'
p142
(lp143
(lp144
I1
aI1
aI500
aasS'ID_335_F1_4_F2_7_G_2_SplitPt_85_GenID_0'
p145
(lp146
(lp147
I5
aI1
aI92
aa(lp148
I1
aI31
aI500
aasS'ID_507_F1_9_F2_13_G_1_SplitPt_94_GenID_0'
p149
(lp150
(lp151
I5
aI71
aI500
aa(lp152
I1
aI1
aI104
aasS'ID_457_F1_10_F2_3_G_4_SplitPt_173_GenID_0'
p153
(lp154
(lp155
I1
aI1
aI500
aasS'f15_10'
p156
(lp157
(lp158
I1
aI1
aI500
aasS'ID_259_F1_18_F2_15_G_2_SplitPt_126_GenID_0'
p159
(lp160
(lp161
I18
aI62
aI119
aa(lp162
I1
aI76
aI499
aasS'ID_308_F1_8_F2_7_G_4_SplitPt_187_GenID_0'
p163
(lp164
(lp165
I2
aI1
aI264
aa(lp166
I1
aI152
aI500
aasS'f4_1'
p167
(lp168
(lp169
I5
aI1
aI500
aasS'ID_439_F1_12_F2_3_G_4_SplitPt_206_GenID_0'
p170
(lp171
(lp172
I19
aI1
aI256
aa(lp173
I1
aI114
aI500
aasS'f2_11'
p174
(lp175
(lp176
I20
aI186
aI280
aasS'f2_10'
p177
(lp178
(lp179
I14
aI2
aI499
aasS'f2_13'
p180
(lp181
(lp182
I14
aI1
aI500
aasS'f2_12'
p183
(lp184
(lp185
I14
aI1
aI500
aasS'ID_75_F1_11_F2_16_G_1_SplitPt_222_GenID_0'
p186
(lp187
(lp188
I10
aI2
aI254
aa(lp189
I1
aI211
aI498
aasS'f2_14'
p190
(lp191
(lp192
I14
aI1
aI500
aasS'f2_17'
p193
(lp194
(lp195
I14
aI1
aI500
aasS'f2_16'
p196
(lp197
(lp198
I14
aI2
aI500
aasS'f2_19'
p199
(lp200
(lp201
I14
aI1
aI500
aasS'f2_18'
p202
(lp203
(lp204
I14
aI1
aI500
aasS'ID_365_F1_8_F2_13_G_3_SplitPt_188_GenID_0'
p205
(lp206
(lp207
I2
aI1
aI236
aa(lp208
I5
aI156
aI500
aasS'ID_102_F1_3_F2_7_G_2_SplitPt_218_GenID_0'
p209
(lp210
(lp211
I1
aI1
aI499
aasS'ID_401_F1_3_F2_16_G_1_SplitPt_242_GenID_0'
p212
(lp213
(lp214
I21
aI241
aI350
aasS'f19_20'
p215
(lp216
(lp217
I3
aI1
aI500
aasS'ID_4_F1_5_F2_7_G_1_SplitPt_143_GenID_0'
p218
(lp219
(lp220
I1
aI2
aI500
aasS'ID_178_F1_10_F2_11_G_1_SplitPt_243_GenID_0'
p221
(lp222
(lp223
I10
aI200
aI500
aa(lp224
I1
aI1
aI246
aasS'ID_261_F1_6_F2_1_G_1_SplitPt_131_GenID_0'
p225
(lp226
(lp227
I14
aI90
aI500
aa(lp228
I1
aI1
aI151
aasS'f4_4'
p229
(lp230
(lp231
I5
aI1
aI498
aasS'ID_115_F1_7_F2_7_G_0_SplitPt_102_GenID_0'
p232
(lp233
(lp234
I1
aI3
aI498
aasS'ID_142_F1_12_F2_9_G_0_SplitPt_183_GenID_0'
p235
(lp236
(lp237
I19
aI1
aI202
aa(lp238
I1
aI161
aI500
aasS'f15_18'
p239
(lp240
(lp241
I1
aI1
aI500
aasS'f15_19'
p242
(lp243
(lp244
I1
aI1
aI500
aasS'f17_0'
p245
(lp246
(lp247
I1
aI1
aI500
aasS'ID_303_F1_3_F2_13_G_0_SplitPt_151_GenID_0'
p248
(lp249
(lp250
I22
aI75
aI152
aa(lp251
I5
aI112
aI500
aasS'ID_58_F1_0_F2_10_G_2_SplitPt_112_GenID_0'
p252
(lp253
(lp254
I23
aI360
aI433
aa(lp255
I13
aI1
aI180
aasS'f17_1'
p256
(lp257
(lp258
I1
aI2
aI499
aasS'f8_31'
p259
(lp260
(lp261
I2
aI1
aI500
aasS'f8_30'
p262
(lp263
(lp264
I2
aI1
aI500
aasS'ID_112_F1_6_F2_3_G_3_SplitPt_103_GenID_0'
p265
(lp266
(lp267
I1
aI3
aI500
aasS'ID_357_F1_0_F2_7_G_2_SplitPt_79_GenID_0'
p268
(lp269
(lp270
I13
aI1
aI88
aa(lp271
I1
aI47
aI500
aasS'ID_128_F1_13_F2_11_G_3_SplitPt_246_GenID_0'
p272
(lp273
(lp274
I10
aI215
aI500
aa(lp275
I5
aI1
aI293
aasS'ID_296_F1_9_F2_14_G_3_SplitPt_105_GenID_0'
p276
(lp277
(lp278
I24
aI119
aI240
aasS'f15_31'
p279
(lp280
(lp281
I1
aI1
aI498
aasS'f5_31'
p282
(lp283
(lp284
I1
aI3
aI499
aasS'ID_173_F1_13_F2_1_G_2_SplitPt_120_GenID_0'
p285
(lp286
(lp287
I14
aI74
aI500
aa(lp288
I5
aI2
aI121
aasS'ID_498_F1_8_F2_1_G_0_SplitPt_128_GenID_0'
p289
(lp290
(lp291
I2
aI1
aI119
aa(lp292
I14
aI53
aI500
aasS'ID_313_F1_8_F2_12_G_0_SplitPt_160_GenID_0'
p293
(lp294
(lp295
I19
aI141
aI499
aa(lp296
I2
aI1
aI164
aasS'ID_241_F1_7_F2_6_G_2_SplitPt_165_GenID_0'
p297
(lp298
(lp299
I16
aI163
aI224
aasS'ID_162_F1_5_F2_2_G_2_SplitPt_113_GenID_0'
p300
(lp301
(lp302
I14
aI93
aI500
aa(lp303
I1
aI1
aI187
aasS'ID_364_F1_16_F2_5_G_4_SplitPt_53_GenID_0'
p304
(lp305
(lp306
I1
aI1
aI500
aasS'f7_17'
p307
(lp308
(lp309
I1
aI1
aI500
aasS'ID_219_F1_10_F2_11_G_1_SplitPt_123_GenID_0'
p310
(lp311
(lp312
I10
aI64
aI500
aa(lp313
I1
aI2
aI146
aasS'ID_325_F1_13_F2_1_G_3_SplitPt_197_GenID_0'
p314
(lp315
(lp316
I14
aI106
aI500
aa(lp317
I5
aI2
aI218
aasS'f19_1'
p318
(lp319
(lp320
I3
aI1
aI500
aasS'ID_35_F1_10_F2_5_G_4_SplitPt_202_GenID_0'
p321
(lp322
(lp323
I1
aI1
aI500
aasS'f15_26'
p324
(lp325
(lp326
I1
aI1
aI500
aasS'ID_397_F1_8_F2_9_G_3_SplitPt_156_GenID_0'
p327
(lp328
(lp329
I25
aI72
aI152
aa(lp330
I1
aI119
aI500
aasS'ID_484_F1_0_F2_6_G_0_SplitPt_69_GenID_0'
p331
(lp332
(lp333
I1
aI39
aI497
aasS'ID_38_F1_18_F2_17_G_4_SplitPt_229_GenID_0'
p334
(lp335
(lp336
I26
aI1
aI312
aa(lp337
I1
aI206
aI500
aasS'ID_433_F1_10_F2_18_G_1_SplitPt_50_GenID_0'
p338
(lp339
(lp340
I26
aI36
aI495
aasS'ID_41_F1_15_F2_5_G_4_SplitPt_164_GenID_0'
p341
(lp342
(lp343
I27
aI104
aI231
aasS'f10_20'
p344
(lp345
(lp346
I1
aI1
aI500
aasS'ID_286_F1_4_F2_7_G_1_SplitPt_92_GenID_0'
p347
(lp348
(lp349
I1
aI31
aI499
aasS'ID_164_F1_9_F2_18_G_3_SplitPt_78_GenID_0'
p350
(lp351
(lp352
I28
aI1
aI79
aa(lp353
I26
aI68
aI500
aasS'f15_17'
p354
(lp355
(lp356
I1
aI1
aI500
aasS'f11_23'
p357
(lp358
(lp359
I10
aI2
aI500
aasS'f11_22'
p360
(lp361
(lp362
I10
aI1
aI500
aasS'f11_21'
p363
(lp364
(lp365
I10
aI1
aI500
aasS'f11_20'
p366
(lp367
(lp368
I10
aI2
aI500
aasS'f11_27'
p369
(lp370
(lp371
I10
aI2
aI500
aasS'f11_26'
p372
(lp373
(lp374
I10
aI2
aI500
aasS'f11_25'
p375
(lp376
(lp377
I10
aI2
aI498
aasS'f11_24'
p378
(lp379
(lp380
I10
aI2
aI500
aasS'ID_202_F1_15_F2_6_G_4_SplitPt_204_GenID_0'
p381
(lp382
(lp383
I29
aI119
aI183
aa(lp384
I30
aI147
aI198
aasS'f11_29'
p385
(lp386
(lp387
I10
aI1
aI500
aasS'f11_28'
p388
(lp389
(lp390
I10
aI2
aI500
aasS'ID_380_F1_17_F2_19_G_1_SplitPt_187_GenID_0'
p391
(lp392
(lp393
I3
aI172
aI500
aa(lp394
I1
aI1
aI211
aasS'f7_19'
p395
(lp396
(lp397
I1
aI1
aI500
aasS'ID_121_F1_14_F2_2_G_3_SplitPt_241_GenID_0'
p398
(lp399
(lp400
I31
aI180
aI241
aa(lp401
I24
aI119
aI240
aa(lp402
I14
aI189
aI500
aasS'ID_116_F1_4_F2_15_G_2_SplitPt_126_GenID_0'
p403
(lp404
(lp405
I32
aI372
aI461
aa(lp406
I5
aI1
aI161
aasS'ID_32_F1_15_F2_8_G_0_SplitPt_127_GenID_0'
p407
(lp408
(lp409
I2
aI55
aI498
aa(lp410
I1
aI1
aI165
aasS'f4_31'
p411
(lp412
(lp413
I5
aI1
aI500
aasS'ID_54_F1_7_F2_15_G_0_SplitPt_198_GenID_0'
p414
(lp415
(lp416
I33
aI167
aI327
aasS'ID_169_F1_4_F2_12_G_0_SplitPt_80_GenID_0'
p417
(lp418
(lp419
I19
aI35
aI500
aa(lp420
I5
aI1
aI118
aasS'f15_9'
p421
(lp422
(lp423
I1
aI1
aI500
aasS'ID_231_F1_5_F2_9_G_0_SplitPt_68_GenID_0'
p424
(lp425
(lp426
I1
aI53
aI500
aasS'f15_14'
p427
(lp428
(lp429
I1
aI1
aI500
aasS'ID_372_F1_17_F2_16_G_1_SplitPt_100_GenID_0'
p430
(lp431
(lp432
I1
aI3
aI500
aasS'f16_29'
p433
(lp434
(lp435
I1
aI1
aI500
aasS'ID_295_F1_4_F2_4_G_1_SplitPt_57_GenID_0'
p436
(lp437
(lp438
I5
aI5
aI500
aasS'ID_258_F1_8_F2_19_G_1_SplitPt_98_GenID_0'
p439
(lp440
(lp441
I2
aI2
aI102
aa(lp442
I3
aI71
aI500
aasS'f7_18'
p443
(lp444
(lp445
I1
aI1
aI500
aasS'ID_148_F1_7_F2_16_G_4_SplitPt_59_GenID_0'
p446
(lp447
(lp448
I34
aI57
aI133
aasS'ID_131_F1_10_F2_12_G_4_SplitPt_56_GenID_0'
p449
(lp450
(lp451
I1
aI1
aI66
aasS'f7_23'
p452
(lp453
(lp454
I1
aI1
aI500
aasS'f10_17'
p455
(lp456
(lp457
I1
aI2
aI500
aasS'ID_239_F1_2_F2_17_G_0_SplitPt_144_GenID_0'
p458
(lp459
(lp460
I14
aI1
aI154
aa(lp461
I1
aI96
aI499
aasS'f1_15'
p462
(lp463
(lp464
I14
aI2
aI499
aasS'ID_242_F1_8_F2_19_G_0_SplitPt_105_GenID_0'
p465
(lp466
(lp467
I3
aI83
aI500
aasS'f19_4'
p468
(lp469
(lp470
I3
aI1
aI500
aasS'f7_21'
p471
(lp472
(lp473
I1
aI3
aI500
aasS'ID_468_F1_11_F2_13_G_2_SplitPt_173_GenID_0'
p474
(lp475
(lp476
I10
aI2
aI167
aa(lp477
I5
aI93
aI499
aasS'f16_22'
p478
(lp479
(lp480
I1
aI1
aI500
aasS'ID_276_F1_2_F2_6_G_4_SplitPt_239_GenID_0'
p481
(lp482
(lp483
I14
aI1
aI330
aa(lp484
I1
aI171
aI500
aasS'ID_132_F1_5_F2_19_G_1_SplitPt_144_GenID_0'
p485
(lp486
(lp487
I3
aI145
aI500
aa(lp488
I1
aI10
aI156
aasS'f4_18'
p489
(lp490
(lp491
I5
aI1
aI499
aasS'ID_461_F1_1_F2_7_G_4_SplitPt_76_GenID_0'
p492
(lp493
(lp494
I35
aI79
aI141
aa(lp495
I14
aI1
aI113
aasS'f7_27'
p496
(lp497
(lp498
I1
aI1
aI500
aasS'f10_4'
p499
(lp500
(lp501
I1
aI1
aI500
aasS'ID_274_F1_16_F2_3_G_3_SplitPt_197_GenID_0'
p502
(lp503
(lp504
I36
aI288
aI398
aasS'ID_248_F1_0_F2_15_G_3_SplitPt_195_GenID_0'
p505
(lp506
(lp507
I37
aI148
aI195
aa(lp508
I1
aI160
aI500
aasS'ID_1_F1_0_F2_8_G_4_SplitPt_93_GenID_0'
p509
(lp510
(lp511
I13
aI1
aI105
aa(lp512
I2
aI66
aI500
aasS'ID_351_F1_16_F2_12_G_4_SplitPt_51_GenID_0'
p513
(lp514
(lp515
I19
aI30
aI500
aa(lp516
I1
aI1
aI51
aasS'f16_21'
p517
(lp518
(lp519
I1
aI1
aI500
aasS'f7_25'
p520
(lp521
(lp522
I1
aI1
aI500
aasS'ID_407_F1_19_F2_14_G_3_SplitPt_246_GenID_0'
p523
(lp524
(lp525
I38
aI123
aI247
aa(lp526
I1
aI225
aI500
aasS'f8_27'
p527
(lp528
(lp529
I2
aI1
aI500
aasS'f4_26'
p530
(lp531
(lp532
I5
aI1
aI500
aasS'f14_1'
p533
(lp534
(lp535
I1
aI3
aI500
aasS'f19_5'
p536
(lp537
(lp538
I3
aI1
aI500
aasS'f7_24'
p539
(lp540
(lp541
I1
aI4
aI500
aasS'f3_2'
p542
(lp543
(lp544
I1
aI1
aI500
aasS'ID_122_F1_12_F2_7_G_0_SplitPt_137_GenID_0'
p545
(lp546
(lp547
I39
aI82
aI138
aa(lp548
I1
aI84
aI500
aasS'f14_0'
p549
(lp550
(lp551
I1
aI2
aI500
aasS'ID_64_F1_12_F2_7_G_3_SplitPt_159_GenID_0'
p552
(lp553
(lp554
I19
aI1
aI194
aa(lp555
I1
aI136
aI500
aasS'f16_3'
p556
(lp557
(lp558
I1
aI1
aI500
aasS'ID_125_F1_14_F2_9_G_0_SplitPt_230_GenID_0'
p559
(lp560
(lp561
I1
aI1
aI500
aasS'ID_353_F1_10_F2_1_G_3_SplitPt_88_GenID_0'
p562
(lp563
(lp564
I40
aI91
aI125
aasS'f14_31'
p565
(lp566
(lp567
I1
aI1
aI500
aasS'f14_30'
p568
(lp569
(lp570
I1
aI1
aI500
aasS'f13_21'
p571
(lp572
(lp573
I5
aI1
aI500
aasS'f3_4'
p574
(lp575
(lp576
I1
aI1
aI500
aasS'f14_2'
p577
(lp578
(lp579
I1
aI1
aI499
aasS'ID_247_F1_15_F2_9_G_4_SplitPt_172_GenID_0'
p580
(lp581
(lp582
I41
aI179
aI231
aasS'f3_5'
p583
(lp584
(lp585
I1
aI1
aI500
aasS'f15_16'
p586
(lp587
(lp588
I1
aI1
aI500
aasS'f13_10'
p589
(lp590
(lp591
I5
aI1
aI500
aasS'f19_29'
p592
(lp593
(lp594
I3
aI1
aI500
aasS'f19_28'
p595
(lp596
(lp597
I3
aI1
aI500
aasS'ID_206_F1_16_F2_13_G_1_SplitPt_160_GenID_0'
p598
(lp599
(lp600
I5
aI136
aI500
aa(lp601
I1
aI8
aI150
aasS'ID_246_F1_3_F2_1_G_4_SplitPt_185_GenID_0'
p602
(lp603
(lp604
I42
aI111
aI185
aa(lp605
I43
aI1
aI77
aa(lp606
I14
aI119
aI500
aasS'ID_123_F1_12_F2_19_G_1_SplitPt_102_GenID_0'
p607
(lp608
(lp609
I19
aI1
aI109
aa(lp610
I3
aI58
aI500
aasS'f13_11'
p611
(lp612
(lp613
I5
aI1
aI500
aasS'f19_23'
p614
(lp615
(lp616
I3
aI1
aI500
aasS'f19_22'
p617
(lp618
(lp619
I3
aI1
aI500
aasS'f19_21'
p620
(lp621
(lp622
I3
aI1
aI500
aasS'f8_21'
p623
(lp624
(lp625
I2
aI2
aI500
aasS'f19_27'
p626
(lp627
(lp628
I3
aI1
aI500
aasS'f19_26'
p629
(lp630
(lp631
I3
aI1
aI500
aasS'f19_25'
p632
(lp633
(lp634
I3
aI1
aI500
aasS'f19_24'
p635
(lp636
(lp637
I3
aI1
aI500
aasS'f16_2'
p638
(lp639
(lp640
I1
aI1
aI500
aasS'ID_448_F1_9_F2_3_G_1_SplitPt_222_GenID_0'
p641
(lp642
(lp643
I1
aI1
aI500
aasS'ID_68_F1_8_F2_16_G_0_SplitPt_212_GenID_0'
p644
(lp645
(lp646
I2
aI1
aI191
aa(lp647
I1
aI111
aI500
aasS'ID_13_F1_3_F2_5_G_3_SplitPt_197_GenID_0'
p648
(lp649
(lp650
I44
aI347
aI431
aasS'f10_29'
p651
(lp652
(lp653
I1
aI1
aI500
aasS'f10_28'
p654
(lp655
(lp656
I1
aI1
aI500
aasS'f3_9'
p657
(lp658
(lp659
I1
aI1
aI500
aasS'f10_24'
p660
(lp661
(lp662
I1
aI1
aI500
aasS'f10_25'
p663
(lp664
(lp665
I1
aI1
aI500
aasS'f10_26'
p666
(lp667
(lp668
I1
aI1
aI499
aasS'f8_8'
p669
(lp670
(lp671
I2
aI1
aI500
aasS'ID_377_F1_15_F2_18_G_0_SplitPt_245_GenID_0'
p672
(lp673
(lp674
I26
aI182
aI499
aa(lp675
I1
aI1
aI270
aasS'f10_21'
p676
(lp677
(lp678
I1
aI1
aI500
aasS'f10_22'
p679
(lp680
(lp681
I1
aI1
aI500
aasS'f13_15'
p682
(lp683
(lp684
I45
aI400
aI486
aasS'ID_141_F1_3_F2_5_G_2_SplitPt_208_GenID_0'
p685
(lp686
(lp687
I42
aI115
aI207
aa(lp688
I43
aI1
aI75
aasS'ID_194_F1_9_F2_13_G_3_SplitPt_117_GenID_0'
p689
(lp690
(lp691
I5
aI80
aI500
aa(lp692
I1
aI1
aI120
aasS'f13_16'
p693
(lp694
(lp695
I5
aI1
aI500
aasS'ID_429_F1_4_F2_0_G_1_SplitPt_100_GenID_0'
p696
(lp697
(lp698
I46
aI103
aI215
aa(lp699
I47
aI402
aI486
aa(lp700
I5
aI15
aI115
aasS'ID_158_F1_9_F2_7_G_3_SplitPt_118_GenID_0'
p701
(lp702
(lp703
I48
aI122
aI204
aasS'f13_17'
p704
(lp705
(lp706
I5
aI1
aI500
aasS'ID_388_F1_16_F2_15_G_4_SplitPt_115_GenID_0'
p707
(lp708
(lp709
I29
aI119
aI183
aasS'ID_304_F1_19_F2_10_G_1_SplitPt_75_GenID_0'
p710
(lp711
(lp712
I3
aI3
aI70
aa(lp713
I1
aI55
aI500
aasS'f13_12'
p714
(lp715
(lp716
I5
aI1
aI500
aasS'f13_13'
p717
(lp718
(lp719
I5
aI1
aI500
aasS'f13_14'
p720
(lp721
(lp722
I5
aI1
aI500
aasS'ID_441_F1_2_F2_18_G_0_SplitPt_184_GenID_0'
p723
(lp724
(lp725
I4
aI175
aI310
aasS'ID_227_F1_1_F2_18_G_4_SplitPt_177_GenID_0'
p726
(lp727
(lp728
I4
aI175
aI310
aa(lp729
I14
aI1
aI177
aasS'ID_81_F1_1_F2_8_G_1_SplitPt_76_GenID_0'
p730
(lp731
(lp732
I2
aI37
aI500
aa(lp733
I14
aI1
aI120
aasS'f13_18'
p734
(lp735
(lp736
I5
aI1
aI499
aasS'f13_19'
p737
(lp738
(lp739
I5
aI1
aI500
aasS'f16_9'
p740
(lp741
(lp742
I1
aI1
aI500
aasS'ID_503_F1_12_F2_17_G_1_SplitPt_81_GenID_0'
p743
(lp744
(lp745
I1
aI82
aI499
aasS'ID_199_F1_11_F2_13_G_4_SplitPt_76_GenID_0'
p746
(lp747
(lp748
I10
aI1
aI126
aa(lp749
I5
aI69
aI500
aasS'f1_6'
p750
(lp751
(lp752
I14
aI1
aI500
aasS'f15_11'
p753
(lp754
(lp755
I1
aI1
aI500
aasS'ID_36_F1_3_F2_10_G_3_SplitPt_163_GenID_0'
p756
(lp757
(lp758
I43
aI1
aI78
aasS'f3_23'
p759
(lp760
(lp761
I1
aI3
aI500
aasS'ID_163_F1_0_F2_5_G_4_SplitPt_155_GenID_0'
p762
(lp763
(lp764
I49
aI156
aI229
aa(lp765
I13
aI1
aI201
aasS'f18_24'
p766
(lp767
(lp768
I26
aI1
aI500
aasS'f18_25'
p769
(lp770
(lp771
I26
aI2
aI500
aasS'f18_26'
p772
(lp773
(lp774
I26
aI1
aI500
aasS'f18_27'
p775
(lp776
(lp777
I26
aI1
aI500
aasS'f18_20'
p778
(lp779
(lp780
I26
aI1
aI500
aasS'f18_21'
p781
(lp782
(lp783
I9
aI4
aI78
aasS'f18_22'
p784
(lp785
(lp786
I50
aI361
aI459
aasS'f18_23'
p787
(lp788
(lp789
I26
aI1
aI500
aasS'ID_275_F1_18_F2_1_G_1_SplitPt_157_GenID_0'
p790
(lp791
(lp792
I26
aI1
aI207
aa(lp793
I14
aI102
aI496
aasS'f1_2'
p794
(lp795
(lp796
I14
aI1
aI500
aasS'f0_21'
p797
(lp798
(lp799
I13
aI1
aI500
aasS'f18_28'
p800
(lp801
(lp802
I15
aI391
aI468
aasS'f18_29'
p803
(lp804
(lp805
I26
aI2
aI500
aasS'f11_18'
p806
(lp807
(lp808
I10
aI2
aI500
aasS'f11_19'
p809
(lp810
(lp811
I10
aI1
aI500
aasS'ID_188_F1_2_F2_13_G_4_SplitPt_244_GenID_0'
p812
(lp813
(lp814
I14
aI1
aI358
aa(lp815
I5
aI166
aI500
aasS'f14_11'
p816
(lp817
(lp818
I1
aI1
aI500
aasS'ID_6_F1_2_F2_15_G_1_SplitPt_127_GenID_0'
p819
(lp820
(lp821
I14
aI3
aI140
aa(lp822
I1
aI116
aI500
aasS'f11_12'
p823
(lp824
(lp825
I10
aI1
aI499
aasS'f11_13'
p826
(lp827
(lp828
I10
aI1
aI499
aasS'f11_10'
p829
(lp830
(lp831
I10
aI1
aI500
aasS'f11_11'
p832
(lp833
(lp834
I10
aI2
aI500
aasS'f11_16'
p835
(lp836
(lp837
I10
aI1
aI500
aasS'f11_17'
p838
(lp839
(lp840
I10
aI1
aI500
aasS'f11_14'
p841
(lp842
(lp843
I10
aI1
aI500
aasS'f11_15'
p844
(lp845
(lp846
I10
aI2
aI500
aasS'f9_14'
p847
(lp848
(lp849
I28
aI3
aI74
aasS'f9_15'
p850
(lp851
(lp852
I28
aI3
aI79
aasS'f3_13'
p853
(lp854
(lp855
I1
aI1
aI500
aasS'f17_22'
p856
(lp857
(lp858
I1
aI1
aI500
aasS'f9_10'
p859
(lp860
(lp861
I51
aI13
aI66
aasS'f9_11'
p862
(lp863
(lp864
I7
aI287
aI370
aa(lp865
I51
aI1
aI66
aasS'f9_12'
p866
(lp867
(lp868
I28
aI1
aI79
aa(lp869
I1
aI2
aI500
aasS'f9_13'
p870
(lp871
(lp872
I28
aI3
aI76
aasS'f9_18'
p873
(lp874
(lp875
I1
aI1
aI499
aasS'f9_19'
p876
(lp877
(lp878
I1
aI1
aI500
aasS'f16_20'
p879
(lp880
(lp881
I1
aI1
aI500
aasS'ID_257_F1_19_F2_6_G_2_SplitPt_170_GenID_0'
p882
(lp883
(lp884
I3
aI1
aI192
aa(lp885
I1
aI115
aI500
aasS'f16_6'
p886
(lp887
(lp888
I1
aI1
aI500
aasS'ID_109_F1_10_F2_7_G_1_SplitPt_86_GenID_0'
p889
(lp890
(lp891
I1
aI8
aI500
aasS'f11_2'
p892
(lp893
(lp894
I10
aI1
aI500
aasS'ID_234_F1_11_F2_3_G_1_SplitPt_185_GenID_0'
p895
(lp896
(lp897
I10
aI2
aI196
aa(lp898
I1
aI130
aI500
aasS'f7_16'
p899
(lp900
(lp901
I35
aI72
aI142
aasS'f5_19'
p902
(lp903
(lp904
I1
aI1
aI500
aasS'f7_14'
p905
(lp906
(lp907
I1
aI1
aI500
aasS'f11_3'
p908
(lp909
(lp910
I10
aI1
aI500
aasS'f7_12'
p911
(lp912
(lp913
I1
aI1
aI500
aasS'f7_13'
p914
(lp915
(lp916
I1
aI1
aI500
aasS'f7_10'
p917
(lp918
(lp919
I1
aI1
aI500
aasS'f5_27'
p920
(lp921
(lp922
I1
aI1
aI500
aasS'f5_10'
p923
(lp924
(lp925
I1
aI1
aI500
aasS'ID_205_F1_18_F2_4_G_3_SplitPt_135_GenID_0'
p926
(lp927
(lp928
I26
aI1
aI142
aa(lp929
I5
aI115
aI500
aasS'f5_12'
p930
(lp931
(lp932
I1
aI1
aI500
aasS'f5_13'
p933
(lp934
(lp935
I1
aI1
aI500
aasS'f5_14'
p936
(lp937
(lp938
I1
aI1
aI500
aasS'ID_508_F1_11_F2_7_G_1_SplitPt_181_GenID_0'
p939
(lp940
(lp941
I10
aI1
aI204
aa(lp942
I1
aI106
aI500
aasS'f5_16'
p943
(lp944
(lp945
I44
aI347
aI432
aasS'f5_17'
p946
(lp947
(lp948
I1
aI1
aI500
aasS'ID_263_F1_19_F2_0_G_3_SplitPt_147_GenID_0'
p949
(lp950
(lp951
I37
aI148
aI195
aa(lp952
I3
aI1
aI154
aasS'ID_488_F1_18_F2_19_G_4_SplitPt_207_GenID_0'
p953
(lp954
(lp955
I26
aI1
aI267
aa(lp956
I3
aI141
aI500
aasS'f16_5'
p957
(lp958
(lp959
I1
aI1
aI500
aasS'f18_18'
p960
(lp961
(lp962
I26
aI1
aI500
aasS'ID_48_F1_16_F2_4_G_3_SplitPt_141_GenID_0'
p963
(lp964
(lp965
I8
aI72
aI146
aa(lp966
I5
aI110
aI500
aasS'ID_37_F1_11_F2_14_G_4_SplitPt_176_GenID_0'
p967
(lp968
(lp969
I31
aI180
aI241
aasS'f3_11'
p970
(lp971
(lp972
I1
aI1
aI500
aasS'ID_423_F1_3_F2_14_G_1_SplitPt_55_GenID_0'
p973
(lp974
(lp975
I1
aI51
aI500
aasS'ID_230_F1_1_F2_1_G_3_SplitPt_213_GenID_0'
p976
(lp977
(lp978
I14
aI2
aI500
aasS'ID_149_F1_14_F2_4_G_3_SplitPt_239_GenID_0'
p979
(lp980
(lp981
I5
aI205
aI500
aa(lp982
I1
aI2
aI285
aasS'f7_4'
p983
(lp984
(lp985
I1
aI1
aI500
aasS'ID_324_F1_4_F2_4_G_0_SplitPt_81_GenID_0'
p986
(lp987
(lp988
I52
aI10
aI80
aasS'ID_369_F1_19_F2_16_G_3_SplitPt_51_GenID_0'
p989
(lp990
(lp991
I3
aI1
aI86
aasS'ID_166_F1_4_F2_4_G_0_SplitPt_150_GenID_0'
p992
(lp993
(lp994
I5
aI1
aI500
aasS'f12_31'
p995
(lp996
(lp997
I19
aI1
aI500
aasS'f12_30'
p998
(lp999
(lp1000
I19
aI1
aI499
aasS'ID_339_F1_2_F2_17_G_2_SplitPt_218_GenID_0'
p1001
(lp1002
(lp1003
I14
aI1
aI296
aa(lp1004
I1
aI183
aI500
aasS'ID_327_F1_8_F2_19_G_1_SplitPt_147_GenID_0'
p1005
(lp1006
(lp1007
I53
aI256
aI365
aa(lp1008
I2
aI1
aI181
aasS'f16_4'
p1009
(lp1010
(lp1011
I1
aI1
aI500
aasS'ID_70_F1_4_F2_12_G_0_SplitPt_219_GenID_0'
p1012
(lp1013
(lp1014
I19
aI218
aI500
aa(lp1015
I5
aI2
aI234
aasS'ID_315_F1_6_F2_2_G_1_SplitPt_128_GenID_0'
p1016
(lp1017
(lp1018
I14
aI105
aI498
aa(lp1019
I1
aI1
aI149
aasS'ID_485_F1_10_F2_4_G_4_SplitPt_220_GenID_0'
p1020
(lp1021
(lp1022
I54
aI164
aI229
aa(lp1023
I5
aI216
aI500
aasS'f9_9'
p1024
(lp1025
(lp1026
I1
aI1
aI500
aasS'ID_384_F1_4_F2_6_G_1_SplitPt_170_GenID_0'
p1027
(lp1028
(lp1029
I5
aI1
aI190
aa(lp1030
I1
aI153
aI500
aasS'f5_9'
p1031
(lp1032
(lp1033
I1
aI1
aI499
aasS'ID_476_F1_1_F2_0_G_2_SplitPt_68_GenID_0'
p1034
(lp1035
(lp1036
I13
aI62
aI500
aa(lp1037
I14
aI1
aI71
aasS'ID_66_F1_9_F2_0_G_3_SplitPt_84_GenID_0'
p1038
(lp1039
(lp1040
I13
aI67
aI500
aa(lp1041
I1
aI1
aI141
aasS'ID_435_F1_5_F2_17_G_4_SplitPt_129_GenID_0'
p1042
(lp1043
(lp1044
I1
aI1
aI500
aasS'ID_449_F1_12_F2_18_G_3_SplitPt_100_GenID_0'
p1045
(lp1046
(lp1047
I50
aI361
aI466
aa(lp1048
I19
aI1
aI150
aasS'f17_31'
p1049
(lp1050
(lp1051
I1
aI2
aI500
aasS'ID_310_F1_5_F2_3_G_2_SplitPt_166_GenID_0'
p1052
(lp1053
(lp1054
I1
aI1
aI500
aasS'f13_6'
p1055
(lp1056
(lp1057
I5
aI1
aI500
aasS'f18_12'
p1058
(lp1059
(lp1060
I26
aI1
aI497
aasS'ID_299_F1_7_F2_9_G_3_SplitPt_132_GenID_0'
p1061
(lp1062
(lp1063
I1
aI1
aI499
aasS'ID_469_F1_12_F2_4_G_0_SplitPt_125_GenID_0'
p1064
(lp1065
(lp1066
I19
aI1
aI120
aa(lp1067
I5
aI90
aI499
aasS'f13_7'
p1068
(lp1069
(lp1070
I5
aI1
aI500
aasS'ID_509_F1_9_F2_7_G_3_SplitPt_217_GenID_0'
p1071
(lp1072
(lp1073
I1
aI1
aI500
aasS'ID_177_F1_3_F2_1_G_3_SplitPt_151_GenID_0'
p1074
(lp1075
(lp1076
I14
aI93
aI500
aa(lp1077
I1
aI1
aI159
aasS'ID_359_F1_18_F2_9_G_0_SplitPt_114_GenID_0'
p1078
(lp1079
(lp1080
I26
aI1
aI111
aa(lp1081
I1
aI114
aI500
aasS'ID_328_F1_15_F2_7_G_2_SplitPt_239_GenID_0'
p1082
(lp1083
(lp1084
I1
aI2
aI500
aasS'ID_501_F1_19_F2_3_G_2_SplitPt_110_GenID_0'
p1085
(lp1086
(lp1087
I42
aI111
aI207
aa(lp1088
I3
aI1
aI143
aasS'f13_2'
p1089
(lp1090
(lp1091
I5
aI1
aI500
aasS'f9_1'
p1092
(lp1093
(lp1094
I1
aI1
aI500
aasS'ID_222_F1_15_F2_2_G_1_SplitPt_60_GenID_0'
p1095
(lp1096
(lp1097
I14
aI25
aI500
aasS'ID_85_F1_10_F2_1_G_1_SplitPt_215_GenID_0'
p1098
(lp1099
(lp1100
I14
aI113
aI500
aa(lp1101
I1
aI2
aI238
aasS'ID_216_F1_6_F2_16_G_0_SplitPt_196_GenID_0'
p1102
(lp1103
(lp1104
I1
aI1
aI500
aasS'ID_497_F1_13_F2_3_G_4_SplitPt_184_GenID_0'
p1105
(lp1106
(lp1107
I5
aI1
aI211
aa(lp1108
I1
aI22
aI500
aasS'f3_14'
p1109
(lp1110
(lp1111
I1
aI1
aI500
aasS'f9_26'
p1112
(lp1113
(lp1114
I1
aI1
aI500
aasS'ID_83_F1_13_F2_4_G_2_SplitPt_151_GenID_0'
p1115
(lp1116
(lp1117
I5
aI1
aI498
aasS'ID_314_F1_9_F2_17_G_1_SplitPt_137_GenID_0'
p1118
(lp1119
(lp1120
I1
aI2
aI500
aasS'ID_155_F1_18_F2_19_G_3_SplitPt_105_GenID_0'
p1121
(lp1122
(lp1123
I26
aI1
aI148
aa(lp1124
I3
aI97
aI500
aasS'ID_366_F1_13_F2_10_G_2_SplitPt_132_GenID_0'
p1125
(lp1126
(lp1127
I5
aI1
aI159
aa(lp1128
I1
aI68
aI497
aasS'ID_506_F1_7_F2_5_G_3_SplitPt_218_GenID_0'
p1129
(lp1130
(lp1131
I1
aI1
aI500
aasS'ID_17_F1_15_F2_19_G_3_SplitPt_239_GenID_0'
p1132
(lp1133
(lp1134
I3
aI210
aI500
aa(lp1135
I1
aI1
aI281
aasS'ID_302_F1_7_F2_10_G_0_SplitPt_77_GenID_0'
p1136
(lp1137
(lp1138
I1
aI65
aI499
aasS'ID_209_F1_0_F2_17_G_1_SplitPt_173_GenID_0'
p1139
(lp1140
(lp1141
I13
aI1
aI195
aa(lp1142
I1
aI105
aI500
aasS'ID_223_F1_16_F2_17_G_4_SplitPt_160_GenID_0'
p1143
(lp1144
(lp1145
I55
aI131
aI158
aasS'f10_10'
p1146
(lp1147
(lp1148
I1
aI1
aI500
aasS'f7_5'
p1149
(lp1150
(lp1151
I1
aI1
aI500
aasS'f7_6'
p1152
(lp1153
(lp1154
I1
aI1
aI500
aasS'f7_7'
p1155
(lp1156
(lp1157
I1
aI1
aI500
aasS'f7_0'
p1158
(lp1159
(lp1160
I1
aI3
aI500
aasS'ID_84_F1_4_F2_2_G_2_SplitPt_191_GenID_0'
p1161
(lp1162
(lp1163
I14
aI89
aI500
aa(lp1164
I5
aI1
aI201
aasS'f7_2'
p1165
(lp1166
(lp1167
I1
aI1
aI500
aasS'f7_3'
p1168
(lp1169
(lp1170
I1
aI1
aI500
aasS'ID_504_F1_7_F2_7_G_3_SplitPt_184_GenID_0'
p1171
(lp1172
(lp1173
I1
aI1
aI500
aasS'f7_8'
p1174
(lp1175
(lp1176
I1
aI1
aI500
aasS'f7_9'
p1177
(lp1178
(lp1179
I1
aI1
aI500
aasS'ID_9_F1_10_F2_14_G_1_SplitPt_135_GenID_0'
p1180
(lp1181
(lp1182
I1
aI2
aI500
aasS'ID_184_F1_13_F2_4_G_3_SplitPt_68_GenID_0'
p1183
(lp1184
(lp1185
I5
aI1
aI500
aasS'ID_489_F1_1_F2_3_G_4_SplitPt_154_GenID_0'
p1186
(lp1187
(lp1188
I14
aI1
aI262
aa(lp1189
I1
aI37
aI500
aasS'ID_411_F1_16_F2_14_G_4_SplitPt_209_GenID_0'
p1190
(lp1191
(lp1192
I56
aI144
aI249
aasS'f13_9'
p1193
(lp1194
(lp1195
I5
aI1
aI500
aasS'f16_8'
p1196
(lp1197
(lp1198
I1
aI1
aI500
aasS'ID_412_F1_17_F2_2_G_4_SplitPt_55_GenID_0'
p1199
(lp1200
(lp1201
I14
aI40
aI500
aa(lp1202
I1
aI1
aI84
aasS'ID_191_F1_1_F2_3_G_3_SplitPt_178_GenID_0'
p1203
(lp1204
(lp1205
I14
aI1
aI219
aa(lp1206
I1
aI111
aI500
aasS'f19_12'
p1207
(lp1208
(lp1209
I3
aI1
aI500
aasS'f19_13'
p1210
(lp1211
(lp1212
I3
aI1
aI500
aasS'f19_10'
p1213
(lp1214
(lp1215
I3
aI1
aI500
aasS'ID_104_F1_5_F2_2_G_3_SplitPt_229_GenID_0'
p1216
(lp1217
(lp1218
I49
aI156
aI229
aa(lp1219
I14
aI229
aI500
aasS'f19_16'
p1220
(lp1221
(lp1222
I3
aI1
aI500
aasS'f19_17'
p1223
(lp1224
(lp1225
I3
aI1
aI500
aasS'f19_14'
p1226
(lp1227
(lp1228
I3
aI1
aI500
aasS'f19_15'
p1229
(lp1230
(lp1231
I3
aI1
aI500
aasS'ID_127_F1_9_F2_3_G_1_SplitPt_235_GenID_0'
p1232
(lp1233
(lp1234
I1
aI1
aI500
aasS'ID_86_F1_18_F2_8_G_4_SplitPt_184_GenID_0'
p1235
(lp1236
(lp1237
I57
aI185
aI239
aasS'f19_18'
p1238
(lp1239
(lp1240
I3
aI1
aI500
aasS'f19_19'
p1241
(lp1242
(lp1243
I3
aI1
aI500
aasS'f5_6'
p1244
(lp1245
(lp1246
I1
aI1
aI500
aasS'f5_7'
p1247
(lp1248
(lp1249
I1
aI1
aI500
aasS'f5_4'
p1250
(lp1251
(lp1252
I1
aI1
aI500
aasS'ID_245_F1_13_F2_14_G_2_SplitPt_233_GenID_0'
p1253
(lp1254
(lp1255
I5
aI1
aI280
aa(lp1256
I1
aI179
aI500
aasS'ID_273_F1_5_F2_10_G_4_SplitPt_215_GenID_0'
p1257
(lp1258
(lp1259
I1
aI1
aI500
aasS'ID_458_F1_9_F2_14_G_1_SplitPt_225_GenID_0'
p1260
(lp1261
(lp1262
I1
aI1
aI500
aasS'ID_93_F1_4_F2_4_G_2_SplitPt_187_GenID_0'
p1263
(lp1264
(lp1265
I5
aI2
aI500
aasS'ID_499_F1_11_F2_13_G_4_SplitPt_148_GenID_0'
p1266
(lp1267
(lp1268
I10
aI1
aI177
aa(lp1269
I5
aI104
aI500
aasS'ID_431_F1_15_F2_5_G_2_SplitPt_109_GenID_0'
p1270
(lp1271
(lp1272
I1
aI1
aI500
aasS'ID_130_F1_8_F2_13_G_4_SplitPt_137_GenID_0'
p1273
(lp1274
(lp1275
I2
aI1
aI140
aa(lp1276
I5
aI85
aI500
aasS'f14_13'
p1277
(lp1278
(lp1279
I1
aI1
aI500
aasS'ID_368_F1_4_F2_4_G_2_SplitPt_229_GenID_0'
p1280
(lp1281
(lp1282
I5
aI1
aI500
aasS'ID_383_F1_9_F2_4_G_2_SplitPt_174_GenID_0'
p1283
(lp1284
(lp1285
I5
aI125
aI500
aa(lp1286
I1
aI1
aI178
aasS'ID_67_F1_14_F2_8_G_2_SplitPt_78_GenID_0'
p1287
(lp1288
(lp1289
I2
aI69
aI500
aasS'ID_171_F1_17_F2_17_G_2_SplitPt_50_GenID_0'
p1290
(lp1291
(lp1292
I1
aI1
aI500
aasS'ID_360_F1_19_F2_18_G_4_SplitPt_181_GenID_0'
p1293
(lp1294
(lp1295
I58
aI180
aI229
aasS'ID_349_F1_15_F2_6_G_2_SplitPt_65_GenID_0'
p1296
(lp1297
(lp1298
I1
aI1
aI500
aasS'f0_9'
p1299
(lp1300
(lp1301
I13
aI1
aI500
aasS'f14_29'
p1302
(lp1303
(lp1304
I1
aI1
aI500
aasS'f15_3'
p1305
(lp1306
(lp1307
I1
aI1
aI500
aasS'f5_28'
p1308
(lp1309
(lp1310
I1
aI6
aI500
aasS'f14_21'
p1311
(lp1312
(lp1313
I1
aI1
aI499
aasS'ID_105_F1_3_F2_9_G_2_SplitPt_147_GenID_0'
p1314
(lp1315
(lp1316
I1
aI1
aI500
aasS'ID_334_F1_2_F2_6_G_4_SplitPt_227_GenID_0'
p1317
(lp1318
(lp1319
I14
aI1
aI294
aa(lp1320
I1
aI197
aI500
aasS'ID_26_F1_11_F2_8_G_3_SplitPt_73_GenID_0'
p1321
(lp1322
(lp1323
I59
aI401
aI491
aa(lp1324
I10
aI2
aI95
aasS'f5_1'
p1325
(lp1326
(lp1327
I1
aI1
aI500
aasS'ID_254_F1_11_F2_14_G_1_SplitPt_162_GenID_0'
p1328
(lp1329
(lp1330
I10
aI1
aI241
aa(lp1331
I1
aI168
aI500
aasS'ID_331_F1_4_F2_11_G_2_SplitPt_114_GenID_0'
p1332
(lp1333
(lp1334
I10
aI61
aI500
aa(lp1335
I5
aI1
aI149
aasS'f10_13'
p1336
(lp1337
(lp1338
I1
aI1
aI500
aasS'f8_26'
p1339
(lp1340
(lp1341
I2
aI1
aI500
aasS'ID_456_F1_17_F2_1_G_4_SplitPt_236_GenID_0'
p1342
(lp1343
(lp1344
I60
aI366
aI497
aa(lp1345
I1
aI1
aI268
aasS'f8_24'
p1346
(lp1347
(lp1348
I2
aI1
aI500
aasS'f8_25'
p1349
(lp1350
(lp1351
I2
aI1
aI500
aasS'f8_22'
p1352
(lp1353
(lp1354
I2
aI1
aI500
aasS'f8_23'
p1355
(lp1356
(lp1357
I2
aI1
aI500
aasS'f8_20'
p1358
(lp1359
(lp1360
I2
aI1
aI500
aasS'ID_236_F1_12_F2_11_G_2_SplitPt_130_GenID_0'
p1361
(lp1362
(lp1363
I10
aI109
aI500
aa(lp1364
I19
aI1
aI139
aasS'f3_8'
p1365
(lp1366
(lp1367
I1
aI1
aI500
aasS'f15_8'
p1368
(lp1369
(lp1370
I1
aI1
aI500
aasS'f1_31'
p1371
(lp1372
(lp1373
I14
aI1
aI500
aasS'ID_398_F1_0_F2_14_G_1_SplitPt_236_GenID_0'
p1374
(lp1375
(lp1376
I13
aI2
aI265
aa(lp1377
I1
aI203
aI500
aasS'f8_28'
p1378
(lp1379
(lp1380
I2
aI1
aI500
aasS'f8_29'
p1381
(lp1382
(lp1383
I59
aI371
aI493
aasS'ID_60_F1_19_F2_14_G_1_SplitPt_183_GenID_0'
p1384
(lp1385
(lp1386
I61
aI178
aI246
aa(lp1387
I3
aI1
aI195
aasS'f1_7'
p1388
(lp1389
(lp1390
I14
aI1
aI500
aasS'f1_4'
p1391
(lp1392
(lp1393
I14
aI1
aI500
aasS'f1_5'
p1394
(lp1395
(lp1396
I14
aI1
aI500
aasS'ID_268_F1_8_F2_0_G_0_SplitPt_207_GenID_0'
p1397
(lp1398
(lp1399
I47
aI402
aI486
aa(lp1400
I2
aI2
aI245
aasS'f1_3'
p1401
(lp1402
(lp1403
I14
aI1
aI500
aasS'f1_0'
p1404
(lp1405
(lp1406
I14
aI4
aI500
aasS'f1_1'
p1407
(lp1408
(lp1409
I14
aI1
aI500
aasS'f13_8'
p1410
(lp1411
(lp1412
I5
aI1
aI500
aasS'ID_97_F1_7_F2_6_G_3_SplitPt_140_GenID_0'
p1413
(lp1414
(lp1415
I16
aI141
aI236
aasS'f9_27'
p1416
(lp1417
(lp1418
I1
aI1
aI500
aasS'f1_8'
p1419
(lp1420
(lp1421
I14
aI1
aI499
aasS'f1_9'
p1422
(lp1423
(lp1424
I14
aI1
aI500
aasS'f17_8'
p1425
(lp1426
(lp1427
I1
aI5
aI500
aasS'ID_362_F1_16_F2_8_G_1_SplitPt_74_GenID_0'
p1428
(lp1429
(lp1430
I2
aI56
aI500
aa(lp1431
I1
aI3
aI84
aasS'ID_135_F1_1_F2_3_G_3_SplitPt_111_GenID_0'
p1432
(lp1433
(lp1434
I62
aI109
aI169
aa(lp1435
I14
aI1
aI139
aasS'ID_42_F1_9_F2_15_G_3_SplitPt_160_GenID_0'
p1436
(lp1437
(lp1438
I33
aI169
aI327
aasS'f9_8'
p1439
(lp1440
(lp1441
I1
aI1
aI500
aasS'f5_0'
p1442
(lp1443
(lp1444
I1
aI1
aI500
aasS'f9_6'
p1445
(lp1446
(lp1447
I1
aI4
aI500
aasS'ID_190_F1_8_F2_19_G_2_SplitPt_101_GenID_0'
p1448
(lp1449
(lp1450
I2
aI1
aI122
aa(lp1451
I3
aI57
aI500
aasS'f9_4'
p1452
(lp1453
(lp1454
I1
aI2
aI500
aasS'f9_5'
p1455
(lp1456
(lp1457
I1
aI2
aI500
aasS'f9_2'
p1458
(lp1459
(lp1460
I1
aI1
aI500
aasS'f9_3'
p1461
(lp1462
(lp1463
I1
aI1
aI500
aasS'f9_0'
p1464
(lp1465
(lp1466
I1
aI1
aI500
aasS'ID_385_F1_19_F2_16_G_2_SplitPt_159_GenID_0'
p1467
(lp1468
(lp1469
I3
aI1
aI179
aa(lp1470
I1
aI4
aI500
aasS'ID_168_F1_14_F2_19_G_3_SplitPt_204_GenID_0'
p1471
(lp1472
(lp1473
I24
aI126
aI207
aasS'ID_46_F1_8_F2_2_G_0_SplitPt_97_GenID_0'
p1474
(lp1475
(lp1476
I2
aI5
aI106
aa(lp1477
I14
aI57
aI498
aasS'f10_15'
p1478
(lp1479
(lp1480
I1
aI2
aI500
aasS'ID_390_F1_10_F2_0_G_1_SplitPt_154_GenID_0'
p1481
(lp1482
(lp1483
I63
aI41
aI316
aa(lp1484
I13
aI88
aI500
aa(lp1485
I1
aI4
aI176
aasS'ID_300_F1_2_F2_8_G_4_SplitPt_71_GenID_0'
p1486
(lp1487
(lp1488
I25
aI72
aI152
aa(lp1489
I14
aI1
aI85
aasS'f3_10'
p1490
(lp1491
(lp1492
I1
aI1
aI499
aasS'f17_9'
p1493
(lp1494
(lp1495
I1
aI1
aI500
aasS'f2_28'
p1496
(lp1497
(lp1498
I14
aI1
aI499
aasS'ID_428_F1_13_F2_9_G_4_SplitPt_244_GenID_0'
p1499
(lp1500
(lp1501
I5
aI1
aI256
aa(lp1502
I1
aI119
aI500
aasS'f9_29'
p1503
(lp1504
(lp1505
I1
aI1
aI500
aasS'f9_28'
p1506
(lp1507
(lp1508
I1
aI1
aI500
aasS'f2_29'
p1509
(lp1510
(lp1511
I14
aI1
aI498
aasS'f9_25'
p1512
(lp1513
(lp1514
I1
aI1
aI500
aasS'f9_24'
p1515
(lp1516
(lp1517
I1
aI1
aI500
aasS'ID_491_F1_2_F2_13_G_0_SplitPt_167_GenID_0'
p1518
(lp1519
(lp1520
I14
aI43
aI150
aa(lp1521
I5
aI87
aI500
aasS'ID_408_F1_11_F2_5_G_0_SplitPt_244_GenID_0'
p1522
(lp1523
(lp1524
I10
aI1
aI255
aa(lp1525
I1
aI235
aI499
aasS'f9_21'
p1526
(lp1527
(lp1528
I1
aI1
aI500
aasS'f9_20'
p1529
(lp1530
(lp1531
I1
aI1
aI500
aasS'f9_23'
p1532
(lp1533
(lp1534
I1
aI1
aI500
aasS'f9_22'
p1535
(lp1536
(lp1537
I1
aI1
aI500
aasS'f5_21'
p1538
(lp1539
(lp1540
I1
aI1
aI500
aasS'f5_20'
p1541
(lp1542
(lp1543
I1
aI1
aI500
aasS'ID_186_F1_9_F2_19_G_1_SplitPt_164_GenID_0'
p1544
(lp1545
(lp1546
I3
aI157
aI499
aa(lp1547
I1
aI1
aI200
aasS'f5_22'
p1548
(lp1549
(lp1550
I1
aI1
aI500
aasS'f5_25'
p1551
(lp1552
(lp1553
I1
aI1
aI500
aasS'f5_24'
p1554
(lp1555
(lp1556
I1
aI1
aI500
aasS'ID_293_F1_5_F2_2_G_0_SplitPt_149_GenID_0'
p1557
(lp1558
(lp1559
I14
aI55
aI499
aa(lp1560
I1
aI1
aI172
aasS'f5_26'
p1561
(lp1562
(lp1563
I1
aI1
aI500
aasS'ID_213_F1_7_F2_4_G_2_SplitPt_219_GenID_0'
p1564
(lp1565
(lp1566
I5
aI180
aI500
aa(lp1567
I1
aI1
aI223
aasS'ID_440_F1_13_F2_15_G_0_SplitPt_236_GenID_0'
p1568
(lp1569
(lp1570
I5
aI1
aI268
aa(lp1571
I1
aI213
aI497
aasS'f5_15'
p1572
(lp1573
(lp1574
I1
aI1
aI500
aasS'ID_283_F1_0_F2_13_G_3_SplitPt_90_GenID_0'
p1575
(lp1576
(lp1577
I13
aI2
aI139
aa(lp1578
I5
aI57
aI500
aasS'ID_493_F1_0_F2_9_G_0_SplitPt_103_GenID_0'
p1579
(lp1580
(lp1581
I1
aI89
aI500
aasS'f10_14'
p1582
(lp1583
(lp1584
I1
aI1
aI500
aasS'ID_62_F1_9_F2_16_G_4_SplitPt_234_GenID_0'
p1585
(lp1586
(lp1587
I41
aI179
aI231
aasS'f15_30'
p1588
(lp1589
(lp1590
I1
aI1
aI500
aasS'f4_28'
p1591
(lp1592
(lp1593
I5
aI1
aI500
aasS'ID_358_F1_2_F2_10_G_4_SplitPt_178_GenID_0'
p1594
(lp1595
(lp1596
I54
aI179
aI221
aasS'f14_25'
p1597
(lp1598
(lp1599
I1
aI1
aI500
aasS'ID_77_F1_8_F2_2_G_0_SplitPt_221_GenID_0'
p1600
(lp1601
(lp1602
I64
aI229
aI367
aa(lp1603
I2
aI1
aI259
aasS'f4_22'
p1604
(lp1605
(lp1606
I5
aI1
aI500
aasS'f4_23'
p1607
(lp1608
(lp1609
I5
aI1
aI499
aasS'f4_20'
p1610
(lp1611
(lp1612
I5
aI1
aI500
aasS'f4_21'
p1613
(lp1614
(lp1615
I5
aI1
aI500
aasS'ID_144_F1_7_F2_18_G_1_SplitPt_174_GenID_0'
p1616
(lp1617
(lp1618
I26
aI154
aI500
aa(lp1619
I1
aI1
aI209
aasS'f4_27'
p1620
(lp1621
(lp1622
I5
aI1
aI500
aasS'f4_24'
p1623
(lp1624
(lp1625
I5
aI1
aI500
aasS'f4_25'
p1626
(lp1627
(lp1628
I5
aI1
aI500
aasS'ID_333_F1_4_F2_2_G_3_SplitPt_193_GenID_0'
p1629
(lp1630
(lp1631
I20
aI186
aI280
aa(lp1632
I5
aI2
aI194
aasS'f5_29'
p1633
(lp1634
(lp1635
I1
aI3
aI500
aasS'f3_0'
p1636
(lp1637
(lp1638
I1
aI1
aI497
aasS'ID_409_F1_18_F2_13_G_0_SplitPt_110_GenID_0'
p1639
(lp1640
(lp1641
I26
aI1
aI107
aa(lp1642
I5
aI82
aI500
aasS'ID_422_F1_5_F2_19_G_2_SplitPt_132_GenID_0'
p1643
(lp1644
(lp1645
I3
aI116
aI500
aa(lp1646
I1
aI1
aI139
aasS'ID_505_F1_6_F2_3_G_0_SplitPt_66_GenID_0'
p1647
(lp1648
(lp1649
I1
aI54
aI499
aasS'f0_31'
p1650
(lp1651
(lp1652
I13
aI1
aI500
aasS'f0_30'
p1653
(lp1654
(lp1655
I17
aI387
aI497
aasS'ID_160_F1_15_F2_10_G_4_SplitPt_193_GenID_0'
p1656
(lp1657
(lp1658
I1
aI1
aI500
aasS'f17_30'
p1659
(lp1660
(lp1661
I1
aI1
aI500
aasS'ID_193_F1_17_F2_8_G_2_SplitPt_72_GenID_0'
p1662
(lp1663
(lp1664
I2
aI65
aI500
aa(lp1665
I1
aI2
aI87
aasS'ID_56_F1_7_F2_13_G_3_SplitPt_83_GenID_0'
p1666
(lp1667
(lp1668
I5
aI4
aI500
aa(lp1669
I1
aI1
aI129
aasS'ID_238_F1_13_F2_2_G_3_SplitPt_131_GenID_0'
p1670
(lp1671
(lp1672
I14
aI123
aI500
aa(lp1673
I5
aI1
aI174
aasS'ID_477_F1_3_F2_16_G_1_SplitPt_195_GenID_0'
p1674
(lp1675
(lp1676
I1
aI1
aI500
aasS'ID_170_F1_15_F2_0_G_3_SplitPt_247_GenID_0'
p1677
(lp1678
(lp1679
I13
aI138
aI500
aa(lp1680
I1
aI4
aI296
aasS'ID_271_F1_13_F2_1_G_2_SplitPt_98_GenID_0'
p1681
(lp1682
(lp1683
I14
aI50
aI500
aa(lp1684
I5
aI2
aI104
aasS'ID_467_F1_16_F2_6_G_1_SplitPt_177_GenID_0'
p1685
(lp1686
(lp1687
I1
aI2
aI500
aasS'ID_307_F1_0_F2_19_G_2_SplitPt_188_GenID_0'
p1688
(lp1689
(lp1690
I13
aI1
aI212
aa(lp1691
I3
aI129
aI500
aasS'f14_27'
p1692
(lp1693
(lp1694
I1
aI1
aI500
aasS'ID_387_F1_11_F2_3_G_1_SplitPt_138_GenID_0'
p1695
(lp1696
(lp1697
I10
aI5
aI145
aa(lp1698
I1
aI137
aI496
aasS'ID_151_F1_7_F2_17_G_2_SplitPt_211_GenID_0'
p1699
(lp1700
(lp1701
I1
aI1
aI500
aasS'ID_101_F1_6_F2_18_G_2_SplitPt_225_GenID_0'
p1702
(lp1703
(lp1704
I26
aI84
aI500
aa(lp1705
I1
aI1
aI239
aasS'ID_394_F1_9_F2_6_G_3_SplitPt_229_GenID_0'
p1706
(lp1707
(lp1708
I65
aI399
aI483
aasS'ID_417_F1_6_F2_13_G_2_SplitPt_188_GenID_0'
p1709
(lp1710
(lp1711
I5
aI166
aI500
aa(lp1712
I1
aI1
aI204
aasS'ID_55_F1_10_F2_12_G_4_SplitPt_112_GenID_0'
p1713
(lp1714
(lp1715
I66
aI113
aI163
aa(lp1716
I1
aI1
aI112
aasS'f10_19'
p1717
(lp1718
(lp1719
I1
aI1
aI500
aasS'ID_264_F1_0_F2_10_G_4_SplitPt_192_GenID_0'
p1720
(lp1721
(lp1722
I67
aI121
aI192
aasS'f4_29'
p1723
(lp1724
(lp1725
I5
aI1
aI500
aasS'ID_118_F1_10_F2_3_G_2_SplitPt_150_GenID_0'
p1726
(lp1727
(lp1728
I1
aI1
aI500
aasS'ID_415_F1_17_F2_10_G_2_SplitPt_51_GenID_0'
p1729
(lp1730
(lp1731
I1
aI41
aI500
aasS'ID_403_F1_18_F2_15_G_3_SplitPt_139_GenID_0'
p1732
(lp1733
(lp1734
I32
aI372
aI458
aa(lp1735
I68
aI79
aI137
aasS'f5_5'
p1736
(lp1737
(lp1738
I1
aI1
aI500
aasS'ID_454_F1_10_F2_16_G_0_SplitPt_243_GenID_0'
p1739
(lp1740
(lp1741
I1
aI1
aI499
aasS'f5_18'
p1742
(lp1743
(lp1744
I1
aI2
aI500
aasS'ID_347_F1_12_F2_18_G_2_SplitPt_225_GenID_0'
p1745
(lp1746
(lp1747
I19
aI1
aI306
aa(lp1748
I26
aI136
aI499
aasS'f14_24'
p1749
(lp1750
(lp1751
I1
aI1
aI500
aasS'f1_18'
p1752
(lp1753
(lp1754
I14
aI1
aI500
aasS'f1_19'
p1755
(lp1756
(lp1757
I14
aI1
aI500
aasS'ID_462_F1_4_F2_8_G_3_SplitPt_192_GenID_0'
p1758
(lp1759
(lp1760
I2
aI134
aI500
aa(lp1761
I5
aI1
aI199
aasS'ID_137_F1_13_F2_1_G_3_SplitPt_146_GenID_0'
p1762
(lp1763
(lp1764
I14
aI125
aI500
aa(lp1765
I5
aI1
aI145
aasS'f1_14'
p1766
(lp1767
(lp1768
I14
aI1
aI499
aasS'ID_438_F1_0_F2_10_G_2_SplitPt_131_GenID_0'
p1769
(lp1770
(lp1771
I13
aI3
aI150
aa(lp1772
I1
aI115
aI500
aasS'ID_332_F1_0_F2_19_G_4_SplitPt_121_GenID_0'
p1773
(lp1774
(lp1775
I69
aI117
aI239
aa(lp1776
I13
aI1
aI155
aasS'f1_17'
p1777
(lp1778
(lp1779
I14
aI1
aI500
aasS'f1_10'
p1780
(lp1781
(lp1782
I14
aI1
aI500
aasS'ID_244_F1_7_F2_0_G_0_SplitPt_77_GenID_0'
p1783
(lp1784
(lp1785
I13
aI75
aI500
aa(lp1786
I1
aI1
aI99
aasS'f1_12'
p1787
(lp1788
(lp1789
I14
aI1
aI499
aasS'f1_13'
p1790
(lp1791
(lp1792
I14
aI1
aI499
aasS'ID_426_F1_4_F2_14_G_4_SplitPt_218_GenID_0'
p1793
(lp1794
(lp1795
I5
aI1
aI429
aa(lp1796
I1
aI206
aI500
aasS'ID_436_F1_15_F2_19_G_1_SplitPt_90_GenID_0'
p1797
(lp1798
(lp1799
I3
aI52
aI500
aa(lp1800
I1
aI4
aI95
aasS'f7_15'
p1801
(lp1802
(lp1803
I1
aI1
aI500
aasS'ID_174_F1_7_F2_18_G_3_SplitPt_117_GenID_0'
p1804
(lp1805
(lp1806
I26
aI108
aI500
aa(lp1807
I1
aI1
aI171
aasS'ID_278_F1_5_F2_4_G_3_SplitPt_196_GenID_0'
p1808
(lp1809
(lp1810
I70
aI198
aI274
aa(lp1811
I1
aI1
aI202
aasS'f10_31'
p1812
(lp1813
(lp1814
I1
aI1
aI500
aasS'ID_71_F1_18_F2_10_G_4_SplitPt_186_GenID_0'
p1815
(lp1816
(lp1817
I26
aI1
aI190
aa(lp1818
I1
aI110
aI500
aasS'ID_53_F1_12_F2_8_G_3_SplitPt_198_GenID_0'
p1819
(lp1820
(lp1821
I19
aI1
aI257
aa(lp1822
I2
aI157
aI500
aasS'f7_26'
p1823
(lp1824
(lp1825
I1
aI1
aI500
aasS'ID_404_F1_18_F2_15_G_4_SplitPt_148_GenID_0'
p1826
(lp1827
(lp1828
I30
aI147
aI198
aasS'f4_11'
p1829
(lp1830
(lp1831
I5
aI1
aI500
aasS'ID_197_F1_0_F2_5_G_4_SplitPt_209_GenID_0'
p1832
(lp1833
(lp1834
I46
aI103
aI215
aa(lp1835
I1
aI134
aI500
aasS'ID_79_F1_19_F2_12_G_2_SplitPt_181_GenID_0'
p1836
(lp1837
(lp1838
I19
aI173
aI500
aa(lp1839
I3
aI1
aI214
aasS'f4_10'
p1840
(lp1841
(lp1842
I5
aI1
aI500
aasS'ID_146_F1_17_F2_14_G_4_SplitPt_136_GenID_0'
p1843
(lp1844
(lp1845
I24
aI136
aI240
aasS'ID_288_F1_3_F2_6_G_2_SplitPt_146_GenID_0'
p1846
(lp1847
(lp1848
I1
aI1
aI500
aasS'ID_281_F1_7_F2_2_G_3_SplitPt_140_GenID_0'
p1849
(lp1850
(lp1851
I35
aI72
aI162
aa(lp1852
I14
aI130
aI500
aa(lp1853
I1
aI1
aI145
aasS'ID_486_F1_5_F2_19_G_4_SplitPt_57_GenID_0'
p1854
(lp1855
(lp1856
I3
aI38
aI500
aa(lp1857
I1
aI1
aI102
aasS'f19_9'
p1858
(lp1859
(lp1860
I3
aI1
aI500
aasS'f3_18'
p1861
(lp1862
(lp1863
I43
aI1
aI66
aasS'f3_19'
p1864
(lp1865
(lp1866
I43
aI13
aI66
aasS'ID_89_F1_17_F2_10_G_4_SplitPt_169_GenID_0'
p1867
(lp1868
(lp1869
I54
aI164
aI229
aasS'ID_40_F1_3_F2_8_G_2_SplitPt_224_GenID_0'
p1870
(lp1871
(lp1872
I2
aI223
aI496
aa(lp1873
I1
aI1
aI242
aasS'f12_6'
p1874
(lp1875
(lp1876
I19
aI1
aI500
aasS'f19_0'
p1877
(lp1878
(lp1879
I53
aI256
aI365
aasS'ID_470_F1_17_F2_8_G_1_SplitPt_153_GenID_0'
p1880
(lp1881
(lp1882
I2
aI12
aI499
aa(lp1883
I1
aI2
aI156
aasS'f19_2'
p1884
(lp1885
(lp1886
I3
aI1
aI500
aasS'f19_3'
p1887
(lp1888
(lp1889
I3
aI1
aI500
aasS'f3_16'
p1890
(lp1891
(lp1892
I43
aI1
aI77
aasS'f3_17'
p1893
(lp1894
(lp1895
I43
aI1
aI66
aasS'ID_336_F1_6_F2_12_G_2_SplitPt_203_GenID_0'
p1896
(lp1897
(lp1898
I19
aI194
aI500
aa(lp1899
I1
aI1
aI253
aasS'f19_7'
p1900
(lp1901
(lp1902
I3
aI1
aI500
aasS'ID_466_F1_5_F2_7_G_2_SplitPt_146_GenID_0'
p1903
(lp1904
(lp1905
I1
aI1
aI500
aasS'ID_502_F1_13_F2_12_G_2_SplitPt_83_GenID_0'
p1906
(lp1907
(lp1908
I39
aI82
aI138
aa(lp1909
I5
aI2
aI125
aasS'f3_1'
p1910
(lp1911
(lp1912
I1
aI1
aI498
aasS'ID_25_F1_17_F2_1_G_2_SplitPt_129_GenID_0'
p1913
(lp1914
(lp1915
I14
aI27
aI500
aa(lp1916
I1
aI2
aI193
aasS'ID_185_F1_8_F2_2_G_0_SplitPt_172_GenID_0'
p1917
(lp1918
(lp1919
I2
aI1
aI213
aa(lp1920
I14
aI157
aI500
aasS'f18_31'
p1921
(lp1922
(lp1923
I26
aI2
aI499
aasS'f18_30'
p1924
(lp1925
(lp1926
I26
aI1
aI499
aasS'ID_269_F1_13_F2_3_G_2_SplitPt_170_GenID_0'
p1927
(lp1928
(lp1929
I5
aI1
aI178
aa(lp1930
I1
aI24
aI499
aasS'ID_2_F1_19_F2_10_G_0_SplitPt_146_GenID_0'
p1931
(lp1932
(lp1933
I71
aI103
aI158
aa(lp1934
I3
aI2
aI157
aa(lp1935
I1
aI115
aI500
aasS'ID_305_F1_3_F2_4_G_2_SplitPt_78_GenID_0'
p1936
(lp1937
(lp1938
I72
aI65
aI124
aa(lp1939
I43
aI1
aI78
aasS'f12_0'
p1940
(lp1941
(lp1942
I19
aI1
aI498
aasS'ID_0_F1_10_F2_13_G_0_SplitPt_177_GenID_0'
p1943
(lp1944
(lp1945
I63
aI41
aI343
aa(lp1946
I73
aI360
aI489
aa(lp1947
I1
aI23
aI179
aasS'ID_487_F1_12_F2_0_G_0_SplitPt_187_GenID_0'
p1948
(lp1949
(lp1950
I19
aI3
aI287
aa(lp1951
I13
aI147
aI500
aasS'f13_20'
p1952
(lp1953
(lp1954
I5
aI1
aI500
aasS'ID_406_F1_16_F2_3_G_3_SplitPt_82_GenID_0'
p1955
(lp1956
(lp1957
I74
aI87
aI156
aa(lp1958
I75
aI1
aI85
aasS'f6_9'
p1959
(lp1960
(lp1961
I1
aI1
aI500
aasS'f6_8'
p1962
(lp1963
(lp1964
I1
aI1
aI500
aasS'f6_5'
p1965
(lp1966
(lp1967
I1
aI1
aI500
aasS'f6_4'
p1968
(lp1969
(lp1970
I1
aI1
aI500
aasS'f6_7'
p1971
(lp1972
(lp1973
I1
aI1
aI500
aasS'f6_6'
p1974
(lp1975
(lp1976
I1
aI2
aI500
aasS'f6_1'
p1977
(lp1978
(lp1979
I1
aI2
aI500
aasS'f6_0'
p1980
(lp1981
(lp1982
I1
aI4
aI500
aasS'f6_3'
p1983
(lp1984
(lp1985
I1
aI2
aI500
aasS'ID_192_F1_7_F2_14_G_2_SplitPt_77_GenID_0'
p1986
(lp1987
(lp1988
I1
aI1
aI500
aasS'f4_3'
p1989
(lp1990
(lp1991
I5
aI1
aI500
aasS'f4_2'
p1992
(lp1993
(lp1994
I5
aI1
aI500
aasS'ID_49_F1_11_F2_10_G_0_SplitPt_150_GenID_0'
p1995
(lp1996
(lp1997
I10
aI2
aI158
aa(lp1998
I1
aI146
aI500
aasS'f4_0'
p1999
(lp2000
(lp2001
I5
aI1
aI500
aasS'f4_7'
p2002
(lp2003
(lp2004
I5
aI2
aI500
aasS'f4_6'
p2005
(lp2006
(lp2007
I5
aI2
aI500
aasS'f4_5'
p2008
(lp2009
(lp2010
I5
aI1
aI500
aasS'ID_250_F1_13_F2_2_G_2_SplitPt_158_GenID_0'
p2011
(lp2012
(lp2013
I14
aI101
aI500
aa(lp2014
I5
aI1
aI248
aasS'f17_2'
p2015
(lp2016
(lp2017
I1
aI2
aI500
aasS'f17_3'
p2018
(lp2019
(lp2020
I1
aI1
aI500
aasS'f4_9'
p2021
(lp2022
(lp2023
I5
aI1
aI500
aasS'f4_8'
p2024
(lp2025
(lp2026
I5
aI2
aI500
aasS'f17_6'
p2027
(lp2028
(lp2029
I1
aI3
aI500
aasS'f17_7'
p2030
(lp2031
(lp2032
I1
aI3
aI500
aasS'f17_4'
p2033
(lp2034
(lp2035
I1
aI6
aI500
aasS'f17_5'
p2036
(lp2037
(lp2038
I1
aI3
aI500
aasS'ID_344_F1_12_F2_13_G_1_SplitPt_167_GenID_0'
p2039
(lp2040
(lp2041
I45
aI400
aI488
aa(lp2042
I19
aI1
aI181
aasS'ID_65_F1_19_F2_14_G_2_SplitPt_165_GenID_0'
p2043
(lp2044
(lp2045
I3
aI1
aI195
aa(lp2046
I1
aI119
aI500
aasS'ID_425_F1_12_F2_2_G_4_SplitPt_164_GenID_0'
p2047
(lp2048
(lp2049
I66
aI113
aI163
aasS'ID_340_F1_1_F2_9_G_3_SplitPt_114_GenID_0'
p2050
(lp2051
(lp2052
I14
aI1
aI145
aa(lp2053
I1
aI56
aI500
aasS'f8_7'
p2054
(lp2055
(lp2056
I2
aI1
aI500
aasS'f8_6'
p2057
(lp2058
(lp2059
I2
aI1
aI499
aasS'f8_5'
p2060
(lp2061
(lp2062
I2
aI1
aI500
aasS'f8_4'
p2063
(lp2064
(lp2065
I2
aI1
aI500
aasS'f8_3'
p2066
(lp2067
(lp2068
I2
aI1
aI500
aasS'f8_2'
p2069
(lp2070
(lp2071
I2
aI1
aI500
aasS'f8_1'
p2072
(lp2073
(lp2074
I2
aI1
aI500
aasS'f8_0'
p2075
(lp2076
(lp2077
I2
aI1
aI500
aasS'f4_19'
p2078
(lp2079
(lp2080
I5
aI2
aI499
aasS'f7_29'
p2081
(lp2082
(lp2083
I1
aI1
aI500
aasS'f7_28'
p2084
(lp2085
(lp2086
I1
aI1
aI500
aasS'f8_9'
p2087
(lp2088
(lp2089
I2
aI1
aI500
aasS'ID_14_F1_12_F2_12_G_4_SplitPt_50_GenID_0'
p2090
(lp2091
(lp2092
I76
aI1
aI55
aasS'ID_113_F1_15_F2_12_G_3_SplitPt_144_GenID_0'
p2093
(lp2094
(lp2095
I77
aI70
aI149
aasS'ID_126_F1_7_F2_13_G_2_SplitPt_124_GenID_0'
p2096
(lp2097
(lp2098
I5
aI94
aI500
aa(lp2099
I1
aI1
aI146
aasS'ID_277_F1_7_F2_13_G_1_SplitPt_79_GenID_0'
p2100
(lp2101
(lp2102
I5
aI4
aI499
aa(lp2103
I1
aI1
aI167
aasS'f12_5'
p2104
(lp2105
(lp2106
I19
aI1
aI500
aasS'ID_189_F1_7_F2_17_G_4_SplitPt_91_GenID_0'
p2107
(lp2108
(lp2109
I1
aI1
aI500
aasS'ID_346_F1_0_F2_1_G_1_SplitPt_74_GenID_0'
p2110
(lp2111
(lp2112
I13
aI1
aI75
aa(lp2113
I14
aI49
aI500
aasS'ID_330_F1_19_F2_11_G_2_SplitPt_89_GenID_0'
p2114
(lp2115
(lp2116
I10
aI54
aI500
aa(lp2117
I3
aI1
aI120
aasS'ID_96_F1_13_F2_2_G_0_SplitPt_181_GenID_0'
p2118
(lp2119
(lp2120
I14
aI125
aI497
aa(lp2121
I5
aI2
aI186
aasS'f1_16'
p2122
(lp2123
(lp2124
I14
aI4
aI500
aasS'f11_0'
p2125
(lp2126
(lp2127
I10
aI1
aI499
aasS'f11_1'
p2128
(lp2129
(lp2130
I10
aI1
aI500
aasS'ID_494_F1_5_F2_13_G_3_SplitPt_191_GenID_0'
p2131
(lp2132
(lp2133
I78
aI84
aI202
aa(lp2134
I5
aI126
aI500
aa(lp2135
I1
aI1
aI194
aasS'ID_39_F1_2_F2_12_G_1_SplitPt_161_GenID_0'
p2136
(lp2137
(lp2138
I79
aI283
aI398
aa(lp2139
I14
aI1
aI185
aasS'f11_4'
p2140
(lp2141
(lp2142
I10
aI1
aI500
aasS'f11_5'
p2143
(lp2144
(lp2145
I10
aI1
aI500
aasS'f11_6'
p2146
(lp2147
(lp2148
I10
aI3
aI500
aasS'f11_7'
p2149
(lp2150
(lp2151
I10
aI2
aI500
aasS'f11_8'
p2152
(lp2153
(lp2154
I10
aI1
aI500
aasS'f11_9'
p2155
(lp2156
(lp2157
I10
aI1
aI500
aasS'f3_28'
p2158
(lp2159
(lp2160
I1
aI1
aI500
aasS'f16_19'
p2161
(lp2162
(lp2163
I1
aI1
aI500
aasS'ID_420_F1_1_F2_0_G_1_SplitPt_102_GenID_0'
p2164
(lp2165
(lp2166
I13
aI33
aI500
aa(lp2167
I14
aI1
aI133
aasS'f2_9'
p2168
(lp2169
(lp2170
I14
aI1
aI500
aasS'f2_8'
p2171
(lp2172
(lp2173
I14
aI1
aI500
aasS'f13_4'
p2174
(lp2175
(lp2176
I5
aI1
aI500
aasS'f13_5'
p2177
(lp2178
(lp2179
I5
aI1
aI500
aasS'ID_496_F1_13_F2_15_G_3_SplitPt_97_GenID_0'
p2180
(lp2181
(lp2182
I27
aI104
aI240
aa(lp2183
I5
aI1
aI104
aasS'f13_3'
p2184
(lp2185
(lp2186
I5
aI1
aI500
aasS'f13_0'
p2187
(lp2188
(lp2189
I5
aI1
aI500
aasS'f13_1'
p2190
(lp2191
(lp2192
I5
aI1
aI500
aasS'f2_1'
p2193
(lp2194
(lp2195
I14
aI1
aI498
aasS'f2_0'
p2196
(lp2197
(lp2198
I14
aI1
aI500
aasS'f2_3'
p2199
(lp2200
(lp2201
I14
aI1
aI500
aasS'f2_2'
p2202
(lp2203
(lp2204
I14
aI1
aI500
aasS'f2_5'
p2205
(lp2206
(lp2207
I14
aI4
aI500
aasS'f2_4'
p2208
(lp2209
(lp2210
I14
aI1
aI500
aasS'f2_7'
p2211
(lp2212
(lp2213
I14
aI1
aI499
aasS'f2_6'
p2214
(lp2215
(lp2216
I14
aI1
aI499
aasS'f15_4'
p2217
(lp2218
(lp2219
I1
aI1
aI500
aasS'f15_5'
p2220
(lp2221
(lp2222
I1
aI1
aI500
aasS'f15_6'
p2223
(lp2224
(lp2225
I1
aI1
aI500
aasS'f15_7'
p2226
(lp2227
(lp2228
I80
aI1
aI39
aasS'f15_0'
p2229
(lp2230
(lp2231
I1
aI1
aI499
aasS'f15_1'
p2232
(lp2233
(lp2234
I1
aI1
aI500
aasS'ID_445_F1_15_F2_9_G_0_SplitPt_67_GenID_0'
p2235
(lp2236
(lp2237
I80
aI1
aI39
aasS'f0_8'
p2238
(lp2239
(lp2240
I13
aI1
aI500
aasS'f0_7'
p2241
(lp2242
(lp2243
I13
aI1
aI499
aasS'f0_6'
p2244
(lp2245
(lp2246
I13
aI1
aI500
aasS'f0_5'
p2247
(lp2248
(lp2249
I13
aI1
aI500
aasS'f0_4'
p2250
(lp2251
(lp2252
I13
aI1
aI499
aasS'f0_3'
p2253
(lp2254
(lp2255
I13
aI1
aI500
aasS'f0_2'
p2256
(lp2257
(lp2258
I13
aI1
aI500
aasS'f0_1'
p2259
(lp2260
(lp2261
I13
aI1
aI499
aasS'f0_0'
p2262
(lp2263
(lp2264
I13
aI1
aI499
aasS'f1_28'
p2265
(lp2266
(lp2267
I14
aI1
aI500
aasS'ID_80_F1_4_F2_13_G_0_SplitPt_133_GenID_0'
p2268
(lp2269
(lp2270
I5
aI1
aI485
aasS'ID_289_F1_19_F2_1_G_1_SplitPt_120_GenID_0'
p2271
(lp2272
(lp2273
I3
aI5
aI116
aa(lp2274
I14
aI51
aI500
aasS'f6_31'
p2275
(lp2276
(lp2277
I1
aI1
aI500
aasS'ID_338_F1_8_F2_10_G_1_SplitPt_217_GenID_0'
p2278
(lp2279
(lp2280
I2
aI1
aI347
aa(lp2281
I1
aI166
aI500
aasS'ID_251_F1_5_F2_10_G_0_SplitPt_145_GenID_0'
p2282
(lp2283
(lp2284
I1
aI1
aI500
aasS'ID_165_F1_14_F2_5_G_1_SplitPt_146_GenID_0'
p2285
(lp2286
(lp2287
I1
aI1
aI500
aasS'ID_111_F1_12_F2_6_G_4_SplitPt_156_GenID_0'
p2288
(lp2289
(lp2290
I19
aI1
aI195
aa(lp2291
I1
aI46
aI500
aasS'ID_473_F1_1_F2_16_G_0_SplitPt_177_GenID_0'
p2292
(lp2293
(lp2294
I14
aI1
aI217
aa(lp2295
I1
aI131
aI497
aasS'ID_23_F1_14_F2_10_G_3_SplitPt_64_GenID_0'
p2296
(lp2297
(lp2298
I81
aI1
aI71
aa(lp2299
I1
aI35
aI500
aasS'ID_472_F1_18_F2_16_G_2_SplitPt_168_GenID_0'
p2300
(lp2301
(lp2302
I26
aI1
aI199
aa(lp2303
I1
aI142
aI500
aasS'ID_319_F1_8_F2_19_G_4_SplitPt_179_GenID_0'
p2304
(lp2305
(lp2306
I2
aI1
aI225
aa(lp2307
I3
aI112
aI500
aasS'ID_180_F1_15_F2_10_G_1_SplitPt_147_GenID_0'
p2308
(lp2309
(lp2310
I1
aI2
aI500
aasS'ID_256_F1_4_F2_1_G_4_SplitPt_218_GenID_0'
p2311
(lp2312
(lp2313
I14
aI178
aI500
aa(lp2314
I5
aI1
aI238
aasS'ID_76_F1_2_F2_3_G_3_SplitPt_123_GenID_0'
p2315
(lp2316
(lp2317
I14
aI1
aI134
aa(lp2318
I1
aI98
aI500
aasS'f14_19'
p2319
(lp2320
(lp2321
I1
aI1
aI500
aasS'ID_44_F1_16_F2_2_G_3_SplitPt_200_GenID_0'
p2322
(lp2323
(lp2324
I14
aI191
aI500
aa(lp2325
I1
aI1
aI231
aasS'ID_103_F1_8_F2_5_G_4_SplitPt_239_GenID_0'
p2326
(lp2327
(lp2328
I57
aI185
aI239
aa(lp2329
I1
aI216
aI500
aasS'ID_370_F1_14_F2_17_G_0_SplitPt_138_GenID_0'
p2330
(lp2331
(lp2332
I1
aI77
aI498
aasS'f16_13'
p2333
(lp2334
(lp2335
I1
aI2
aI495
aasS'f16_12'
p2336
(lp2337
(lp2338
I21
aI241
aI350
aasS'f16_11'
p2339
(lp2340
(lp2341
I1
aI1
aI499
aasS'f16_10'
p2342
(lp2343
(lp2344
I1
aI1
aI500
aasS'f16_17'
p2345
(lp2346
(lp2347
I1
aI1
aI500
aasS'f19_11'
p2348
(lp2349
(lp2350
I3
aI1
aI500
aasS'f16_15'
p2351
(lp2352
(lp2353
I1
aI2
aI500
aasS'f16_14'
p2354
(lp2355
(lp2356
I1
aI6
aI500
aasS'f10_18'
p2357
(lp2358
(lp2359
I1
aI1
aI500
aasS'ID_45_F1_13_F2_8_G_0_SplitPt_244_GenID_0'
p2360
(lp2361
(lp2362
I2
aI228
aI500
aa(lp2363
I5
aI1
aI335
aasS'f16_18'
p2364
(lp2365
(lp2366
I1
aI1
aI500
aasS'ID_210_F1_6_F2_19_G_1_SplitPt_144_GenID_0'
p2367
(lp2368
(lp2369
I3
aI144
aI495
aa(lp2370
I1
aI1
aI252
aasS'f7_22'
p2371
(lp2372
(lp2373
I1
aI3
aI500
aasS'ID_29_F1_8_F2_4_G_3_SplitPt_187_GenID_0'
p2374
(lp2375
(lp2376
I2
aI1
aI187
aa(lp2377
I5
aI147
aI500
aasS'ID_474_F1_0_F2_14_G_1_SplitPt_138_GenID_0'
p2378
(lp2379
(lp2380
I82
aI132
aI229
aa(lp2381
I13
aI1
aI218
aasS'ID_393_F1_13_F2_3_G_4_SplitPt_175_GenID_0'
p2382
(lp2383
(lp2384
I5
aI1
aI219
aa(lp2385
I1
aI22
aI500
aasS'ID_73_F1_13_F2_10_G_2_SplitPt_122_GenID_0'
p2386
(lp2387
(lp2388
I5
aI1
aI153
aa(lp2389
I1
aI45
aI500
aasS'ID_59_F1_1_F2_0_G_3_SplitPt_158_GenID_0'
p2390
(lp2391
(lp2392
I14
aI2
aI179
aasS'ID_316_F1_2_F2_1_G_1_SplitPt_107_GenID_0'
p2393
(lp2394
(lp2395
I14
aI1
aI500
aasS'f6_24'
p2396
(lp2397
(lp2398
I1
aI1
aI500
aasS'ID_265_F1_10_F2_4_G_4_SplitPt_131_GenID_0'
p2399
(lp2400
(lp2401
I5
aI83
aI500
aa(lp2402
I1
aI1
aI181
aasS'f6_26'
p2403
(lp2404
(lp2405
I1
aI1
aI500
aasS'ID_375_F1_14_F2_1_G_2_SplitPt_217_GenID_0'
p2406
(lp2407
(lp2408
I14
aI163
aI500
aa(lp2409
I1
aI1
aI251
aasS'f6_20'
p2410
(lp2411
(lp2412
I1
aI1
aI500
aasS'f6_21'
p2413
(lp2414
(lp2415
I1
aI1
aI500
aasS'f6_22'
p2416
(lp2417
(lp2418
I1
aI1
aI500
aasS'f6_23'
p2419
(lp2420
(lp2421
I1
aI1
aI500
aasS'ID_341_F1_14_F2_6_G_3_SplitPt_88_GenID_0'
p2422
(lp2423
(lp2424
I1
aI1
aI500
aasS'ID_317_F1_1_F2_5_G_2_SplitPt_105_GenID_0'
p2425
(lp2426
(lp2427
I14
aI1
aI150
aa(lp2428
I1
aI74
aI500
aasS'f6_28'
p2429
(lp2430
(lp2431
I1
aI1
aI500
aasS'f6_29'
p2432
(lp2433
(lp2434
I1
aI1
aI500
aasS'ID_220_F1_1_F2_18_G_1_SplitPt_245_GenID_0'
p2435
(lp2436
(lp2437
I26
aI186
aI500
aa(lp2438
I14
aI1
aI327
aasS'f1_25'
p2439
(lp2440
(lp2441
I60
aI366
aI497
aasS'f1_24'
p2442
(lp2443
(lp2444
I14
aI1
aI500
aasS'f1_27'
p2445
(lp2446
(lp2447
I14
aI1
aI500
aasS'f1_26'
p2448
(lp2449
(lp2450
I14
aI1
aI500
aasS'f1_21'
p2451
(lp2452
(lp2453
I14
aI1
aI500
aasS'f1_20'
p2454
(lp2455
(lp2456
I14
aI1
aI500
aasS'f1_23'
p2457
(lp2458
(lp2459
I14
aI1
aI500
aasS'f1_22'
p2460
(lp2461
(lp2462
I14
aI1
aI500
aasS'f14_15'
p2463
(lp2464
(lp2465
I1
aI1
aI500
aasS'f14_14'
p2466
(lp2467
(lp2468
I1
aI1
aI500
aasS'f14_17'
p2469
(lp2470
(lp2471
I1
aI1
aI500
aasS'f14_16'
p2472
(lp2473
(lp2474
I1
aI1
aI500
aasS'f1_29'
p2475
(lp2476
(lp2477
I14
aI1
aI500
aasS'f14_10'
p2478
(lp2479
(lp2480
I83
aI66
aI157
aasS'ID_437_F1_15_F2_18_G_4_SplitPt_61_GenID_0'
p2481
(lp2482
(lp2483
I18
aI62
aI119
aa(lp2484
I1
aI1
aI68
aasS'f14_12'
p2485
(lp2486
(lp2487
I1
aI1
aI500
aasS'ID_447_F1_8_F2_0_G_2_SplitPt_195_GenID_0'
p2488
(lp2489
(lp2490
I13
aI186
aI500
aa(lp2491
I2
aI1
aI195
aasS'ID_211_F1_13_F2_5_G_4_SplitPt_177_GenID_0'
p2492
(lp2493
(lp2494
I5
aI1
aI256
aa(lp2495
I1
aI149
aI500
aasS'ID_418_F1_16_F2_4_G_4_SplitPt_235_GenID_0'
p2496
(lp2497
(lp2498
I84
aI177
aI226
aasS'f6_14'
p2499
(lp2500
(lp2501
I1
aI1
aI499
aasS'ID_129_F1_10_F2_7_G_2_SplitPt_83_GenID_0'
p2502
(lp2503
(lp2504
I85
aI378
aI500
aasS'f2_31'
p2505
(lp2506
(lp2507
I14
aI1
aI500
aasS'f2_30'
p2508
(lp2509
(lp2510
I64
aI229
aI367
aasS'ID_306_F1_17_F2_10_G_3_SplitPt_116_GenID_0'
p2511
(lp2512
(lp2513
I1
aI1
aI500
aasS'ID_464_F1_14_F2_13_G_4_SplitPt_227_GenID_0'
p2514
(lp2515
(lp2516
I5
aI181
aI500
aa(lp2517
I1
aI1
aI270
aasS'ID_176_F1_4_F2_13_G_4_SplitPt_124_GenID_0'
p2518
(lp2519
(lp2520
I72
aI65
aI124
aasS'ID_11_F1_1_F2_15_G_2_SplitPt_72_GenID_0'
p2521
(lp2522
(lp2523
I77
aI70
aI149
aa(lp2524
I14
aI3
aI130
aasS'ID_492_F1_15_F2_16_G_4_SplitPt_67_GenID_0'
p2525
(lp2526
(lp2527
I1
aI1
aI500
aasS'ID_312_F1_10_F2_16_G_4_SplitPt_142_GenID_0'
p2528
(lp2529
(lp2530
I86
aI142
aI190
aasS'ID_18_F1_18_F2_10_G_4_SplitPt_231_GenID_0'
p2531
(lp2532
(lp2533
I26
aI1
aI286
aa(lp2534
I1
aI166
aI500
aasS'ID_203_F1_0_F2_18_G_4_SplitPt_78_GenID_0'
p2535
(lp2536
(lp2537
I68
aI79
aI137
aa(lp2538
I13
aI1
aI102
aasS'f13_31'
p2539
(lp2540
(lp2541
I5
aI1
aI500
aasS'ID_430_F1_11_F2_19_G_3_SplitPt_105_GenID_0'
p2542
(lp2543
(lp2544
I10
aI1
aI106
aa(lp2545
I3
aI56
aI500
aasS'ID_87_F1_18_F2_17_G_0_SplitPt_121_GenID_0'
p2546
(lp2547
(lp2548
I26
aI1
aI111
aa(lp2549
I1
aI80
aI500
aasS'ID_329_F1_15_F2_15_G_4_SplitPt_64_GenID_0'
p2550
(lp2551
(lp2552
I1
aI1
aI500
aasS'ID_414_F1_18_F2_1_G_3_SplitPt_118_GenID_0'
p2553
(lp2554
(lp2555
I26
aI2
aI195
aa(lp2556
I14
aI57
aI500
aasS'f8_13'
p2557
(lp2558
(lp2559
I2
aI1
aI500
aasS'f8_12'
p2560
(lp2561
(lp2562
I2
aI1
aI500
aasS'f8_11'
p2563
(lp2564
(lp2565
I2
aI1
aI500
aasS'ID_167_F1_14_F2_8_G_3_SplitPt_249_GenID_0'
p2566
(lp2567
(lp2568
I59
aI371
aI484
aa(lp2569
I61
aI178
aI261
aasS'f8_17'
p2570
(lp2571
(lp2572
I2
aI1
aI500
aasS'f8_16'
p2573
(lp2574
(lp2575
I2
aI1
aI500
aasS'f8_15'
p2576
(lp2577
(lp2578
I2
aI2
aI500
aasS'f8_14'
p2579
(lp2580
(lp2581
I87
aI384
aI495
aasS'ID_143_F1_0_F2_6_G_0_SplitPt_193_GenID_0'
p2582
(lp2583
(lp2584
I13
aI2
aI268
aa(lp2585
I1
aI169
aI500
aasS'f8_19'
p2586
(lp2587
(lp2588
I2
aI1
aI500
aasS'f8_18'
p2589
(lp2590
(lp2591
I2
aI1
aI500
aasS'f0_10'
p2592
(lp2593
(lp2594
I88
aI406
aI480
aasS'ID_396_F1_4_F2_15_G_4_SplitPt_213_GenID_0'
p2595
(lp2596
(lp2597
I5
aI1
aI300
aa(lp2598
I1
aI168
aI500
aasS'ID_90_F1_10_F2_2_G_0_SplitPt_55_GenID_0'
p2599
(lp2600
(lp2601
I14
aI36
aI500
aasS'f10_30'
p2602
(lp2603
(lp2604
I1
aI2
aI500
aasS'ID_297_F1_7_F2_13_G_0_SplitPt_122_GenID_0'
p2605
(lp2606
(lp2607
I1
aI24
aI118
aasS'f15_21'
p2608
(lp2609
(lp2610
I1
aI1
aI500
aasS'ID_432_F1_15_F2_0_G_1_SplitPt_246_GenID_0'
p2611
(lp2612
(lp2613
I13
aI234
aI500
aa(lp2614
I1
aI1
aI267
aasS'ID_373_F1_5_F2_10_G_3_SplitPt_158_GenID_0'
p2615
(lp2616
(lp2617
I1
aI1
aI500
aasS'ID_235_F1_9_F2_6_G_1_SplitPt_160_GenID_0'
p2618
(lp2619
(lp2620
I1
aI1
aI500
aasS'ID_483_F1_2_F2_19_G_1_SplitPt_122_GenID_0'
p2621
(lp2622
(lp2623
I3
aI98
aI500
aa(lp2624
I14
aI1
aI126
aasS'ID_451_F1_7_F2_2_G_2_SplitPt_143_GenID_0'
p2625
(lp2626
(lp2627
I14
aI103
aI500
aa(lp2628
I1
aI1
aI168
aasS'ID_22_F1_0_F2_18_G_0_SplitPt_92_GenID_0'
p2629
(lp2630
(lp2631
I13
aI1
aI91
aa(lp2632
I26
aI49
aI500
aasS'f18_1'
p2633
(lp2634
(lp2635
I26
aI1
aI500
aasS'f18_0'
p2636
(lp2637
(lp2638
I26
aI1
aI500
aasS'f18_3'
p2639
(lp2640
(lp2641
I26
aI1
aI500
aasS'f18_2'
p2642
(lp2643
(lp2644
I26
aI1
aI500
aasS'ID_134_F1_14_F2_19_G_4_SplitPt_208_GenID_0'
p2645
(lp2646
(lp2647
I81
aI12
aI71
aa(lp2648
I3
aI17
aI500
aasS'f18_4'
p2649
(lp2650
(lp2651
I26
aI1
aI500
aasS'f18_7'
p2652
(lp2653
(lp2654
I26
aI1
aI500
aasS'f18_6'
p2655
(lp2656
(lp2657
I26
aI1
aI500
aasS'f18_9'
p2658
(lp2659
(lp2660
I26
aI1
aI500
aasS'ID_152_F1_9_F2_17_G_2_SplitPt_138_GenID_0'
p2661
(lp2662
(lp2663
I28
aI3
aI75
aasS'ID_381_F1_5_F2_5_G_2_SplitPt_157_GenID_0'
p2664
(lp2665
(lp2666
I1
aI2
aI500
aasS'f14_18'
p2667
(lp2668
(lp2669
I1
aI1
aI500
aasS'ID_228_F1_6_F2_16_G_0_SplitPt_86_GenID_0'
p2670
(lp2671
(lp2672
I1
aI1
aI500
aasS'f7_20'
p2673
(lp2674
(lp2675
I1
aI1
aI500
aasS'ID_100_F1_16_F2_6_G_0_SplitPt_164_GenID_0'
p2676
(lp2677
(lp2678
I1
aI2
aI500
aasS'ID_124_F1_2_F2_6_G_1_SplitPt_130_GenID_0'
p2679
(lp2680
(lp2681
I14
aI3
aI145
aa(lp2682
I1
aI48
aI495
aasS'f9_30'
p2683
(lp2684
(lp2685
I1
aI1
aI500
aasS'f9_31'
p2686
(lp2687
(lp2688
I1
aI1
aI500
aasS'ID_367_F1_18_F2_11_G_1_SplitPt_219_GenID_0'
p2689
(lp2690
(lp2691
I10
aI181
aI500
aa(lp2692
I26
aI1
aI263
aasS'f5_30'
p2693
(lp2694
(lp2695
I1
aI1
aI499
aasS'ID_150_F1_19_F2_0_G_2_SplitPt_133_GenID_0'
p2696
(lp2697
(lp2698
I13
aI44
aI500
aa(lp2699
I3
aI1
aI193
aasS'ID_355_F1_8_F2_14_G_2_SplitPt_71_GenID_0'
p2700
(lp2701
(lp2702
I2
aI2
aI100
aa(lp2703
I1
aI16
aI499
aasS'ID_179_F1_18_F2_19_G_4_SplitPt_187_GenID_0'
p2704
(lp2705
(lp2706
I26
aI1
aI207
aa(lp2707
I3
aI157
aI500
aasS'ID_24_F1_0_F2_19_G_4_SplitPt_144_GenID_0'
p2708
(lp2709
(lp2710
I13
aI1
aI191
aasS'ID_399_F1_14_F2_3_G_1_SplitPt_160_GenID_0'
p2711
(lp2712
(lp2713
I1
aI2
aI500
aasS'ID_471_F1_16_F2_7_G_3_SplitPt_131_GenID_0'
p2714
(lp2715
(lp2716
I34
aI57
aI133
aasS'f16_28'
p2717
(lp2718
(lp2719
I1
aI1
aI500
aasS'ID_343_F1_1_F2_11_G_4_SplitPt_125_GenID_0'
p2720
(lp2721
(lp2722
I89
aI64
aI124
aa(lp2723
I40
aI91
aI125
aa(lp2724
I10
aI108
aI500
aasS'f14_9'
p2725
(lp2726
(lp2727
I1
aI1
aI499
aasS'f14_8'
p2728
(lp2729
(lp2730
I1
aI1
aI499
aasS'ID_482_F1_0_F2_9_G_3_SplitPt_187_GenID_0'
p2731
(lp2732
(lp2733
I13
aI1
aI192
aa(lp2734
I1
aI138
aI500
aasS'f14_5'
p2735
(lp2736
(lp2737
I1
aI1
aI500
aasS'f16_23'
p2738
(lp2739
(lp2740
I1
aI1
aI500
aasS'f14_7'
p2741
(lp2742
(lp2743
I81
aI1
aI71
aasS'f14_6'
p2744
(lp2745
(lp2746
I81
aI12
aI71
aasS'f16_26'
p2747
(lp2748
(lp2749
I75
aI4
aI85
aasS'f16_27'
p2750
(lp2751
(lp2752
I75
aI4
aI85
aasS'f16_24'
p2753
(lp2754
(lp2755
I75
aI1
aI80
aa(lp2756
I1
aI10
aI500
aasS'f16_25'
p2757
(lp2758
(lp2759
I75
aI1
aI93
aa(lp2760
I1
aI5
aI500
aasS'f10_27'
p2761
(lp2762
(lp2763
I1
aI1
aI500
aasS'ID_232_F1_4_F2_12_G_2_SplitPt_208_GenID_0'
p2764
(lp2765
(lp2766
I19
aI9
aI500
aa(lp2767
I5
aI1
aI249
aasS'f16_1'
p2768
(lp2769
(lp2770
I1
aI1
aI500
aasS'f16_0'
p2771
(lp2772
(lp2773
I90
aI406
aI499
aasS'f16_7'
p2774
(lp2775
(lp2776
I1
aI2
aI500
aasS'ID_237_F1_8_F2_14_G_2_SplitPt_208_GenID_0'
p2777
(lp2778
(lp2779
I2
aI1
aI230
aa(lp2780
I1
aI81
aI500
aasS'f0_28'
p2781
(lp2782
(lp2783
I13
aI1
aI500
aasS'f0_29'
p2784
(lp2785
(lp2786
I13
aI1
aI500
aasS'f0_26'
p2787
(lp2788
(lp2789
I13
aI1
aI500
aasS'f0_27'
p2790
(lp2791
(lp2792
I13
aI1
aI500
aasS'f0_24'
p2793
(lp2794
(lp2795
I13
aI1
aI499
aasS'f0_25'
p2796
(lp2797
(lp2798
I13
aI1
aI500
aasS'f0_22'
p2799
(lp2800
(lp2801
I13
aI2
aI500
aasS'f0_23'
p2802
(lp2803
(lp2804
I13
aI1
aI500
aasS'f0_20'
p2805
(lp2806
(lp2807
I13
aI1
aI500
aasS'ID_15_F1_3_F2_7_G_2_SplitPt_66_GenID_0'
p2808
(lp2809
(lp2810
I43
aI1
aI66
aa(lp2811
I1
aI31
aI500
aasS'f17_21'
p2812
(lp2813
(lp2814
I1
aI1
aI500
aasS'f17_20'
p2815
(lp2816
(lp2817
I1
aI1
aI500
aasS'f17_23'
p2818
(lp2819
(lp2820
I1
aI1
aI500
aasS'ID_322_F1_13_F2_0_G_4_SplitPt_181_GenID_0'
p2821
(lp2822
(lp2823
I13
aI164
aI500
aa(lp2824
I5
aI1
aI305
aasS'f17_25'
p2825
(lp2826
(lp2827
I1
aI1
aI499
aasS'f17_24'
p2828
(lp2829
(lp2830
I1
aI1
aI500
aasS'f17_27'
p2831
(lp2832
(lp2833
I1
aI1
aI500
aasS'f17_26'
p2834
(lp2835
(lp2836
I1
aI1
aI500
aasS'f17_29'
p2837
(lp2838
(lp2839
I1
aI1
aI500
aasS'f17_28'
p2840
(lp2841
(lp2842
I1
aI1
aI500
aasS'ID_12_F1_12_F2_14_G_2_SplitPt_133_GenID_0'
p2843
(lp2844
(lp2845
I19
aI1
aI197
aa(lp2846
I1
aI90
aI500
aasS'ID_92_F1_0_F2_10_G_1_SplitPt_62_GenID_0'
p2847
(lp2848
(lp2849
I1
aI30
aI500
aasS'f7_1'
p2850
(lp2851
(lp2852
I1
aI1
aI500
aasS'ID_154_F1_9_F2_18_G_1_SplitPt_72_GenID_0'
p2853
(lp2854
(lp2855
I51
aI1
aI66
aa(lp2856
I26
aI47
aI499
aasS'ID_30_F1_8_F2_13_G_1_SplitPt_130_GenID_0'
p2857
(lp2858
(lp2859
I2
aI1
aI203
aa(lp2860
I5
aI58
aI500
aasS'f15_2'
p2861
(lp2862
(lp2863
I1
aI1
aI500
aasS'ID_352_F1_6_F2_9_G_0_SplitPt_109_GenID_0'
p2864
(lp2865
(lp2866
I91
aI256
aI348
aasS'ID_61_F1_12_F2_19_G_2_SplitPt_117_GenID_0'
p2867
(lp2868
(lp2869
I19
aI1
aI142
aa(lp2870
I3
aI97
aI500
aasS'ID_3_F1_8_F2_7_G_1_SplitPt_116_GenID_0'
p2871
(lp2872
(lp2873
I2
aI1
aI117
aa(lp2874
I1
aI41
aI500
aasS'ID_309_F1_14_F2_8_G_1_SplitPt_235_GenID_0'
p2875
(lp2876
(lp2877
I82
aI131
aI229
aa(lp2878
I2
aI225
aI499
aasS'ID_510_F1_2_F2_6_G_1_SplitPt_90_GenID_0'
p2879
(lp2880
(lp2881
I14
aI1
aI113
aa(lp2882
I1
aI48
aI500
aasS'ID_354_F1_8_F2_3_G_2_SplitPt_235_GenID_0'
p2883
(lp2884
(lp2885
I2
aI1
aI244
aa(lp2886
I1
aI153
aI500
aasS'ID_280_F1_18_F2_10_G_3_SplitPt_157_GenID_0'
p2887
(lp2888
(lp2889
I26
aI1
aI161
aa(lp2890
I1
aI143
aI500
aasS'ID_217_F1_18_F2_16_G_3_SplitPt_121_GenID_0'
p2891
(lp2892
(lp2893
I26
aI1
aI166
aa(lp2894
I1
aI49
aI500
aasS'f10_9'
p2895
(lp2896
(lp2897
I1
aI1
aI500
aasS'f10_8'
p2898
(lp2899
(lp2900
I23
aI360
aI433
aasS'ID_392_F1_3_F2_13_G_2_SplitPt_165_GenID_0'
p2901
(lp2902
(lp2903
I74
aI87
aI156
aa(lp2904
I5
aI129
aI500
aasS'f13_30'
p2905
(lp2906
(lp2907
I5
aI2
aI499
aasS'ID_214_F1_13_F2_19_G_4_SplitPt_234_GenID_0'
p2908
(lp2909
(lp2910
I3
aI187
aI500
aa(lp2911
I5
aI1
aI310
aasS'f10_1'
p2912
(lp2913
(lp2914
I1
aI7
aI500
aasS'f10_0'
p2915
(lp2916
(lp2917
I1
aI1
aI500
aasS'f10_3'
p2918
(lp2919
(lp2920
I1
aI2
aI500
aasS'f10_2'
p2921
(lp2922
(lp2923
I1
aI2
aI500
aasS'f10_5'
p2924
(lp2925
(lp2926
I1
aI2
aI500
aasS'ID_374_F1_14_F2_15_G_4_SplitPt_157_GenID_0'
p2927
(lp2928
(lp2929
I83
aI66
aI157
aasS'f10_7'
p2930
(lp2931
(lp2932
I1
aI1
aI500
aasS'f10_6'
p2933
(lp2934
(lp2935
I1
aI1
aI500
aasS'f4_17'
p2936
(lp2937
(lp2938
I5
aI1
aI500
aasS'f4_16'
p2939
(lp2940
(lp2941
I5
aI1
aI500
aasS'f4_15'
p2942
(lp2943
(lp2944
I5
aI2
aI500
aasS'f4_14'
p2945
(lp2946
(lp2947
I5
aI2
aI500
aasS'f4_13'
p2948
(lp2949
(lp2950
I5
aI2
aI500
aasS'f4_12'
p2951
(lp2952
(lp2953
I70
aI198
aI272
aa(lp2954
I92
aI139
aI252
aasS'f12_9'
p2955
(lp2956
(lp2957
I76
aI1
aI55
aasS'f12_8'
p2958
(lp2959
(lp2960
I76
aI1
aI53
aasS'f12_7'
p2961
(lp2962
(lp2963
I19
aI1
aI500
aasS'ID_478_F1_12_F2_6_G_0_SplitPt_236_GenID_0'
p2964
(lp2965
(lp2966
I19
aI1
aI250
aa(lp2967
I1
aI46
aI500
aasS'ID_290_F1_8_F2_0_G_4_SplitPt_222_GenID_0'
p2968
(lp2969
(lp2970
I13
aI177
aI500
aa(lp2971
I2
aI1
aI317
aasS'f12_4'
p2972
(lp2973
(lp2974
I19
aI1
aI500
aasS'f12_3'
p2975
(lp2976
(lp2977
I19
aI1
aI500
aasS'f12_2'
p2978
(lp2979
(lp2980
I19
aI1
aI500
aasS'f12_1'
p2981
(lp2982
(lp2983
I19
aI1
aI500
aasS'ID_480_F1_12_F2_1_G_4_SplitPt_73_GenID_0'
p2984
(lp2985
(lp2986
I19
aI1
aI109
aa(lp2987
I14
aI72
aI500
aasS'f3_27'
p2988
(lp2989
(lp2990
I1
aI1
aI500
aasS'f3_26'
p2991
(lp2992
(lp2993
I36
aI289
aI398
aasS'f3_25'
p2994
(lp2995
(lp2996
I1
aI1
aI500
aasS'f3_24'
p2997
(lp2998
(lp2999
I1
aI1
aI500
aasS'ID_229_F1_7_F2_2_G_1_SplitPt_169_GenID_0'
p3000
(lp3001
(lp3002
I14
aI138
aI500
aa(lp3003
I1
aI2
aI179
aasS'f3_22'
p3004
(lp3005
(lp3006
I43
aI2
aI77
aa(lp3007
I1
aI8
aI499
aasS'f3_21'
p3008
(lp3009
(lp3010
I43
aI1
aI77
aasS'f3_20'
p3011
(lp3012
(lp3013
I43
aI1
aI77
aasS'ID_8_F1_13_F2_19_G_3_SplitPt_104_GenID_0'
p3014
(lp3015
(lp3016
I3
aI81
aI500
aa(lp3017
I5
aI1
aI109
aasS'ID_323_F1_2_F2_14_G_3_SplitPt_225_GenID_0'
p3018
(lp3019
(lp3020
I14
aI1
aI246
aa(lp3021
I1
aI150
aI500
aasS'f3_29'
p3022
(lp3023
(lp3024
I1
aI4
aI500
aasS'f1_11'
p3025
(lp3026
(lp3027
I14
aI1
aI499
aasS'ID_453_F1_12_F2_9_G_2_SplitPt_170_GenID_0'
p3028
(lp3029
(lp3030
I91
aI259
aI348
aa(lp3031
I19
aI1
aI195
aasS'ID_183_F1_6_F2_4_G_2_SplitPt_135_GenID_0'
p3032
(lp3033
(lp3034
I92
aI139
aI252
aa(lp3035
I1
aI1
aI181
aasS'ID_182_F1_19_F2_3_G_4_SplitPt_205_GenID_0'
p3036
(lp3037
(lp3038
I3
aI1
aI261
aa(lp3039
I1
aI206
aI500
aasS'ID_98_F1_15_F2_15_G_1_SplitPt_202_GenID_0'
p3040
(lp3041
(lp3042
I1
aI2
aI500
aasS'ID_240_F1_7_F2_4_G_3_SplitPt_183_GenID_0'
p3043
(lp3044
(lp3045
I5
aI174
aI500
aa(lp3046
I1
aI1
aI261
aasS'ID_221_F1_8_F2_6_G_2_SplitPt_145_GenID_0'
p3047
(lp3048
(lp3049
I2
aI2
aI160
aa(lp3050
I1
aI100
aI500
aasS'ID_63_F1_12_F2_19_G_4_SplitPt_122_GenID_0'
p3051
(lp3052
(lp3053
I38
aI123
aI247
aa(lp3054
I19
aI1
aI176
aasS'f6_19'
p3055
(lp3056
(lp3057
I1
aI1
aI500
aasS'f6_18'
p3058
(lp3059
(lp3060
I1
aI1
aI500
aasS'ID_201_F1_18_F2_13_G_4_SplitPt_229_GenID_0'
p3061
(lp3062
(lp3063
I58
aI180
aI229
aa(lp3064
I5
aI185
aI500
aasS'f6_15'
p3065
(lp3066
(lp3067
I1
aI1
aI500
aasS'ID_21_F1_17_F2_13_G_1_SplitPt_110_GenID_0'
p3068
(lp3069
(lp3070
I5
aI94
aI500
aasS'f6_17'
p3071
(lp3072
(lp3073
I1
aI1
aI500
aasS'f6_16'
p3074
(lp3075
(lp3076
I1
aI1
aI499
aasS'f6_11'
p3077
(lp3078
(lp3079
I1
aI1
aI500
aasS'f6_10'
p3080
(lp3081
(lp3082
I1
aI2
aI500
aasS'f6_13'
p3083
(lp3084
(lp3085
I12
aI1
aI63
aasS'f6_12'
p3086
(lp3087
(lp3088
I1
aI1
aI500
aasS'f19_6'
p3089
(lp3090
(lp3091
I3
aI1
aI500
aasS'ID_311_F1_6_F2_10_G_4_SplitPt_57_GenID_0'
p3092
(lp3093
(lp3094
I1
aI1
aI500
aasS'f4_30'
p3095
(lp3096
(lp3097
I5
aI1
aI500
aasS'ID_419_F1_2_F2_1_G_1_SplitPt_153_GenID_0'
p3098
(lp3099
(lp3100
I14
aI1
aI500
aasS'ID_391_F1_7_F2_7_G_4_SplitPt_57_GenID_0'
p3101
(lp3102
(lp3103
I1
aI1
aI500
aasS'ID_226_F1_9_F2_4_G_2_SplitPt_183_GenID_0'
p3104
(lp3105
(lp3106
I5
aI126
aI500
aa(lp3107
I1
aI1
aI194
aasS'ID_7_F1_9_F2_16_G_1_SplitPt_230_GenID_0'
p3108
(lp3109
(lp3110
I1
aI1
aI499
aasS'ID_386_F1_13_F2_19_G_0_SplitPt_210_GenID_0'
p3111
(lp3112
(lp3113
I93
aI319
aI404
aa(lp3114
I5
aI3
aI232
aasS'ID_147_F1_0_F2_9_G_4_SplitPt_70_GenID_0'
p3115
(lp3116
(lp3117
I13
aI1
aI83
aa(lp3118
I1
aI59
aI500
aasS'ID_272_F1_18_F2_4_G_0_SplitPt_98_GenID_0'
p3119
(lp3120
(lp3121
I5
aI87
aI500
aasS'ID_138_F1_10_F2_5_G_0_SplitPt_207_GenID_0'
p3122
(lp3123
(lp3124
I1
aI1
aI500
aasS'ID_463_F1_9_F2_13_G_4_SplitPt_221_GenID_0'
p3125
(lp3126
(lp3127
I94
aI142
aI220
aa(lp3128
I5
aI199
aI500
aasS'ID_455_F1_15_F2_12_G_0_SplitPt_207_GenID_0'
p3129
(lp3130
(lp3131
I19
aI163
aI498
aa(lp3132
I1
aI1
aI226
aasS'ID_114_F1_7_F2_10_G_1_SplitPt_198_GenID_0'
p3133
(lp3134
(lp3135
I1
aI1
aI499
aasS'ID_249_F1_0_F2_10_G_0_SplitPt_169_GenID_0'
p3136
(lp3137
(lp3138
I13
aI1
aI227
aa(lp3139
I1
aI81
aI500
aasS'ID_282_F1_14_F2_14_G_3_SplitPt_226_GenID_0'
p3140
(lp3141
(lp3142
I1
aI1
aI500
aasS'ID_326_F1_18_F2_8_G_4_SplitPt_209_GenID_0'
p3143
(lp3144
(lp3145
I2
aI183
aI500
aa(lp3146
I26
aI1
aI243
aasS'f9_7'
p3147
(lp3148
(lp3149
I1
aI2
aI500
aasS'ID_10_F1_10_F2_17_G_4_SplitPt_140_GenID_0'
p3150
(lp3151
(lp3152
I1
aI1
aI500
aasS'ID_382_F1_14_F2_3_G_0_SplitPt_147_GenID_0'
p3153
(lp3154
(lp3155
I1
aI1
aI500
aasS'ID_490_F1_5_F2_6_G_2_SplitPt_208_GenID_0'
p3156
(lp3157
(lp3158
I65
aI399
aI483
aasS'f7_30'
p3159
(lp3160
(lp3161
I1
aI1
aI500
aasS'f7_31'
p3162
(lp3163
(lp3164
I1
aI1
aI500
aasS'f12_17'
p3165
(lp3166
(lp3167
I19
aI1
aI500
aasS'f12_16'
p3168
(lp3169
(lp3170
I19
aI1
aI500
aasS'f12_15'
p3171
(lp3172
(lp3173
I76
aI1
aI47
aasS'f12_14'
p3174
(lp3175
(lp3176
I76
aI1
aI46
aasS'f12_13'
p3177
(lp3178
(lp3179
I76
aI1
aI48
aasS'f12_12'
p3180
(lp3181
(lp3182
I76
aI1
aI55
aasS'f12_11'
p3183
(lp3184
(lp3185
I76
aI1
aI51
aasS'f12_10'
p3186
(lp3187
(lp3188
I76
aI1
aI48
aasS'f2_23'
p3189
(lp3190
(lp3191
I14
aI1
aI500
aasS'ID_95_F1_15_F2_0_G_2_SplitPt_119_GenID_0'
p3192
(lp3193
(lp3194
I67
aI121
aI192
aa(lp3195
I1
aI1
aI123
aasS'ID_82_F1_11_F2_3_G_0_SplitPt_218_GenID_0'
p3196
(lp3197
(lp3198
I1
aI156
aI500
aasS'f12_19'
p3199
(lp3200
(lp3201
I19
aI1
aI500
aasS'f12_18'
p3202
(lp3203
(lp3204
I19
aI1
aI500
aasS'ID_262_F1_13_F2_5_G_3_SplitPt_190_GenID_0'
p3205
(lp3206
(lp3207
I5
aI3
aI256
aa(lp3208
I1
aI120
aI500
aasS'ID_72_F1_14_F2_1_G_3_SplitPt_124_GenID_0'
p3209
(lp3210
(lp3211
I14
aI88
aI500
aa(lp3212
I1
aI1
aI141
aasS'ID_91_F1_0_F2_14_G_1_SplitPt_208_GenID_0'
p3213
(lp3214
(lp3215
I13
aI1
aI214
aa(lp3216
I1
aI178
aI500
aasS'ID_500_F1_4_F2_15_G_4_SplitPt_122_GenID_0'
p3217
(lp3218
(lp3219
I5
aI1
aI170
aa(lp3220
I1
aI80
aI500
aasS'f3_15'
p3221
(lp3222
(lp3223
I1
aI1
aI500
aasS'ID_225_F1_16_F2_14_G_4_SplitPt_191_GenID_0'
p3224
(lp3225
(lp3226
I86
aI142
aI190
aa(lp3227
I61
aI194
aI261
aasS'ID_270_F1_14_F2_9_G_1_SplitPt_150_GenID_0'
p3228
(lp3229
(lp3230
I95
aI63
aI150
aasS'ID_427_F1_14_F2_14_G_0_SplitPt_67_GenID_0'
p3231
(lp3232
(lp3233
I1
aI1
aI500
aasS'ID_28_F1_6_F2_4_G_4_SplitPt_112_GenID_0'
p3234
(lp3235
(lp3236
I5
aI90
aI500
aa(lp3237
I1
aI1
aI148
aasS'ID_320_F1_5_F2_12_G_2_SplitPt_212_GenID_0'
p3238
(lp3239
(lp3240
I79
aI283
aI398
aa(lp3241
I1
aI1
aI223
aasS'ID_5_F1_11_F2_17_G_0_SplitPt_240_GenID_0'
p3242
(lp3243
(lp3244
I96
aI127
aI179
aasS'ID_279_F1_19_F2_8_G_3_SplitPt_127_GenID_0'
p3245
(lp3246
(lp3247
I2
aI8
aI500
aa(lp3248
I3
aI2
aI160
aasS'f5_23'
p3249
(lp3250
(lp3251
I1
aI1
aI500
aasS'f11_30'
p3252
(lp3253
(lp3254
I10
aI1
aI500
aasS'f11_31'
p3255
(lp3256
(lp3257
I10
aI1
aI500
aasS'f3_3'
p3258
(lp3259
(lp3260
I1
aI9
aI500
aasS'ID_27_F1_0_F2_19_G_0_SplitPt_129_GenID_0'
p3261
(lp3262
(lp3263
I97
aI61
aI128
aasS'ID_198_F1_1_F2_15_G_1_SplitPt_160_GenID_0'
p3264
(lp3265
(lp3266
I14
aI1
aI227
aa(lp3267
I1
aI119
aI500
aasS'ID_119_F1_2_F2_19_G_4_SplitPt_169_GenID_0'
p3268
(lp3269
(lp3270
I3
aI56
aI500
aa(lp3271
I14
aI1
aI203
aasS'ID_224_F1_2_F2_7_G_3_SplitPt_60_GenID_0'
p3272
(lp3273
(lp3274
I14
aI1
aI62
aa(lp3275
I1
aI38
aI500
aasS'ID_442_F1_15_F2_19_G_0_SplitPt_103_GenID_0'
p3276
(lp3277
(lp3278
I71
aI103
aI157
aasS'ID_413_F1_1_F2_17_G_4_SplitPt_114_GenID_0'
p3279
(lp3280
(lp3281
I14
aI1
aI206
aa(lp3282
I1
aI2
aI500
aasS'ID_356_F1_2_F2_14_G_3_SplitPt_65_GenID_0'
p3283
(lp3284
(lp3285
I95
aI63
aI150
aa(lp3286
I14
aI1
aI68
aasS'ID_285_F1_5_F2_18_G_1_SplitPt_202_GenID_0'
p3287
(lp3288
(lp3289
I26
aI185
aI500
aa(lp3290
I1
aI1
aI210
aasS'f8_10'
p3291
(lp3292
(lp3293
I2
aI1
aI500
aasS'ID_20_F1_16_F2_5_G_3_SplitPt_66_GenID_0'
p3294
(lp3295
(lp3296
I78
aI84
aI253
aasS'f3_6'
p3297
(lp3298
(lp3299
I1
aI1
aI500
aasS'ID_345_F1_15_F2_11_G_0_SplitPt_193_GenID_0'
p3300
(lp3301
(lp3302
I10
aI150
aI490
aa(lp3303
I1
aI1
aI245
aasS'ID_78_F1_19_F2_16_G_1_SplitPt_85_GenID_0'
p3304
(lp3305
(lp3306
I3
aI1
aI107
aa(lp3307
I1
aI4
aI500
aasS'f19_8'
p3308
(lp3309
(lp3310
I3
aI1
aI500
aasS'ID_204_F1_17_F2_4_G_3_SplitPt_213_GenID_0'
p3311
(lp3312
(lp3313
I5
aI192
aI500
aa(lp3314
I1
aI4
aI255
aasS'ID_200_F1_10_F2_11_G_2_SplitPt_230_GenID_0'
p3315
(lp3316
(lp3317
I10
aI64
aI500
aa(lp3318
I1
aI1
aI248
aasS'ID_301_F1_9_F2_11_G_4_SplitPt_55_GenID_0'
p3319
(lp3320
(lp3321
I96
aI127
aI179
aa(lp3322
I1
aI1
aI76
aasS'f15_12'
p3323
(lp3324
(lp3325
I1
aI1
aI500
aasS'ID_108_F1_19_F2_4_G_1_SplitPt_232_GenID_0'
p3326
(lp3327
(lp3328
I3
aI1
aI284
aa(lp3329
I5
aI136
aI500
aasS'ID_424_F1_15_F2_4_G_2_SplitPt_207_GenID_0'
p3330
(lp3331
(lp3332
I5
aI178
aI500
aa(lp3333
I1
aI1
aI217
aasS'ID_378_F1_14_F2_7_G_2_SplitPt_198_GenID_0'
p3334
(lp3335
(lp3336
I1
aI1
aI500
aasS'ID_133_F1_15_F2_14_G_2_SplitPt_190_GenID_0'
p3337
(lp3338
(lp3339
I1
aI1
aI500
aasS'f18_19'
p3340
(lp3341
(lp3342
I26
aI1
aI500
aasS'ID_379_F1_1_F2_0_G_4_SplitPt_131_GenID_0'
p3343
(lp3344
(lp3345
I13
aI2
aI500
aa(lp3346
I14
aI1
aI174
aasS'f12_28'
p3347
(lp3348
(lp3349
I19
aI1
aI500
aasS'ID_34_F1_3_F2_18_G_2_SplitPt_233_GenID_0'
p3350
(lp3351
(lp3352
I26
aI95
aI500
aa(lp3353
I1
aI1
aI281
aasS'ID_395_F1_4_F2_4_G_0_SplitPt_80_GenID_0'
p3354
(lp3355
(lp3356
I5
aI2
aI500
aasS'f18_11'
p3357
(lp3358
(lp3359
I26
aI1
aI500
aasS'f18_10'
p3360
(lp3361
(lp3362
I26
aI1
aI499
aasS'f18_13'
p3363
(lp3364
(lp3365
I26
aI1
aI494
aasS'ID_410_F1_0_F2_5_G_0_SplitPt_185_GenID_0'
p3366
(lp3367
(lp3368
I13
aI1
aI188
aa(lp3369
I1
aI115
aI500
aasS'f18_15'
p3370
(lp3371
(lp3372
I26
aI1
aI500
aasS'f18_14'
p3373
(lp3374
(lp3375
I26
aI1
aI500
aasS'f18_17'
p3376
(lp3377
(lp3378
I26
aI1
aI500
aasS'f18_16'
p3379
(lp3380
(lp3381
I26
aI1
aI500
aasS'f12_26'
p3382
(lp3383
(lp3384
I19
aI1
aI500
aasS'ID_207_F1_14_F2_17_G_3_SplitPt_78_GenID_0'
p3385
(lp3386
(lp3387
I1
aI3
aI500
aasS'f0_12'
p3388
(lp3389
(lp3390
I13
aI1
aI500
aasS'ID_292_F1_19_F2_1_G_3_SplitPt_63_GenID_0'
p3391
(lp3392
(lp3393
I98
aI1
aI65
aa(lp3394
I89
aI64
aI124
aasS'ID_402_F1_0_F2_13_G_1_SplitPt_62_GenID_0'
p3395
(lp3396
(lp3397
I13
aI1
aI61
aa(lp3398
I5
aI58
aI499
aasS'f0_11'
p3399
(lp3400
(lp3401
I13
aI1
aI500
aasS'ID_267_F1_4_F2_12_G_2_SplitPt_165_GenID_0'
p3402
(lp3403
(lp3404
I52
aI10
aI80
aasS'ID_47_F1_12_F2_11_G_4_SplitPt_55_GenID_0'
p3405
(lp3406
(lp3407
I76
aI1
aI55
aa(lp3408
I10
aI48
aI500
aasS'f14_28'
p3409
(lp3410
(lp3411
I1
aI1
aI500
aasS'f2_15'
p3412
(lp3413
(lp3414
I14
aI1
aI500
aasS'ID_196_F1_11_F2_8_G_0_SplitPt_159_GenID_0'
p3415
(lp3416
(lp3417
I10
aI26
aI162
aa(lp3418
I2
aI39
aI500
aasS'f1_30'
p3419
(lp3420
(lp3421
I14
aI1
aI500
aasS'ID_50_F1_15_F2_1_G_4_SplitPt_172_GenID_0'
p3422
(lp3423
(lp3424
I14
aI152
aI500
aa(lp3425
I1
aI1
aI264
aasS'f14_20'
p3426
(lp3427
(lp3428
I1
aI1
aI500
aasS'f0_17'
p3429
(lp3430
(lp3431
I97
aI61
aI128
aasS'f6_25'
p3432
(lp3433
(lp3434
I1
aI1
aI500
aasS'f14_23'
p3435
(lp3436
(lp3437
I1
aI1
aI500
aasS'f19_30'
p3438
(lp3439
(lp3440
I98
aI1
aI65
aasS'f19_31'
p3441
(lp3442
(lp3443
I3
aI1
aI500
aasS'f14_26'
p3444
(lp3445
(lp3446
I1
aI1
aI500
aasS'f12_23'
p3447
(lp3448
(lp3449
I19
aI1
aI500
aasS'ID_215_F1_15_F2_12_G_2_SplitPt_76_GenID_0'
p3450
(lp3451
(lp3452
I19
aI63
aI500
aa(lp3453
I1
aI1
aI126
aasS'ID_371_F1_9_F2_16_G_3_SplitPt_171_GenID_0'
p3454
(lp3455
(lp3456
I99
aI250
aI343
aa(lp3457
I84
aI177
aI226
aasS'ID_31_F1_12_F2_5_G_0_SplitPt_124_GenID_0'
p3458
(lp3459
(lp3460
I19
aI7
aI228
aa(lp3461
I1
aI132
aI500
aasS'f10_12'
p3462
(lp3463
(lp3464
I1
aI1
aI500
aasS'ID_161_F1_6_F2_13_G_4_SplitPt_136_GenID_0'
p3465
(lp3466
(lp3467
I5
aI36
aI500
aa(lp3468
I1
aI1
aI193
aasS'f0_15'
p3469
(lp3470
(lp3471
I13
aI1
aI500
aasS'ID_266_F1_2_F2_18_G_4_SplitPt_186_GenID_0'
p3472
(lp3473
(lp3474
I26
aI152
aI500
aa(lp3475
I14
aI1
aI327
aasS'f10_16'
p3476
(lp3477
(lp3478
I1
aI1
aI500
aasS'f2_20'
p3479
(lp3480
(lp3481
I14
aI1
aI500
aasS'f2_21'
p3482
(lp3483
(lp3484
I14
aI1
aI500
aasS'f2_22'
p3485
(lp3486
(lp3487
I14
aI2
aI500
aasS'f12_21'
p3488
(lp3489
(lp3490
I19
aI1
aI497
aasS'f2_24'
p3491
(lp3492
(lp3493
I14
aI1
aI500
aasS'f2_25'
p3494
(lp3495
(lp3496
I14
aI1
aI500
aasS'f2_26'
p3497
(lp3498
(lp3499
I14
aI1
aI500
aasS'f2_27'
p3500
(lp3501
(lp3502
I14
aI1
aI499
aasS'ID_400_F1_18_F2_9_G_2_SplitPt_140_GenID_0'
p3503
(lp3504
(lp3505
I94
aI142
aI220
aasS'ID_481_F1_17_F2_8_G_1_SplitPt_232_GenID_0'
p3506
(lp3507
(lp3508
I2
aI12
aI500
aa(lp3509
I1
aI1
aI252
aasS'ID_140_F1_17_F2_3_G_1_SplitPt_172_GenID_0'
p3510
(lp3511
(lp3512
I1
aI6
aI500
aasS'ID_376_F1_0_F2_19_G_2_SplitPt_115_GenID_0'
p3513
(lp3514
(lp3515
I93
aI319
aI400
aa(lp3516
I13
aI1
aI138
aasS'ID_446_F1_19_F2_4_G_1_SplitPt_237_GenID_0'
p3517
(lp3518
(lp3519
I3
aI1
aI287
aa(lp3520
I5
aI137
aI500
aasS'ID_443_F1_14_F2_7_G_3_SplitPt_95_GenID_0'
p3521
(lp3522
(lp3523
I85
aI378
aI500
aa(lp3524
I35
aI96
aI162
aasS'f13_25'
p3525
(lp3526
(lp3527
I5
aI1
aI500
aasS'f13_24'
p3528
(lp3529
(lp3530
I5
aI1
aI500
aasS'f13_27'
p3531
(lp3532
(lp3533
I73
aI360
aI489
aasS'f13_26'
p3534
(lp3535
(lp3536
I100
aI393
aI460
aasS'ID_255_F1_15_F2_6_G_0_SplitPt_107_GenID_0'
p3537
(lp3538
(lp3539
I11
aI39
aI80
aasS'ID_405_F1_19_F2_16_G_3_SplitPt_151_GenID_0'
p3540
(lp3541
(lp3542
I3
aI1
aI204
aa(lp3543
I1
aI95
aI500
aasS'f13_23'
p3544
(lp3545
(lp3546
I5
aI1
aI500
aasS'f13_22'
p3547
(lp3548
(lp3549
I5
aI2
aI500
aasS'ID_107_F1_12_F2_16_G_2_SplitPt_106_GenID_0'
p3550
(lp3551
(lp3552
I19
aI1
aI111
aa(lp3553
I1
aI76
aI500
aasS'ID_337_F1_10_F2_4_G_3_SplitPt_144_GenID_0'
p3554
(lp3555
(lp3556
I5
aI108
aI500
aa(lp3557
I1
aI1
aI308
aasS'f13_29'
p3558
(lp3559
(lp3560
I5
aI1
aI500
aasS'f13_28'
p3561
(lp3562
(lp3563
I5
aI1
aI499
aasS'ID_495_F1_5_F2_8_G_1_SplitPt_125_GenID_0'
p3564
(lp3565
(lp3566
I87
aI384
aI495
aa(lp3567
I1
aI1
aI126
aasS'f6_27'
p3568
(lp3569
(lp3570
I1
aI1
aI500
aasS'ID_459_F1_9_F2_3_G_0_SplitPt_73_GenID_0'
p3571
(lp3572
(lp3573
I1
aI61
aI494
aasS'ID_342_F1_12_F2_16_G_4_SplitPt_130_GenID_0'
p3574
(lp3575
(lp3576
I55
aI131
aI158
aasS'ID_136_F1_13_F2_5_G_1_SplitPt_182_GenID_0'
p3577
(lp3578
(lp3579
I5
aI3
aI201
aa(lp3580
I1
aI109
aI500
aasS'f3_7'
p3581
(lp3582
(lp3583
I1
aI1
aI500
aasS'ID_298_F1_2_F2_3_G_4_SplitPt_65_GenID_0'
p3584
(lp3585
(lp3586
I22
aI75
aI152
aa(lp3587
I14
aI1
aI65
aasS'ID_348_F1_16_F2_0_G_0_SplitPt_199_GenID_0'
p3588
(lp3589
(lp3590
I13
aI194
aI500
aa(lp3591
I1
aI30
aI231
aasS'ID_452_F1_7_F2_10_G_3_SplitPt_204_GenID_0'
p3592
(lp3593
(lp3594
I48
aI122
aI204
aasS'f17_14'
p3595
(lp3596
(lp3597
I1
aI1
aI500
aasS'ID_260_F1_1_F2_17_G_0_SplitPt_181_GenID_0'
p3598
(lp3599
(lp3600
I14
aI1
aI281
aa(lp3601
I1
aI169
aI500
aasS'f17_15'
p3602
(lp3603
(lp3604
I1
aI1
aI499
aasS'ID_511_F1_1_F2_17_G_1_SplitPt_181_GenID_0'
p3605
(lp3606
(lp3607
I14
aI1
aI212
aa(lp3608
I1
aI2
aI500
aasS'ID_252_F1_13_F2_18_G_4_SplitPt_121_GenID_0'
p3609
(lp3610
(lp3611
I4
aI185
aI310
aa(lp3612
I5
aI1
aI134
aasS'f14_4'
p3613
(lp3614
(lp3615
I1
aI1
aI500
aasS'ID_172_F1_15_F2_16_G_3_SplitPt_247_GenID_0'
p3616
(lp3617
(lp3618
I1
aI1
aI500
aasS'f16_16'
p3619
(lp3620
(lp3621
I1
aI1
aI500
aasS'ID_16_F1_10_F2_3_G_2_SplitPt_128_GenID_0'
p3622
(lp3623
(lp3624
I1
aI1
aI500
aasS'ID_51_F1_0_F2_16_G_1_SplitPt_177_GenID_0'
p3625
(lp3626
(lp3627
I13
aI1
aI183
aa(lp3628
I1
aI138
aI499
aasS'ID_88_F1_0_F2_7_G_3_SplitPt_170_GenID_0'
p3629
(lp3630
(lp3631
I13
aI1
aI243
aa(lp3632
I1
aI93
aI498
aasS'ID_434_F1_13_F2_16_G_1_SplitPt_231_GenID_0'
p3633
(lp3634
(lp3635
I90
aI406
aI499
aa(lp3636
I5
aI1
aI231
aasS'f10_11'
p3637
(lp3638
(lp3639
I1
aI1
aI500
aasS'ID_361_F1_7_F2_5_G_1_SplitPt_238_GenID_0'
p3640
(lp3641
(lp3642
I1
aI1
aI500
aasS'ID_153_F1_7_F2_16_G_0_SplitPt_247_GenID_0'
p3643
(lp3644
(lp3645
I1
aI1
aI500
aasS'ID_479_F1_6_F2_0_G_0_SplitPt_207_GenID_0'
p3646
(lp3647
(lp3648
I13
aI155
aI500
aa(lp3649
I1
aI1
aI229
aasS'ID_450_F1_1_F2_4_G_4_SplitPt_132_GenID_0'
p3650
(lp3651
(lp3652
I14
aI1
aI173
aa(lp3653
I5
aI84
aI500
aasS'ID_43_F1_16_F2_12_G_1_SplitPt_136_GenID_0'
p3654
(lp3655
(lp3656
I101
aI240
aI363
aa(lp3657
I1
aI1
aI162
aasS'ID_350_F1_8_F2_11_G_1_SplitPt_131_GenID_0'
p3658
(lp3659
(lp3660
I10
aI129
aI500
aa(lp3661
I2
aI1
aI134
aasS'ID_74_F1_4_F2_11_G_0_SplitPt_101_GenID_0'
p3662
(lp3663
(lp3664
I10
aI58
aI500
aa(lp3665
I5
aI2
aI97
aasS'ID_156_F1_13_F2_14_G_4_SplitPt_126_GenID_0'
p3666
(lp3667
(lp3668
I5
aI1
aI126
aa(lp3669
I1
aI103
aI500
aasS'ID_465_F1_17_F2_12_G_0_SplitPt_134_GenID_0'
p3670
(lp3671
(lp3672
I19
aI134
aI499
aasS'ID_19_F1_0_F2_1_G_0_SplitPt_58_GenID_0'
p3673
(lp3674
(lp3675
I14
aI19
aI500
aasS'ID_52_F1_15_F2_15_G_2_SplitPt_86_GenID_0'
p3676
(lp3677
(lp3678
I1
aI2
aI500
aasS'ID_294_F1_2_F2_8_G_4_SplitPt_100_GenID_0'
p3679
(lp3680
(lp3681
I2
aI93
aI500
aa(lp3682
I14
aI1
aI122
aasS'ID_212_F1_15_F2_5_G_2_SplitPt_136_GenID_0'
p3683
(lp3684
(lp3685
I1
aI1
aI500
aasS'ID_421_F1_9_F2_4_G_0_SplitPt_169_GenID_0'
p3686
(lp3687
(lp3688
I5
aI143
aI500
aa(lp3689
I1
aI1
aI172
aasS'ID_159_F1_15_F2_0_G_2_SplitPt_217_GenID_0'
p3690
(lp3691
(lp3692
I13
aI206
aI500
aa(lp3693
I1
aI1
aI241
aasS'f16_31'
p3694
(lp3695
(lp3696
I99
aI250
aI343
aasS'f16_30'
p3697
(lp3698
(lp3699
I1
aI1
aI500
aasS'f5_8'
p3700
(lp3701
(lp3702
I1
aI1
aI500
aasS'ID_318_F1_12_F2_2_G_4_SplitPt_166_GenID_0'
p3703
(lp3704
(lp3705
I19
aI1
aI211
aa(lp3706
I14
aI146
aI500
aasS'ID_233_F1_15_F2_4_G_0_SplitPt_234_GenID_0'
p3707
(lp3708
(lp3709
I5
aI244
aI499
aa(lp3710
I1
aI2
aI250
aasS'ID_57_F1_7_F2_15_G_1_SplitPt_127_GenID_0'
p3711
(lp3712
(lp3713
I1
aI4
aI497
aasS'f0_19'
p3714
(lp3715
(lp3716
I88
aI406
aI480
aasS'f0_18'
p3717
(lp3718
(lp3719
I13
aI1
aI500
aasS'ID_145_F1_11_F2_13_G_1_SplitPt_198_GenID_0'
p3720
(lp3721
(lp3722
I100
aI393
aI460
aa(lp3723
I10
aI2
aI262
aasS'f12_29'
p3724
(lp3725
(lp3726
I19
aI1
aI500
aasS'f0_13'
p3727
(lp3728
(lp3729
I13
aI1
aI500
aasS'f12_27'
p3730
(lp3731
(lp3732
I101
aI240
aI363
aasS'f12_24'
p3733
(lp3734
(lp3735
I19
aI1
aI499
aasS'f12_25'
p3736
(lp3737
(lp3738
I19
aI1
aI500
aasS'f12_22'
p3739
(lp3740
(lp3741
I19
aI1
aI500
aasS'f0_16'
p3742
(lp3743
(lp3744
I13
aI1
aI500
aasS'f12_20'
p3745
(lp3746
(lp3747
I19
aI1
aI497
aasS'f0_14'
p3748
(lp3749
(lp3750
I13
aI1
aI500
aasS'ID_195_F1_19_F2_8_G_4_SplitPt_228_GenID_0'
p3751
(lp3752
(lp3753
I2
aI217
aI500
aa(lp3754
I3
aI1
aI326
aasS'ID_139_F1_18_F2_17_G_4_SplitPt_172_GenID_0'
p3755
(lp3756
(lp3757
I26
aI1
aI176
aa(lp3758
I1
aI128
aI500
aasS'f17_18'
p3759
(lp3760
(lp3761
I1
aI4
aI500
aasS'f17_19'
p3762
(lp3763
(lp3764
I1
aI1
aI500
aasS'ID_175_F1_3_F2_12_G_4_SplitPt_167_GenID_0'
p3765
(lp3766
(lp3767
I62
aI109
aI169
aa(lp3768
I19
aI143
aI500
aasS'f10_23'
p3769
(lp3770
(lp3771
I1
aI1
aI500
aasS'ID_218_F1_2_F2_13_G_0_SplitPt_96_GenID_0'
p3772
(lp3773
(lp3774
I5
aI63
aI500
aasS'f17_16'
p3775
(lp3776
(lp3777
I1
aI3
aI500
aasS'f17_17'
p3778
(lp3779
(lp3780
I1
aI3
aI500
aasS'f17_10'
p3781
(lp3782
(lp3783
I1
aI1
aI500
aasS'f17_11'
p3784
(lp3785
(lp3786
I1
aI1
aI500
aasS'f17_12'
p3787
(lp3788
(lp3789
I1
aI1
aI500
aasS'f17_13'
p3790
(lp3791
(lp3792
I1
aI1
aI499
aasS'f5_2'
p3793
(lp3794
(lp3795
I1
aI1
aI500
aasS'ID_444_F1_9_F2_17_G_1_SplitPt_217_GenID_0'
p3796
(lp3797
(lp3798
I1
aI6
aI498
aasS'f5_3'
p3799
(lp3800
(lp3801
I1
aI3
aI500
aasS'f18_5'
p3802
(lp3803
(lp3804
I26
aI1
aI500
aasS'ID_363_F1_1_F2_2_G_4_SplitPt_123_GenID_0'
p3805
(lp3806
(lp3807
I14
aI1
aI500
aasS'ID_284_F1_6_F2_9_G_2_SplitPt_110_GenID_0'
p3808
(lp3809
(lp3810
I6
aI220
aI348
aasS'ID_94_F1_1_F2_7_G_4_SplitPt_195_GenID_0'
p3811
(lp3812
(lp3813
I14
aI1
aI197
aa(lp3814
I1
aI92
aI500
aas.