(dp1
S'f5_1'
p2
(lp3
(lp4
I1
aI93
aI491
aasS'ID_31_F1_0_F2_3_G_1_SplitPt_84_GenID_0'
p5
(lp6
(lp7
I2
aI340
aI477
aa(lp8
I3
aI167
aI443
aasS'f15_28'
p9
(lp10
(lp11
I4
aI110
aI493
aasS'f15_27'
p12
(lp13
(lp14
I5
aI4
aI125
aasS'f15_26'
p15
(lp16
(lp17
I5
aI4
aI183
aa(lp18
I4
aI246
aI486
aasS'f15_25'
p19
(lp20
(lp21
I6
aI236
aI389
aa(lp22
I5
aI4
aI211
aasS'f15_24'
p23
(lp24
(lp25
I5
aI5
aI209
aasS'f15_23'
p26
(lp27
(lp28
I4
aI110
aI479
aasS'f15_21'
p29
(lp30
(lp31
I7
aI232
aI492
aasS'f15_20'
p32
(lp33
(lp34
I7
aI227
aI498
aasS'ID_28_F1_5_F2_19_G_4_SplitPt_84_GenID_0'
p35
(lp36
(lp37
I8
aI1
aI86
aa(lp38
I9
aI84
aI500
aasS'ID_19_F1_14_F2_17_G_3_SplitPt_220_GenID_0'
p39
(lp40
(lp41
I10
aI201
aI500
aa(lp42
I11
aI1
aI223
aasS'f3_30'
p43
(lp44
(lp45
I12
aI1
aI70
aa(lp46
I3
aI31
aI448
aasS'f3_31'
p47
(lp48
(lp49
I13
aI371
aI449
aa(lp50
I12
aI1
aI68
aasS'f19_29'
p51
(lp52
(lp53
I9
aI85
aI498
aasS'f19_28'
p54
(lp55
(lp56
I9
aI84
aI500
aasS'f17_8'
p57
(lp58
(lp59
I10
aI31
aI500
aasS'f2_11'
p60
(lp61
(lp62
I14
aI23
aI499
aasS'f2_10'
p63
(lp64
(lp65
I15
aI28
aI260
aa(lp66
I14
aI54
aI493
aasS'f2_13'
p67
(lp68
(lp69
I14
aI54
aI500
aasS'f2_12'
p70
(lp71
(lp72
I15
aI28
aI260
aasS'f2_15'
p73
(lp74
(lp75
I16
aI3
aI96
aa(lp76
I14
aI75
aI499
aasS'f2_14'
p77
(lp78
(lp79
I16
aI5
aI111
aa(lp80
I14
aI77
aI499
aasS'f2_17'
p81
(lp82
(lp83
I17
aI1
aI273
aasS'f2_16'
p84
(lp85
(lp86
I17
aI1
aI221
aa(lp87
I18
aI22
aI422
aasS'f2_19'
p88
(lp89
(lp90
I17
aI38
aI212
aa(lp91
I18
aI84
aI470
aasS'f2_18'
p92
(lp93
(lp94
I17
aI17
aI211
aa(lp95
I18
aI22
aI495
aasS'f9_30'
p96
(lp97
(lp98
I19
aI197
aI369
aasS'ID_12_F1_3_F2_15_G_4_SplitPt_204_GenID_0'
p99
(lp100
(lp101
I20
aI178
aI205
aa(lp102
I21
aI201
aI500
aasS'ID_53_F1_0_F2_2_G_2_SplitPt_176_GenID_0'
p103
(lp104
(lp105
I22
aI5
aI176
aa(lp106
I23
aI335
aI469
aasS'f19_24'
p107
(lp108
(lp109
I9
aI2
aI433
aasS'f17_0'
p110
(lp111
(lp112
I24
aI6
aI440
aasS'f17_1'
p113
(lp114
(lp115
I24
aI2
aI484
aasS'f8_31'
p116
(lp117
(lp118
I25
aI97
aI413
aasS'f8_30'
p119
(lp120
(lp121
I25
aI69
aI500
aasS'f12_23'
p122
(lp123
(lp124
I26
aI18
aI147
aasS'ID_60_F1_0_F2_4_G_3_SplitPt_198_GenID_0'
p125
(lp126
(lp127
I27
aI196
aI500
aa(lp128
I28
aI4
aI231
aasS'f10_29'
p129
(lp130
(lp131
I29
aI83
aI479
aasS'ID_20_F1_17_F2_18_G_4_SplitPt_109_GenID_0'
p132
(lp133
(lp134
I30
aI301
aI418
aa(lp135
I31
aI1
aI109
aasS'f19_1'
p136
(lp137
(lp138
I1
aI78
aI488
aasS'f8_21'
p139
(lp140
(lp141
I25
aI56
aI500
aasS'ID_33_F1_1_F2_10_G_2_SplitPt_97_GenID_0'
p142
(lp143
(lp144
I32
aI93
aI448
aasS'ID_40_F1_16_F2_0_G_3_SplitPt_130_GenID_0'
p145
(lp146
(lp147
I33
aI1
aI132
aa(lp148
I28
aI122
aI500
aasS'f11_27'
p149
(lp150
(lp151
I34
aI83
aI496
aasS'f11_26'
p152
(lp153
(lp154
I35
aI1
aI280
aasS'f11_25'
p155
(lp156
(lp157
I35
aI3
aI453
aasS'f11_24'
p158
(lp159
(lp160
I35
aI3
aI288
aasS'f11_29'
p161
(lp162
(lp163
I35
aI3
aI448
aasS'f11_28'
p164
(lp165
(lp166
I35
aI1
aI453
aasS'f4_30'
p167
(lp168
(lp169
I27
aI1
aI436
aasS'f19_3'
p170
(lp171
(lp172
I1
aI58
aI494
aasS'f14_5'
p173
(lp174
(lp175
I11
aI4
aI450
aasS'f8_4'
p176
(lp177
(lp178
I25
aI112
aI351
aasS'f14_4'
p179
(lp180
(lp181
I11
aI1
aI416
aasS'f7_27'
p182
(lp183
(lp184
I36
aI136
aI484
aasS'f8_1'
p185
(lp186
(lp187
I25
aI59
aI495
aasS'f8_27'
p188
(lp189
(lp190
I25
aI67
aI492
aasS'f14_1'
p191
(lp192
(lp193
I11
aI99
aI486
aasS'f8_0'
p194
(lp195
(lp196
I25
aI49
aI484
aasS'f8_24'
p197
(lp198
(lp199
I25
aI48
aI494
aasS'f14_0'
p200
(lp201
(lp202
I11
aI14
aI491
aasS'ID_39_F1_13_F2_7_G_1_SplitPt_88_GenID_0'
p203
(lp204
(lp205
I37
aI91
aI268
aasS'f8_25'
p206
(lp207
(lp208
I25
aI1
aI500
aasS'f14_3'
p209
(lp210
(lp211
I11
aI21
aI500
aasS'f14_31'
p212
(lp213
(lp214
I11
aI4
aI231
aasS'f14_30'
p215
(lp216
(lp217
I11
aI3
aI354
aasS'f8_22'
p218
(lp219
(lp220
I25
aI48
aI500
aasS'f14_2'
p221
(lp222
(lp223
I11
aI87
aI500
aasS'f8_23'
p224
(lp225
(lp226
I25
aI57
aI500
aasS'f15_16'
p227
(lp228
(lp229
I7
aI214
aI498
aasS'f15_17'
p230
(lp231
(lp232
I7
aI228
aI497
aasS'f15_14'
p233
(lp234
(lp235
I38
aI59
aI479
aasS'f15_15'
p236
(lp237
(lp238
I38
aI1
aI494
aasS'f15_12'
p239
(lp240
(lp241
I38
aI59
aI486
aasS'f8_20'
p242
(lp243
(lp244
I25
aI42
aI500
aasS'f15_10'
p245
(lp246
(lp247
I39
aI242
aI489
aa(lp248
I38
aI21
aI449
aasS'f15_11'
p249
(lp250
(lp251
I39
aI242
aI496
aa(lp252
I38
aI37
aI453
aasS'f19_23'
p253
(lp254
(lp255
I9
aI45
aI497
aasS'f19_22'
p256
(lp257
(lp258
I9
aI163
aI487
aasS'f19_21'
p259
(lp260
(lp261
I9
aI153
aI491
aasS'f19_20'
p262
(lp263
(lp264
I9
aI2
aI497
aasS'f19_26'
p265
(lp266
(lp267
I40
aI257
aI487
aa(lp268
I9
aI163
aI383
aasS'f15_18'
p269
(lp270
(lp271
I7
aI197
aI498
aasS'f15_19'
p272
(lp273
(lp274
I7
aI226
aI493
aasS'f10_28'
p275
(lp276
(lp277
I29
aI88
aI486
aasS'ID_54_F1_14_F2_17_G_2_SplitPt_142_GenID_0'
p278
(lp279
(lp280
I41
aI143
aI499
aasS'f10_24'
p281
(lp282
(lp283
I42
aI327
aI500
aa(lp284
I43
aI3
aI152
aasS'f10_25'
p285
(lp286
(lp287
I42
aI324
aI500
aa(lp288
I29
aI90
aI459
aasS'f10_26'
p289
(lp290
(lp291
I43
aI1
aI159
aa(lp292
I29
aI83
aI486
aasS'f10_27'
p293
(lp294
(lp295
I43
aI1
aI138
aa(lp296
I29
aI113
aI465
aasS'f10_23'
p297
(lp298
(lp299
I44
aI5
aI302
aasS'ID_3_F1_1_F2_18_G_4_SplitPt_245_GenID_0'
p300
(lp301
(lp302
I45
aI243
aI500
aa(lp303
I46
aI1
aI252
aasS'f0_28'
p304
(lp305
(lp306
I47
aI119
aI484
aasS'f13_11'
p307
(lp308
(lp309
I48
aI101
aI408
aasS'f13_13'
p310
(lp311
(lp312
I48
aI42
aI491
aasS'f13_15'
p313
(lp314
(lp315
I48
aI38
aI491
aasS'f13_16'
p316
(lp317
(lp318
I49
aI98
aI500
aasS'f13_17'
p319
(lp320
(lp321
I49
aI146
aI468
aasS'f13_18'
p322
(lp323
(lp324
I49
aI98
aI490
aasS'f13_19'
p325
(lp326
(lp327
I49
aI54
aI495
aasS'f8_29'
p328
(lp329
(lp330
I25
aI67
aI442
aasS'f1_6'
p331
(lp332
(lp333
I50
aI211
aI425
aasS'f0_25'
p334
(lp335
(lp336
I47
aI89
aI500
aasS'f18_24'
p337
(lp338
(lp339
I51
aI38
aI284
aa(lp340
I52
aI96
aI454
aasS'f18_26'
p341
(lp342
(lp343
I52
aI14
aI500
aasS'f18_27'
p344
(lp345
(lp346
I30
aI301
aI418
aasS'f18_20'
p347
(lp348
(lp349
I53
aI24
aI156
aa(lp350
I45
aI243
aI500
aasS'f18_21'
p351
(lp352
(lp353
I45
aI245
aI500
aasS'f18_22'
p354
(lp355
(lp356
I53
aI1
aI168
aa(lp357
I45
aI251
aI499
aasS'f18_23'
p358
(lp359
(lp360
I53
aI1
aI164
aa(lp361
I45
aI286
aI500
aasS'f18_28'
p362
(lp363
(lp364
I52
aI93
aI499
aasS'f18_29'
p365
(lp366
(lp367
I52
aI83
aI498
aasS'f11_18'
p368
(lp369
(lp370
I54
aI7
aI439
aasS'f11_19'
p371
(lp372
(lp373
I55
aI100
aI293
aasS'f11_12'
p374
(lp375
(lp376
I56
aI6
aI449
aasS'f11_13'
p377
(lp378
(lp379
I56
aI8
aI383
aasS'ID_5_F1_1_F2_2_G_4_SplitPt_59_GenID_0'
p380
(lp381
(lp382
I23
aI335
aI469
aa(lp383
I57
aI1
aI63
aasS'f11_11'
p384
(lp385
(lp386
I56
aI2
aI449
aasS'f11_16'
p387
(lp388
(lp389
I54
aI7
aI439
aasS'f11_14'
p390
(lp391
(lp392
I58
aI2
aI176
aa(lp393
I56
aI10
aI373
aasS'f11_15'
p394
(lp395
(lp396
I55
aI100
aI293
aasS'f9_14'
p397
(lp398
(lp399
I59
aI62
aI498
aasS'f9_15'
p400
(lp401
(lp402
I59
aI47
aI500
aasS'f9_16'
p403
(lp404
(lp405
I60
aI40
aI478
aasS'f9_17'
p406
(lp407
(lp408
I19
aI199
aI369
aasS'f9_10'
p409
(lp410
(lp411
I59
aI47
aI498
aasS'f9_11'
p412
(lp413
(lp414
I59
aI50
aI500
aasS'f9_12'
p415
(lp416
(lp417
I59
aI66
aI480
aasS'f9_18'
p418
(lp419
(lp420
I61
aI1
aI209
aa(lp421
I62
aI203
aI360
aasS'f9_19'
p422
(lp423
(lp424
I63
aI74
aI285
aasS'f19_25'
p425
(lp426
(lp427
I9
aI52
aI466
aasS'ID_63_F1_13_F2_14_G_4_SplitPt_142_GenID_0'
p428
(lp429
(lp430
I64
aI1
aI147
aa(lp431
I11
aI120
aI500
aasS'f7_16'
p432
(lp433
(lp434
I65
aI36
aI163
aasS'f7_17'
p435
(lp436
(lp437
I66
aI55
aI482
aasS'f7_14'
p438
(lp439
(lp440
I36
aI1
aI442
aasS'f7_15'
p441
(lp442
(lp443
I36
aI4
aI435
aasS'f7_12'
p444
(lp445
(lp446
I36
aI2
aI380
aasS'f7_13'
p447
(lp448
(lp449
I67
aI6
aI197
aasS'f7_10'
p450
(lp451
(lp452
I36
aI1
aI384
aasS'f7_11'
p453
(lp454
(lp455
I36
aI1
aI346
aasS'f5_10'
p456
(lp457
(lp458
I1
aI1
aI452
aasS'f5_11'
p459
(lp460
(lp461
I1
aI141
aI467
aasS'f5_12'
p462
(lp463
(lp464
I68
aI277
aI465
aasS'f5_13'
p465
(lp466
(lp467
I1
aI3
aI467
aasS'f5_14'
p468
(lp469
(lp470
I1
aI3
aI387
aasS'f5_15'
p471
(lp472
(lp473
I1
aI1
aI482
aasS'f5_16'
p474
(lp475
(lp476
I69
aI1
aI168
aa(lp477
I70
aI3
aI314
aasS'ID_10_F1_4_F2_13_G_4_SplitPt_58_GenID_0'
p478
(lp479
(lp480
I71
aI1
aI61
aa(lp481
I64
aI55
aI142
aasS'f12_31'
p482
(lp483
(lp484
I72
aI1
aI224
aa(lp485
I73
aI77
aI489
aasS'f12_30'
p486
(lp487
(lp488
I72
aI1
aI245
aa(lp489
I73
aI64
aI494
aasS'f3_16'
p490
(lp491
(lp492
I3
aI140
aI500
aasS'ID_6_F1_19_F2_12_G_2_SplitPt_201_GenID_0'
p493
(lp494
(lp495
I74
aI18
aI199
aa(lp496
I75
aI247
aI479
aasS'f13_7'
p497
(lp498
(lp499
I76
aI8
aI273
aasS'f3_17'
p500
(lp501
(lp502
I3
aI12
aI500
aasS'f18_17'
p503
(lp504
(lp505
I51
aI38
aI258
aasS'ID_14_F1_11_F2_12_G_2_SplitPt_181_GenID_0'
p506
(lp507
(lp508
I58
aI2
aI176
aa(lp509
I73
aI182
aI499
aasS'f7_4'
p510
(lp511
(lp512
I67
aI5
aI193
aa(lp513
I37
aI91
aI268
aasS'f7_5'
p514
(lp515
(lp516
I36
aI175
aI443
aasS'f7_6'
p517
(lp518
(lp519
I36
aI62
aI488
aasS'f7_7'
p520
(lp521
(lp522
I36
aI2
aI429
aasS'f7_0'
p523
(lp524
(lp525
I36
aI75
aI488
aasS'f7_1'
p526
(lp527
(lp528
I36
aI6
aI428
aasS'f7_2'
p529
(lp530
(lp531
I36
aI2
aI365
aasS'f7_3'
p532
(lp533
(lp534
I36
aI2
aI442
aasS'f7_8'
p535
(lp536
(lp537
I36
aI4
aI438
aasS'f7_9'
p538
(lp539
(lp540
I36
aI1
aI450
aasS'ID_56_F1_11_F2_15_G_2_SplitPt_119_GenID_0'
p541
(lp542
(lp543
I4
aI125
aI500
aasS'f19_13'
p544
(lp545
(lp546
I1
aI217
aI500
aasS'f19_10'
p547
(lp548
(lp549
I77
aI32
aI162
aasS'f19_17'
p550
(lp551
(lp552
I9
aI153
aI491
aasS'f19_14'
p553
(lp554
(lp555
I1
aI55
aI500
aasS'f19_15'
p556
(lp557
(lp558
I1
aI157
aI434
aasS'f5_2'
p559
(lp560
(lp561
I8
aI1
aI85
aa(lp562
I78
aI5
aI356
aasS'f5_3'
p563
(lp564
(lp565
I8
aI1
aI86
aasS'f5_0'
p566
(lp567
(lp568
I79
aI80
aI191
aasS'f19_19'
p569
(lp570
(lp571
I9
aI45
aI484
aasS'f5_6'
p572
(lp573
(lp574
I1
aI3
aI491
aasS'f5_7'
p575
(lp576
(lp577
I1
aI57
aI484
aasS'f5_4'
p578
(lp579
(lp580
I78
aI5
aI316
aasS'f5_5'
p581
(lp582
(lp583
I78
aI5
aI356
aasS'ID_15_F1_1_F2_15_G_3_SplitPt_221_GenID_0'
p584
(lp585
(lp586
I7
aI176
aI498
aa(lp587
I46
aI2
aI214
aasS'f11_10'
p588
(lp589
(lp590
I56
aI12
aI383
aasS'f0_9'
p591
(lp592
(lp593
I80
aI13
aI210
aa(lp594
I81
aI42
aI454
aasS'f0_8'
p595
(lp596
(lp597
I80
aI2
aI157
aasS'f14_21'
p598
(lp599
(lp600
I82
aI353
aI452
aasS'f9_28'
p601
(lp602
(lp603
I59
aI55
aI499
aasS'f8_26'
p604
(lp605
(lp606
I83
aI105
aI203
aasS'f3_1'
p607
(lp608
(lp609
I3
aI39
aI500
aasS'f3_2'
p610
(lp611
(lp612
I3
aI1
aI449
aasS'f3_3'
p613
(lp614
(lp615
I84
aI220
aI449
aasS'f3_4'
p616
(lp617
(lp618
I3
aI1
aI500
aasS'f3_5'
p619
(lp620
(lp621
I84
aI220
aI449
aasS'f3_6'
p622
(lp623
(lp624
I3
aI60
aI490
aasS'f3_7'
p625
(lp626
(lp627
I3
aI45
aI494
aasS'f8_28'
p628
(lp629
(lp630
I25
aI1
aI419
aasS'f0_2'
p631
(lp632
(lp633
I28
aI1
aI496
aasS'ID_59_F1_14_F2_3_G_4_SplitPt_177_GenID_0'
p634
(lp635
(lp636
I20
aI178
aI205
aa(lp637
I85
aI1
aI203
aasS'f1_7'
p638
(lp639
(lp640
I50
aI169
aI498
aasS'f1_5'
p641
(lp642
(lp643
I86
aI23
aI451
aa(lp644
I50
aI296
aI497
aasS'f1_2'
p645
(lp646
(lp647
I50
aI210
aI490
aasS'f1_3'
p648
(lp649
(lp650
I50
aI211
aI490
aasS'f1_0'
p651
(lp652
(lp653
I50
aI169
aI498
aasS'f1_1'
p654
(lp655
(lp656
I50
aI169
aI497
aasS'f1_8'
p657
(lp658
(lp659
I87
aI154
aI491
aasS'f1_9'
p660
(lp661
(lp662
I88
aI128
aI316
aa(lp663
I87
aI136
aI499
aasS'f9_8'
p664
(lp665
(lp666
I89
aI4
aI158
aa(lp667
I59
aI47
aI491
aasS'f9_9'
p668
(lp669
(lp670
I89
aI2
aI153
aasS'f9_6'
p671
(lp672
(lp673
I59
aI123
aI405
aasS'f9_21'
p674
(lp675
(lp676
I61
aI1
aI209
aasS'f9_4'
p677
(lp678
(lp679
I62
aI100
aI379
aasS'f9_5'
p680
(lp681
(lp682
I90
aI279
aI455
aa(lp683
I62
aI172
aI379
aasS'f9_2'
p684
(lp685
(lp686
I59
aI123
aI493
aasS'f9_3'
p687
(lp688
(lp689
I90
aI284
aI455
aasS'f9_0'
p690
(lp691
(lp692
I62
aI149
aI379
aasS'f9_1'
p693
(lp694
(lp695
I62
aI100
aI379
aasS'f9_29'
p696
(lp697
(lp698
I91
aI7
aI183
aasS'ID_24_F1_12_F2_16_G_4_SplitPt_227_GenID_0'
p699
(lp700
(lp701
I92
aI174
aI500
aa(lp702
I72
aI1
aI227
aasS'f2_29'
p703
(lp704
(lp705
I93
aI195
aI489
aa(lp706
I18
aI9
aI322
aasS'f9_25'
p707
(lp708
(lp709
I91
aI7
aI209
aa(lp710
I59
aI38
aI439
aasS'ID_2_F1_10_F2_8_G_4_SplitPt_137_GenID_0'
p711
(lp712
(lp713
I43
aI1
aI155
aa(lp714
I25
aI110
aI500
aasS'f9_20'
p715
(lp716
(lp717
I94
aI94
aI493
aa(lp718
I63
aI74
aI285
aasS'f9_22'
p719
(lp720
(lp721
I94
aI94
aI493
aasS'f5_23'
p722
(lp723
(lp724
I69
aI1
aI168
aasS'f5_22'
p725
(lp726
(lp727
I70
aI3
aI314
aasS'f5_25'
p728
(lp729
(lp730
I95
aI1
aI475
aasS'f5_24'
p731
(lp732
(lp733
I68
aI275
aI465
aasS'f5_27'
p734
(lp735
(lp736
I95
aI1
aI352
aasS'f5_26'
p737
(lp738
(lp739
I95
aI1
aI346
aasS'f5_29'
p740
(lp741
(lp742
I95
aI38
aI475
aasS'f5_28'
p743
(lp744
(lp745
I95
aI36
aI483
aasS'f4_28'
p746
(lp747
(lp748
I27
aI1
aI500
aasS'f4_29'
p749
(lp750
(lp751
I96
aI2
aI244
aa(lp752
I27
aI71
aI500
aasS'f14_25'
p753
(lp754
(lp755
I11
aI6
aI461
aasS'f4_22'
p756
(lp757
(lp758
I97
aI23
aI306
aasS'f4_23'
p759
(lp760
(lp761
I71
aI1
aI61
aasS'f4_26'
p762
(lp763
(lp764
I96
aI2
aI244
aa(lp765
I98
aI239
aI500
aasS'f4_27'
p766
(lp767
(lp768
I97
aI15
aI492
aasS'f4_24'
p769
(lp770
(lp771
I27
aI71
aI488
aasS'f4_25'
p772
(lp773
(lp774
I97
aI3
aI288
aasS'f2_21'
p775
(lp776
(lp777
I17
aI3
aI212
aa(lp778
I18
aI62
aI484
aasS'f4_10'
p779
(lp780
(lp781
I97
aI9
aI466
aasS'ID_16_F1_3_F2_5_G_1_SplitPt_227_GenID_0'
p782
(lp783
(lp784
I1
aI211
aI478
aasS'ID_1_F1_3_F2_2_G_4_SplitPt_68_GenID_0'
p785
(lp786
(lp787
I12
aI1
aI70
aa(lp788
I14
aI71
aI500
aasS'ID_44_F1_1_F2_13_G_2_SplitPt_167_GenID_0'
p789
(lp790
(lp791
I49
aI145
aI472
aasS'f14_24'
p792
(lp793
(lp794
I11
aI4
aI459
aasS'f1_18'
p795
(lp796
(lp797
I46
aI269
aI494
aasS'f1_19'
p798
(lp799
(lp800
I46
aI256
aI494
aasS'f1_15'
p801
(lp802
(lp803
I87
aI126
aI499
aasS'f1_17'
p804
(lp805
(lp806
I46
aI1
aI332
aasS'f1_10'
p807
(lp808
(lp809
I86
aI19
aI464
aasS'f1_11'
p810
(lp811
(lp812
I87
aI78
aI499
aasS'f1_13'
p813
(lp814
(lp815
I88
aI128
aI316
aasS'f4_11'
p816
(lp817
(lp818
I97
aI3
aI493
aasS'ID_27_F1_9_F2_3_G_3_SplitPt_155_GenID_0'
p819
(lp820
(lp821
I89
aI2
aI158
aa(lp822
I3
aI135
aI498
aasS'ID_32_F1_17_F2_19_G_4_SplitPt_52_GenID_0'
p823
(lp824
(lp825
I99
aI1
aI52
aa(lp826
I1
aI51
aI500
aasS'f3_18'
p827
(lp828
(lp829
I3
aI14
aI497
aasS'f3_19'
p830
(lp831
(lp832
I3
aI55
aI500
aasS'f1_29'
p833
(lp834
(lp835
I46
aI58
aI487
aasS'f19_0'
p836
(lp837
(lp838
I1
aI25
aI496
aasS'f3_13'
p839
(lp840
(lp841
I100
aI33
aI480
aasS'f3_11'
p842
(lp843
(lp844
I100
aI27
aI480
aasS'f19_4'
p845
(lp846
(lp847
I1
aI2
aI500
aasS'f19_5'
p848
(lp849
(lp850
I1
aI51
aI500
aasS'f19_6'
p851
(lp852
(lp853
I1
aI60
aI500
aasS'f19_7'
p854
(lp855
(lp856
I74
aI18
aI199
aasS'f18_31'
p857
(lp858
(lp859
I52
aI16
aI493
aasS'f18_30'
p860
(lp861
(lp862
I52
aI14
aI500
aasS'f6_9'
p863
(lp864
(lp865
I101
aI124
aI500
aasS'f6_8'
p866
(lp867
(lp868
I101
aI124
aI500
aasS'f6_5'
p869
(lp870
(lp871
I102
aI1
aI213
aasS'f6_4'
p872
(lp873
(lp874
I102
aI20
aI338
aasS'f6_1'
p875
(lp876
(lp877
I103
aI3
aI298
aasS'f6_3'
p878
(lp879
(lp880
I101
aI1
aI451
aasS'f6_2'
p881
(lp882
(lp883
I102
aI1
aI338
aasS'f4_3'
p884
(lp885
(lp886
I104
aI2
aI121
aa(lp887
I97
aI148
aI500
aasS'f4_2'
p888
(lp889
(lp890
I104
aI1
aI127
aa(lp891
I97
aI8
aI347
aasS'f4_1'
p892
(lp893
(lp894
I104
aI8
aI133
aasS'f17_9'
p895
(lp896
(lp897
I105
aI35
aI415
aa(lp898
I10
aI201
aI500
aasS'f4_7'
p899
(lp900
(lp901
I97
aI20
aI494
aasS'f4_6'
p902
(lp903
(lp904
I97
aI2
aI500
aasS'f4_5'
p905
(lp906
(lp907
I97
aI8
aI349
aasS'f4_4'
p908
(lp909
(lp910
I97
aI17
aI500
aasS'f17_2'
p911
(lp912
(lp913
I106
aI2
aI305
aasS'f17_3'
p914
(lp915
(lp916
I24
aI6
aI449
aasS'f4_9'
p917
(lp918
(lp919
I107
aI6
aI167
aasS'f4_8'
p920
(lp921
(lp922
I108
aI6
aI293
aasS'f17_6'
p923
(lp924
(lp925
I24
aI98
aI478
aasS'f17_7'
p926
(lp927
(lp928
I106
aI19
aI305
aa(lp929
I24
aI98
aI484
aasS'f17_4'
p930
(lp931
(lp932
I106
aI2
aI251
aa(lp933
I99
aI1
aI52
aasS'f17_5'
p934
(lp935
(lp936
I99
aI2
aI52
aasS'f8_7'
p937
(lp938
(lp939
I25
aI70
aI474
aasS'f8_6'
p940
(lp941
(lp942
I109
aI277
aI419
aasS'f8_5'
p943
(lp944
(lp945
I25
aI2
aI495
aasS'f7_20'
p946
(lp947
(lp948
I65
aI35
aI154
aa(lp949
I66
aI55
aI482
aasS'f8_3'
p950
(lp951
(lp952
I109
aI277
aI419
aasS'f8_2'
p953
(lp954
(lp955
I25
aI2
aI473
aasS'f7_25'
p956
(lp957
(lp958
I36
aI12
aI263
aasS'f7_24'
p959
(lp960
(lp961
I36
aI12
aI496
aasS'f7_28'
p962
(lp963
(lp964
I36
aI3
aI496
aasS'f8_9'
p965
(lp966
(lp967
I25
aI50
aI495
aasS'f8_8'
p968
(lp969
(lp970
I25
aI20
aI495
aasS'ID_43_F1_19_F2_16_G_2_SplitPt_102_GenID_0'
p971
(lp972
(lp973
I110
aI237
aI394
aasS'f11_0'
p974
(lp975
(lp976
I56
aI7
aI417
aasS'f11_1'
p977
(lp978
(lp979
I56
aI17
aI435
aasS'f11_2'
p980
(lp981
(lp982
I56
aI36
aI474
aasS'f11_3'
p983
(lp984
(lp985
I56
aI146
aI487
aasS'f11_6'
p986
(lp987
(lp988
I56
aI13
aI487
aasS'f11_7'
p989
(lp990
(lp991
I56
aI7
aI417
aasS'f11_8'
p992
(lp993
(lp994
I56
aI2
aI449
aasS'f2_9'
p995
(lp996
(lp997
I14
aI13
aI412
aasS'f2_8'
p998
(lp999
(lp1000
I111
aI4
aI162
aa(lp1001
I14
aI75
aI489
aasS'f13_4'
p1002
(lp1003
(lp1004
I112
aI15
aI353
aasS'f13_5'
p1005
(lp1006
(lp1007
I113
aI8
aI132
aasS'f13_2'
p1008
(lp1009
(lp1010
I112
aI15
aI353
aasS'f13_0'
p1011
(lp1012
(lp1013
I113
aI8
aI132
aasS'f13_1'
p1014
(lp1015
(lp1016
I76
aI8
aI273
aasS'f2_1'
p1017
(lp1018
(lp1019
I14
aI18
aI486
aasS'f2_0'
p1020
(lp1021
(lp1022
I14
aI23
aI488
aasS'f2_3'
p1023
(lp1024
(lp1025
I14
aI10
aI494
aasS'f2_2'
p1026
(lp1027
(lp1028
I14
aI6
aI484
aasS'f2_5'
p1029
(lp1030
(lp1031
I111
aI4
aI162
aa(lp1032
I14
aI6
aI461
aasS'f2_4'
p1033
(lp1034
(lp1035
I14
aI103
aI479
aasS'f2_7'
p1036
(lp1037
(lp1038
I14
aI197
aI491
aasS'f2_6'
p1039
(lp1040
(lp1041
I14
aI13
aI500
aasS'f15_7'
p1042
(lp1043
(lp1044
I114
aI1
aI249
aasS'f15_0'
p1045
(lp1046
(lp1047
I21
aI201
aI495
aasS'f15_1'
p1048
(lp1049
(lp1050
I115
aI36
aI434
aa(lp1051
I21
aI216
aI494
aasS'f15_2'
p1052
(lp1053
(lp1054
I114
aI1
aI249
aa(lp1055
I21
aI205
aI500
aasS'f15_3'
p1056
(lp1057
(lp1058
I115
aI36
aI434
aa(lp1059
I21
aI201
aI498
aasS'f0_7'
p1060
(lp1061
(lp1062
I28
aI4
aI392
aasS'f0_6'
p1063
(lp1064
(lp1065
I28
aI4
aI428
aasS'f0_5'
p1066
(lp1067
(lp1068
I28
aI6
aI471
aasS'f0_4'
p1069
(lp1070
(lp1071
I28
aI1
aI409
aasS'f0_3'
p1072
(lp1073
(lp1074
I28
aI2
aI500
aasS'f15_9'
p1075
(lp1076
(lp1077
I38
aI1
aI453
aasS'f0_1'
p1078
(lp1079
(lp1080
I28
aI1
aI500
aasS'f0_0'
p1081
(lp1082
(lp1083
I28
aI8
aI500
aasS'f1_28'
p1084
(lp1085
(lp1086
I46
aI38
aI490
aasS'f6_31'
p1087
(lp1088
(lp1089
I116
aI120
aI496
aasS'f6_30'
p1090
(lp1091
(lp1092
I116
aI10
aI485
aasS'f16_13'
p1093
(lp1094
(lp1095
I117
aI175
aI462
aasS'f16_11'
p1096
(lp1097
(lp1098
I117
aI3
aI462
aasS'f16_10'
p1099
(lp1100
(lp1101
I117
aI3
aI341
aasS'f16_17'
p1102
(lp1103
(lp1104
I92
aI214
aI500
aasS'f16_16'
p1105
(lp1106
(lp1107
I92
aI173
aI500
aasS'f16_15'
p1108
(lp1109
(lp1110
I117
aI4
aI377
aasS'f16_14'
p1111
(lp1112
(lp1113
I118
aI1
aI61
aasS'f16_19'
p1114
(lp1115
(lp1116
I92
aI235
aI481
aasS'f16_18'
p1117
(lp1118
(lp1119
I92
aI232
aI487
aasS'ID_51_F1_18_F2_2_G_4_SplitPt_153_GenID_0'
p1120
(lp1121
(lp1122
I53
aI1
aI167
aa(lp1123
I93
aI141
aI500
aasS'f6_24'
p1124
(lp1125
(lp1126
I116
aI2
aI496
aasS'f6_25'
p1127
(lp1128
(lp1129
I116
aI4
aI485
aasS'f6_26'
p1130
(lp1131
(lp1132
I116
aI5
aI369
aasS'f6_27'
p1133
(lp1134
(lp1135
I116
aI7
aI426
aasS'f6_21'
p1136
(lp1137
(lp1138
I116
aI55
aI500
aasS'f6_22'
p1139
(lp1140
(lp1141
I116
aI31
aI273
aasS'f6_23'
p1142
(lp1143
(lp1144
I116
aI8
aI375
aasS'f6_28'
p1145
(lp1146
(lp1147
I116
aI34
aI375
aasS'f6_29'
p1148
(lp1149
(lp1150
I116
aI2
aI495
aasS'f1_25'
p1151
(lp1152
(lp1153
I119
aI200
aI329
aasS'f1_24'
p1154
(lp1155
(lp1156
I46
aI2
aI488
aasS'f1_27'
p1157
(lp1158
(lp1159
I46
aI2
aI329
aasS'f1_26'
p1160
(lp1161
(lp1162
I46
aI4
aI248
aasS'f1_21'
p1163
(lp1164
(lp1165
I57
aI1
aI63
aa(lp1166
I86
aI19
aI464
aasS'f1_20'
p1167
(lp1168
(lp1169
I120
aI303
aI406
aa(lp1170
I57
aI1
aI63
aa(lp1171
I46
aI11
aI241
aasS'f1_23'
p1172
(lp1173
(lp1174
I46
aI1
aI488
aasS'f1_22'
p1175
(lp1176
(lp1177
I46
aI200
aI494
aasS'f14_15'
p1178
(lp1179
(lp1180
I85
aI6
aI205
aasS'f14_14'
p1181
(lp1182
(lp1183
I121
aI5
aI395
aasS'f14_17'
p1184
(lp1185
(lp1186
I122
aI79
aI470
aa(lp1187
I11
aI2
aI216
aasS'f14_16'
p1188
(lp1189
(lp1190
I11
aI191
aI464
aasS'f14_11'
p1191
(lp1192
(lp1193
I123
aI61
aI493
aa(lp1194
I85
aI2
aI177
aasS'f14_10'
p1195
(lp1196
(lp1197
I121
aI5
aI395
aa(lp1198
I85
aI1
aI198
aasS'f14_13'
p1199
(lp1200
(lp1201
I85
aI6
aI202
aasS'f14_12'
p1202
(lp1203
(lp1204
I123
aI61
aI493
aasS'ID_36_F1_17_F2_2_G_2_SplitPt_68_GenID_0'
p1205
(lp1206
(lp1207
I14
aI51
aI483
aasS'f2_31'
p1208
(lp1209
(lp1210
I93
aI141
aI500
aasS'f2_30'
p1211
(lp1212
(lp1213
I93
aI154
aI500
aasS'f13_30'
p1214
(lp1215
(lp1216
I49
aI61
aI489
aasS'f13_31'
p1217
(lp1218
(lp1219
I64
aI63
aI147
aasS'f8_13'
p1220
(lp1221
(lp1222
I25
aI5
aI471
aasS'f8_12'
p1223
(lp1224
(lp1225
I25
aI4
aI450
aasS'f8_11'
p1226
(lp1227
(lp1228
I25
aI5
aI484
aasS'f8_10'
p1229
(lp1230
(lp1231
I25
aI5
aI470
aasS'f8_17'
p1232
(lp1233
(lp1234
I25
aI198
aI498
aasS'f8_16'
p1235
(lp1236
(lp1237
I25
aI56
aI500
aasS'f8_15'
p1238
(lp1239
(lp1240
I83
aI105
aI203
aasS'f8_14'
p1241
(lp1242
(lp1243
I25
aI35
aI473
aasS'f8_19'
p1244
(lp1245
(lp1246
I25
aI49
aI499
aasS'f8_18'
p1247
(lp1248
(lp1249
I25
aI102
aI500
aasS'ID_22_F1_2_F2_19_G_2_SplitPt_76_GenID_0'
p1250
(lp1251
(lp1252
I1
aI69
aI496
aasS'ID_46_F1_0_F2_19_G_2_SplitPt_66_GenID_0'
p1253
(lp1254
(lp1255
I1
aI71
aI500
aasS'f18_1'
p1256
(lp1257
(lp1258
I124
aI1
aI498
aasS'f18_3'
p1259
(lp1260
(lp1261
I125
aI9
aI263
aasS'f18_2'
p1262
(lp1263
(lp1264
I124
aI8
aI423
aasS'f18_5'
p1265
(lp1266
(lp1267
I124
aI1
aI457
aasS'f18_4'
p1268
(lp1269
(lp1270
I125
aI9
aI263
aa(lp1271
I126
aI111
aI482
aasS'f18_7'
p1272
(lp1273
(lp1274
I124
aI142
aI498
aasS'f18_9'
p1275
(lp1276
(lp1277
I127
aI235
aI355
aasS'f18_8'
p1278
(lp1279
(lp1280
I126
aI111
aI482
aasS'f14_18'
p1281
(lp1282
(lp1283
I11
aI1
aI481
aasS'ID_41_F1_16_F2_7_G_2_SplitPt_237_GenID_0'
p1284
(lp1285
(lp1286
I128
aI1
aI232
aasS'f9_31'
p1287
(lp1288
(lp1289
I91
aI28
aI209
aasS'f5_30'
p1290
(lp1291
(lp1292
I95
aI1
aI389
aasS'f5_31'
p1293
(lp1294
(lp1295
I95
aI1
aI352
aasS'f16_28'
p1296
(lp1297
(lp1298
I129
aI216
aI499
aasS'f16_29'
p1299
(lp1300
(lp1301
I130
aI200
aI389
aasS'f14_9'
p1302
(lp1303
(lp1304
I85
aI5
aI205
aasS'f14_8'
p1305
(lp1306
(lp1307
I85
aI2
aI192
aasS'f16_22'
p1308
(lp1309
(lp1310
I129
aI216
aI499
aasS'f16_23'
p1311
(lp1312
(lp1313
I131
aI97
aI499
aasS'f14_7'
p1314
(lp1315
(lp1316
I11
aI4
aI457
aasS'f14_6'
p1317
(lp1318
(lp1319
I11
aI1
aI452
aasS'f16_26'
p1320
(lp1321
(lp1322
I132
aI113
aI491
aa(lp1323
I33
aI42
aI132
aasS'f16_27'
p1324
(lp1325
(lp1326
I132
aI113
aI490
aa(lp1327
I33
aI28
aI132
aasS'f16_24'
p1328
(lp1329
(lp1330
I33
aI1
aI129
aasS'f16_25'
p1331
(lp1332
(lp1333
I130
aI200
aI389
aa(lp1334
I33
aI3
aI129
aasS'f16_3'
p1335
(lp1336
(lp1337
I133
aI105
aI461
aasS'f16_2'
p1338
(lp1339
(lp1340
I133
aI96
aI440
aasS'f16_0'
p1341
(lp1342
(lp1343
I133
aI95
aI472
aasS'f16_6'
p1344
(lp1345
(lp1346
I128
aI6
aI232
aa(lp1347
I133
aI105
aI441
aasS'f16_5'
p1348
(lp1349
(lp1350
I133
aI157
aI471
aasS'f16_4'
p1351
(lp1352
(lp1353
I128
aI1
aI232
aa(lp1354
I133
aI95
aI472
aasS'f0_27'
p1355
(lp1356
(lp1357
I47
aI89
aI500
aasS'f16_9'
p1358
(lp1359
(lp1360
I118
aI1
aI61
aasS'f16_8'
p1361
(lp1362
(lp1363
I110
aI237
aI394
aa(lp1364
I118
aI1
aI72
aa(lp1365
I117
aI4
aI377
aasS'f0_22'
p1366
(lp1367
(lp1368
I134
aI39
aI500
aasS'f0_23'
p1369
(lp1370
(lp1371
I134
aI174
aI500
aasS'f17_21'
p1372
(lp1373
(lp1374
I10
aI26
aI423
aasS'f17_23'
p1375
(lp1376
(lp1377
I10
aI40
aI491
aasS'f17_22'
p1378
(lp1379
(lp1380
I135
aI24
aI217
aasS'f17_25'
p1381
(lp1382
(lp1383
I41
aI18
aI460
aasS'f17_24'
p1384
(lp1385
(lp1386
I136
aI5
aI280
aa(lp1387
I41
aI143
aI456
aasS'f17_27'
p1388
(lp1389
(lp1390
I24
aI7
aI450
aasS'f17_26'
p1391
(lp1392
(lp1393
I41
aI18
aI499
aasS'f17_29'
p1394
(lp1395
(lp1396
I136
aI5
aI280
aasS'f10_9'
p1397
(lp1398
(lp1399
I137
aI136
aI480
aasS'f15_31'
p1400
(lp1401
(lp1402
I6
aI236
aI389
aasS'f10_1'
p1403
(lp1404
(lp1405
I138
aI55
aI494
aasS'f10_0'
p1406
(lp1407
(lp1408
I139
aI187
aI495
aasS'f10_2'
p1409
(lp1410
(lp1411
I138
aI57
aI494
aasS'f10_5'
p1412
(lp1413
(lp1414
I140
aI46
aI496
aasS'f10_7'
p1415
(lp1416
(lp1417
I139
aI187
aI495
aasS'f10_6'
p1418
(lp1419
(lp1420
I140
aI47
aI496
aasS'f4_16'
p1421
(lp1422
(lp1423
I97
aI15
aI452
aasS'f4_15'
p1424
(lp1425
(lp1426
I97
aI3
aI434
aasS'f4_14'
p1427
(lp1428
(lp1429
I97
aI3
aI495
aasS'f4_13'
p1430
(lp1431
(lp1432
I98
aI239
aI500
aa(lp1433
I97
aI2
aI434
aasS'f4_12'
p1434
(lp1435
(lp1436
I107
aI6
aI167
aa(lp1437
I97
aI128
aI438
aasS'f12_9'
p1438
(lp1439
(lp1440
I141
aI55
aI296
aasS'f12_8'
p1441
(lp1442
(lp1443
I141
aI8
aI283
aasS'f12_7'
p1444
(lp1445
(lp1446
I142
aI150
aI493
aasS'f12_6'
p1447
(lp1448
(lp1449
I75
aI41
aI492
aasS'f12_5'
p1450
(lp1451
(lp1452
I75
aI166
aI495
aasS'f12_3'
p1453
(lp1454
(lp1455
I75
aI41
aI495
aasS'f12_2'
p1456
(lp1457
(lp1458
I142
aI147
aI493
aasS'f12_1'
p1459
(lp1460
(lp1461
I75
aI150
aI492
aasS'f4_18'
p1462
(lp1463
(lp1464
I97
aI142
aI500
aasS'f3_27'
p1465
(lp1466
(lp1467
I143
aI2
aI192
aa(lp1468
I3
aI150
aI500
aasS'f3_26'
p1469
(lp1470
(lp1471
I143
aI10
aI204
aa(lp1472
I3
aI49
aI500
aasS'f3_25'
p1473
(lp1474
(lp1475
I143
aI1
aI204
aa(lp1476
I3
aI12
aI500
aasS'f3_24'
p1477
(lp1478
(lp1479
I143
aI1
aI205
aa(lp1480
I3
aI36
aI500
aasS'f3_23'
p1481
(lp1482
(lp1483
I2
aI340
aI477
aasS'f3_22'
p1484
(lp1485
(lp1486
I13
aI371
aI449
aasS'f3_21'
p1487
(lp1488
(lp1489
I3
aI64
aI499
aasS'f3_20'
p1490
(lp1491
(lp1492
I3
aI35
aI457
aasS'f3_29'
p1493
(lp1494
(lp1495
I3
aI162
aI498
aasS'f3_28'
p1496
(lp1497
(lp1498
I3
aI12
aI500
aasS'ID_61_F1_4_F2_6_G_4_SplitPt_125_GenID_0'
p1499
(lp1500
(lp1501
I104
aI1
aI132
aa(lp1502
I101
aI124
aI500
aasS'ID_29_F1_6_F2_15_G_3_SplitPt_241_GenID_0'
p1503
(lp1504
(lp1505
I39
aI242
aI496
aa(lp1506
I116
aI2
aI245
aasS'f6_19'
p1507
(lp1508
(lp1509
I116
aI12
aI473
aasS'f6_18'
p1510
(lp1511
(lp1512
I116
aI55
aI500
aasS'f6_15'
p1513
(lp1514
(lp1515
I101
aI2
aI453
aasS'f6_14'
p1516
(lp1517
(lp1518
I101
aI2
aI447
aasS'f6_17'
p1519
(lp1520
(lp1521
I116
aI8
aI500
aasS'f6_16'
p1522
(lp1523
(lp1524
I116
aI88
aI500
aasS'f6_11'
p1525
(lp1526
(lp1527
I101
aI1
aI499
aasS'f6_10'
p1528
(lp1529
(lp1530
I102
aI1
aI267
aa(lp1531
I101
aI124
aI499
aasS'f6_13'
p1532
(lp1533
(lp1534
I101
aI7
aI451
aasS'f6_12'
p1535
(lp1536
(lp1537
I103
aI3
aI298
aasS'ID_42_F1_15_F2_6_G_3_SplitPt_210_GenID_0'
p1538
(lp1539
(lp1540
I5
aI4
aI211
aa(lp1541
I116
aI208
aI500
aasS'ID_13_F1_3_F2_3_G_2_SplitPt_155_GenID_0'
p1542
(lp1543
(lp1544
I3
aI137
aI500
aasS'f7_31'
p1545
(lp1546
(lp1547
I36
aI154
aI492
aasS'f12_17'
p1548
(lp1549
(lp1550
I144
aI177
aI405
aasS'f12_16'
p1551
(lp1552
(lp1553
I145
aI16
aI465
aasS'f12_14'
p1554
(lp1555
(lp1556
I146
aI113
aI258
aasS'f12_13'
p1557
(lp1558
(lp1559
I141
aI8
aI296
aasS'f12_11'
p1560
(lp1561
(lp1562
I146
aI113
aI258
aasS'f12_10'
p1563
(lp1564
(lp1565
I141
aI21
aI193
aasS'f12_19'
p1566
(lp1567
(lp1568
I26
aI18
aI147
aasS'f12_18'
p1569
(lp1570
(lp1571
I145
aI16
aI465
aasS'f11_31'
p1572
(lp1573
(lp1574
I34
aI83
aI496
aasS'f18_10'
p1575
(lp1576
(lp1577
I147
aI8
aI439
aasS'f18_12'
p1578
(lp1579
(lp1580
I52
aI83
aI500
aasS'f18_15'
p1581
(lp1582
(lp1583
I127
aI235
aI355
aasS'ID_30_F1_2_F2_13_G_3_SplitPt_111_GenID_0'
p1584
(lp1585
(lp1586
I16
aI3
aI111
aa(lp1587
I49
aI117
aI500
aasS'f18_16'
p1588
(lp1589
(lp1590
I51
aI38
aI284
aasS'ID_50_F1_0_F2_0_G_4_SplitPt_166_GenID_0'
p1591
(lp1592
(lp1593
I134
aI99
aI500
aa(lp1594
I28
aI1
aI231
aasS'f12_27'
p1595
(lp1596
(lp1597
I73
aI155
aI489
aasS'f0_11'
p1598
(lp1599
(lp1600
I81
aI2
aI454
aasS'f14_28'
p1601
(lp1602
(lp1603
I11
aI2
aI467
aasS'f14_29'
p1604
(lp1605
(lp1606
I11
aI70
aI459
aasS'f0_10'
p1607
(lp1608
(lp1609
I81
aI108
aI454
aasS'f1_30'
p1610
(lp1611
(lp1612
I119
aI200
aI329
aasS'f1_31'
p1613
(lp1614
(lp1615
I120
aI303
aI406
aasS'f14_20'
p1616
(lp1617
(lp1618
I11
aI1
aI323
aasS'f12_22'
p1619
(lp1620
(lp1621
I145
aI1
aI255
aasS'f14_22'
p1622
(lp1623
(lp1624
I11
aI92
aI470
aasS'f14_23'
p1625
(lp1626
(lp1627
I11
aI79
aI271
aasS'f19_30'
p1628
(lp1629
(lp1630
I9
aI98
aI494
aasS'f19_31'
p1631
(lp1632
(lp1633
I40
aI257
aI487
aa(lp1634
I9
aI85
aI486
aasS'f14_26'
p1635
(lp1636
(lp1637
I11
aI103
aI416
aasS'f14_27'
p1638
(lp1639
(lp1640
I82
aI353
aI452
aa(lp1641
I11
aI3
aI354
aasS'f2_28'
p1642
(lp1643
(lp1644
I93
aI161
aI491
aa(lp1645
I18
aI2
aI362
aasS'f10_10'
p1646
(lp1647
(lp1648
I32
aI93
aI448
aasS'f10_13'
p1649
(lp1650
(lp1651
I137
aI136
aI477
aasS'f10_15'
p1652
(lp1653
(lp1654
I137
aI136
aI476
aasS'f0_15'
p1655
(lp1656
(lp1657
I81
aI2
aI500
aasS'f2_20'
p1658
(lp1659
(lp1660
I17
aI1
aI221
aa(lp1661
I18
aI78
aI497
aasS'f10_18'
p1662
(lp1663
(lp1664
I44
aI5
aI302
aasS'f2_22'
p1665
(lp1666
(lp1667
I17
aI1
aI270
aa(lp1668
I18
aI63
aI499
aasS'f2_23'
p1669
(lp1670
(lp1671
I23
aI335
aI469
aasS'f2_24'
p1672
(lp1673
(lp1674
I93
aI178
aI498
aa(lp1675
I18
aI9
aI321
aasS'f2_25'
p1676
(lp1677
(lp1678
I93
aI186
aI498
aa(lp1679
I18
aI2
aI381
aasS'f2_26'
p1680
(lp1681
(lp1682
I93
aI178
aI494
aasS'f2_27'
p1683
(lp1684
(lp1685
I93
aI166
aI496
aasS'f14_19'
p1686
(lp1687
(lp1688
I11
aI1
aI470
aasS'f13_25'
p1689
(lp1690
(lp1691
I49
aI68
aI495
aasS'f13_24'
p1692
(lp1693
(lp1694
I49
aI68
aI498
aasS'f13_27'
p1695
(lp1696
(lp1697
I148
aI334
aI496
aasS'f13_26'
p1698
(lp1699
(lp1700
I49
aI99
aI495
aasS'f13_21'
p1701
(lp1702
(lp1703
I148
aI334
aI496
aa(lp1704
I49
aI54
aI489
aasS'f13_20'
p1705
(lp1706
(lp1707
I49
aI54
aI489
aasS'f13_23'
p1708
(lp1709
(lp1710
I148
aI376
aI481
aasS'f13_22'
p1711
(lp1712
(lp1713
I49
aI80
aI495
aasS'ID_58_F1_16_F2_0_G_4_SplitPt_61_GenID_0'
p1714
(lp1715
(lp1716
I118
aI1
aI68
aa(lp1717
I81
aI61
aI500
aasS'f13_29'
p1718
(lp1719
(lp1720
I64
aI1
aI142
aa(lp1721
I49
aI55
aI500
aasS'f13_28'
p1722
(lp1723
(lp1724
I64
aI2
aI142
aa(lp1725
I49
aI55
aI500
aasS'f4_0'
p1726
(lp1727
(lp1728
I97
aI7
aI368
aasS'ID_18_F1_8_F2_3_G_2_SplitPt_56_GenID_0'
p1729
(lp1730
(lp1731
I3
aI57
aI490
aasS'f19_12'
p1732
(lp1733
(lp1734
I77
aI32
aI162
aa(lp1735
I1
aI91
aI498
aasS'f16_31'
p1736
(lp1737
(lp1738
I131
aI97
aI499
aasS'f16_30'
p1739
(lp1740
(lp1741
I131
aI228
aI499
aasS'f5_8'
p1742
(lp1743
(lp1744
I79
aI80
aI191
aasS'f0_19'
p1745
(lp1746
(lp1747
I134
aI167
aI500
aasS'f0_18'
p1748
(lp1749
(lp1750
I22
aI5
aI176
aa(lp1751
I134
aI172
aI500
aasS'f12_28'
p1752
(lp1753
(lp1754
I72
aI77
aI223
aasS'f12_29'
p1755
(lp1756
(lp1757
I72
aI65
aI226
aasS'f12_26'
p1758
(lp1759
(lp1760
I73
aI159
aI494
aasS'f0_12'
p1761
(lp1762
(lp1763
I80
aI2
aI210
aasS'f12_24'
p1764
(lp1765
(lp1766
I72
aI63
aI206
aa(lp1767
I73
aI64
aI499
aasS'f12_25'
p1768
(lp1769
(lp1770
I72
aI52
aI244
aa(lp1771
I73
aI184
aI481
aasS'f0_17'
p1772
(lp1773
(lp1774
I134
aI228
aI500
aasS'f0_16'
p1775
(lp1776
(lp1777
I134
aI39
aI482
aasS'f12_20'
p1778
(lp1779
(lp1780
I144
aI177
aI405
aasS'f0_14'
p1781
(lp1782
(lp1783
I81
aI42
aI454
aasS'ID_21_F1_14_F2_10_G_2_SplitPt_226_GenID_0'
p1784
(lp1785
(lp1786
I42
aI324
aI500
aa(lp1787
I29
aI227
aI465
aa(lp1788
I11
aI3
aI221
aasS'f17_18'
p1789
(lp1790
(lp1791
I135
aI24
aI217
aa(lp1792
I10
aI34
aI454
aasS'f17_19'
p1793
(lp1794
(lp1795
I105
aI35
aI415
aasS'f17_14'
p1796
(lp1797
(lp1798
I31
aI1
aI107
aa(lp1799
I10
aI201
aI424
aasS'f17_15'
p1800
(lp1801
(lp1802
I31
aI1
aI109
aa(lp1803
I149
aI31
aI427
aasS'f17_16'
p1804
(lp1805
(lp1806
I10
aI26
aI491
aasS'f17_17'
p1807
(lp1808
(lp1809
I10
aI40
aI461
aasS'f17_10'
p1810
(lp1811
(lp1812
I149
aI2
aI281
aa(lp1813
I10
aI233
aI500
aasS'f17_11'
p1814
(lp1815
(lp1816
I149
aI3
aI433
aa(lp1817
I10
aI240
aI500
aasS'f17_12'
p1818
(lp1819
(lp1820
I149
aI2
aI230
aa(lp1821
I10
aI31
aI396
aasS'f17_13'
p1822
(lp1823
(lp1824
I10
aI98
aI390
aasS'f19_18'
p1825
(lp1826
(lp1827
I9
aI60
aI480
aas.