(dp1
S'f19_19'
p2
(lp3
(lp4
I1
aI4
aI229
aa(lp5
I2
aI6
aI500
aasS'f1_30'
p6
(lp7
(lp8
I3
aI1
aI500
aasS'f15_29'
p9
(lp10
(lp11
I4
aI29
aI500
aasS'ID_53_F1_16_F2_0_G_4_SplitPt_249_GenID_0'
p12
(lp13
(lp14
I5
aI4
aI98
aa(lp15
I6
aI159
aI500
aasS'f15_27'
p16
(lp17
(lp18
I4
aI4
aI497
aasS'f15_26'
p19
(lp20
(lp21
I4
aI4
aI496
aasS'f15_25'
p22
(lp23
(lp24
I4
aI18
aI500
aasS'f15_24'
p25
(lp26
(lp27
I4
aI18
aI500
aasS'f15_23'
p28
(lp29
(lp30
I4
aI1
aI500
aasS'f15_22'
p31
(lp32
(lp33
I4
aI4
aI500
aasS'f15_21'
p34
(lp35
(lp36
I4
aI1
aI462
aasS'f15_20'
p37
(lp38
(lp39
I4
aI2
aI494
aasS'ID_5_F1_5_F2_8_G_0_SplitPt_235_GenID_0'
p40
(lp41
(lp42
I7
aI81
aI207
aa(lp43
I8
aI165
aI500
aasS'f3_30'
p44
(lp45
(lp46
I9
aI2
aI499
aasS'f3_31'
p47
(lp48
(lp49
I9
aI2
aI499
aasS'f15_14'
p50
(lp51
(lp52
I10
aI7
aI132
aa(lp53
I4
aI14
aI500
aasS'f2_20'
p54
(lp55
(lp56
I11
aI6
aI500
aasS'f15_15'
p57
(lp58
(lp59
I10
aI7
aI132
aasS'ID_17_F1_7_F2_19_G_4_SplitPt_156_GenID_0'
p60
(lp61
(lp62
I12
aI1
aI253
aa(lp63
I2
aI121
aI500
aasS'f15_11'
p64
(lp65
(lp66
I4
aI41
aI500
aasS'f17_8'
p67
(lp68
(lp69
I13
aI1
aI498
aasS'f2_11'
p70
(lp71
(lp72
I11
aI5
aI495
aasS'f2_10'
p73
(lp74
(lp75
I11
aI18
aI500
aasS'f2_13'
p76
(lp77
(lp78
I11
aI11
aI490
aasS'f2_12'
p79
(lp80
(lp81
I11
aI3
aI473
aasS'f2_15'
p82
(lp83
(lp84
I11
aI13
aI495
aasS'f2_14'
p85
(lp86
(lp87
I11
aI15
aI500
aasS'f2_17'
p88
(lp89
(lp90
I11
aI25
aI496
aasS'f2_16'
p91
(lp92
(lp93
I11
aI10
aI497
aasS'f2_19'
p94
(lp95
(lp96
I11
aI21
aI490
aasS'f2_18'
p97
(lp98
(lp99
I11
aI21
aI496
aasS'ID_15_F1_5_F2_17_G_3_SplitPt_196_GenID_0'
p100
(lp101
(lp102
I13
aI169
aI500
aa(lp103
I14
aI1
aI224
aasS'f15_18'
p104
(lp105
(lp106
I4
aI4
aI500
aasS'f15_19'
p107
(lp108
(lp109
I4
aI4
aI500
aasS'f17_0'
p110
(lp111
(lp112
I13
aI1
aI500
aasS'f17_1'
p113
(lp114
(lp115
I13
aI1
aI500
aasS'f8_31'
p116
(lp117
(lp118
I8
aI3
aI462
aasS'f8_30'
p119
(lp120
(lp121
I8
aI2
aI479
aasS'f0_15'
p122
(lp123
(lp124
I6
aI1
aI500
aasS'ID_37_F1_6_F2_7_G_4_SplitPt_241_GenID_0'
p125
(lp126
(lp127
I15
aI1
aI284
aa(lp128
I12
aI231
aI500
aasS'ID_49_F1_9_F2_14_G_4_SplitPt_228_GenID_0'
p129
(lp130
(lp131
I16
aI345
aI481
aa(lp132
I17
aI1
aI280
aasS'ID_0_F1_12_F2_5_G_1_SplitPt_200_GenID_0'
p133
(lp134
(lp135
I18
aI2
aI250
aa(lp136
I14
aI178
aI500
aasS'f15_28'
p137
(lp138
(lp139
I4
aI25
aI500
aasS'f11_23'
p140
(lp141
(lp142
I19
aI24
aI500
aasS'f11_22'
p143
(lp144
(lp145
I19
aI8
aI500
aasS'f11_21'
p146
(lp147
(lp148
I19
aI4
aI495
aasS'f11_20'
p149
(lp150
(lp151
I19
aI5
aI499
aasS'f11_27'
p152
(lp153
(lp154
I19
aI7
aI493
aasS'f11_26'
p155
(lp156
(lp157
I19
aI17
aI497
aasS'f11_25'
p158
(lp159
(lp160
I19
aI6
aI493
aasS'f11_24'
p161
(lp162
(lp163
I19
aI4
aI493
aasS'f11_29'
p164
(lp165
(lp166
I19
aI2
aI487
aasS'f11_28'
p167
(lp168
(lp169
I19
aI5
aI490
aasS'f4_31'
p170
(lp171
(lp172
I20
aI144
aI499
aasS'f4_30'
p173
(lp174
(lp175
I20
aI150
aI499
aasS'ID_4_F1_14_F2_4_G_0_SplitPt_169_GenID_0'
p176
(lp177
(lp178
I21
aI1
aI149
aa(lp179
I20
aI157
aI500
aasS'ID_10_F1_9_F2_14_G_2_SplitPt_198_GenID_0'
p180
(lp181
(lp182
I17
aI1
aI198
aa(lp183
I22
aI139
aI500
aasS'f8_7'
p184
(lp185
(lp186
I8
aI1
aI499
aasS'f8_6'
p187
(lp188
(lp189
I8
aI1
aI496
aasS'ID_28_F1_0_F2_19_G_0_SplitPt_180_GenID_0'
p190
(lp191
(lp192
I2
aI157
aI500
aa(lp193
I6
aI1
aI306
aasS'f8_5'
p194
(lp195
(lp196
I8
aI1
aI498
aasS'f16_22'
p197
(lp198
(lp199
I23
aI1
aI498
aasS'f8_4'
p200
(lp201
(lp202
I8
aI1
aI498
aasS'f16_23'
p203
(lp204
(lp205
I23
aI8
aI496
aasS'f8_3'
p206
(lp207
(lp208
I8
aI14
aI498
aasS'f16_20'
p209
(lp210
(lp211
I23
aI3
aI477
aasS'f8_2'
p212
(lp213
(lp214
I8
aI4
aI499
aasS'f3_0'
p215
(lp216
(lp217
I9
aI1
aI500
aasS'f16_21'
p218
(lp219
(lp220
I23
aI26
aI500
aasS'f8_1'
p221
(lp222
(lp223
I8
aI4
aI500
aasS'f3_1'
p224
(lp225
(lp226
I9
aI1
aI500
aasS'f14_1'
p227
(lp228
(lp229
I22
aI4
aI496
aasS'f8_0'
p230
(lp231
(lp232
I8
aI4
aI500
aasS'f3_2'
p233
(lp234
(lp235
I9
aI4
aI500
aasS'f16_27'
p236
(lp237
(lp238
I23
aI1
aI499
aasS'f3_3'
p239
(lp240
(lp241
I9
aI1
aI500
aasS'f16_24'
p242
(lp243
(lp244
I23
aI1
aI500
aasS'f14_31'
p245
(lp246
(lp247
I24
aI16
aI236
aasS'f14_30'
p248
(lp249
(lp250
I22
aI3
aI485
aasS'f3_4'
p251
(lp252
(lp253
I9
aI6
aI500
aasS'f16_25'
p254
(lp255
(lp256
I23
aI1
aI500
aasS'f3_5'
p257
(lp258
(lp259
I9
aI6
aI493
aasS'f15_16'
p260
(lp261
(lp262
I4
aI2
aI494
aasS'f15_17'
p263
(lp264
(lp265
I4
aI18
aI500
aasS'f19_29'
p266
(lp267
(lp268
I1
aI32
aI230
aasS'f19_28'
p269
(lp270
(lp271
I1
aI9
aI229
aa(lp272
I2
aI14
aI493
aasS'f15_12'
p273
(lp274
(lp275
I10
aI4
aI137
aasS'f15_13'
p276
(lp277
(lp278
I4
aI6
aI488
aasS'f15_10'
p279
(lp280
(lp281
I4
aI59
aI500
aasS'ID_20_F1_9_F2_0_G_3_SplitPt_162_GenID_0'
p282
(lp283
(lp284
I17
aI3
aI208
aa(lp285
I6
aI59
aI500
aasS'f19_23'
p286
(lp287
(lp288
I1
aI3
aI231
aa(lp289
I2
aI13
aI500
aasS'f19_22'
p290
(lp291
(lp292
I1
aI3
aI213
aa(lp293
I2
aI20
aI498
aasS'f19_21'
p294
(lp295
(lp296
I1
aI3
aI225
aasS'f19_20'
p297
(lp298
(lp299
I1
aI4
aI225
aa(lp300
I2
aI12
aI500
aasS'f19_27'
p301
(lp302
(lp303
I1
aI5
aI244
aa(lp304
I2
aI26
aI500
aasS'f19_26'
p305
(lp306
(lp307
I1
aI5
aI225
aasS'f19_25'
p308
(lp309
(lp310
I1
aI2
aI242
aa(lp311
I2
aI15
aI500
aasS'f19_24'
p312
(lp313
(lp314
I1
aI5
aI232
aa(lp315
I2
aI14
aI500
aasS'f16_2'
p316
(lp317
(lp318
I23
aI1
aI499
aasS'f16_0'
p319
(lp320
(lp321
I23
aI32
aI500
aasS'f10_28'
p322
(lp323
(lp324
I25
aI15
aI500
aasS'f10_29'
p325
(lp326
(lp327
I25
aI9
aI497
aasS'f3_9'
p328
(lp329
(lp330
I9
aI2
aI500
aasS'f10_24'
p331
(lp332
(lp333
I25
aI7
aI500
aasS'f10_25'
p334
(lp335
(lp336
I25
aI28
aI497
aasS'f10_26'
p337
(lp338
(lp339
I25
aI1
aI497
aasS'f10_27'
p340
(lp341
(lp342
I25
aI7
aI500
aasS'f10_20'
p343
(lp344
(lp345
I25
aI1
aI500
aasS'f10_21'
p346
(lp347
(lp348
I25
aI15
aI500
aasS'f10_22'
p349
(lp350
(lp351
I25
aI1
aI498
aasS'f10_23'
p352
(lp353
(lp354
I25
aI2
aI500
aasS'ID_63_F1_6_F2_3_G_2_SplitPt_178_GenID_0'
p355
(lp356
(lp357
I26
aI215
aI318
aa(lp358
I15
aI1
aI197
aasS'f0_28'
p359
(lp360
(lp361
I6
aI1
aI500
aasS'f0_29'
p362
(lp363
(lp364
I6
aI1
aI500
aasS'f13_10'
p365
(lp366
(lp367
I27
aI12
aI482
aasS'f13_11'
p368
(lp369
(lp370
I27
aI8
aI499
aasS'f13_12'
p371
(lp372
(lp373
I27
aI12
aI498
aasS'f13_13'
p374
(lp375
(lp376
I27
aI12
aI499
aasS'f13_14'
p377
(lp378
(lp379
I27
aI2
aI500
aasS'f13_15'
p380
(lp381
(lp382
I27
aI10
aI500
aasS'f13_16'
p383
(lp384
(lp385
I27
aI2
aI499
aasS'f13_17'
p386
(lp387
(lp388
I27
aI1
aI500
aasS'f13_18'
p389
(lp390
(lp391
I27
aI1
aI469
aasS'f13_19'
p392
(lp393
(lp394
I27
aI2
aI462
aasS'ID_33_F1_12_F2_5_G_0_SplitPt_237_GenID_0'
p395
(lp396
(lp397
I18
aI1
aI237
aa(lp398
I14
aI177
aI500
aasS'f0_24'
p399
(lp400
(lp401
I6
aI1
aI500
aasS'ID_9_F1_5_F2_3_G_1_SplitPt_143_GenID_0'
p402
(lp403
(lp404
I14
aI1
aI164
aa(lp405
I9
aI127
aI500
aasS'f0_25'
p406
(lp407
(lp408
I6
aI1
aI500
aasS'ID_41_F1_16_F2_15_G_1_SplitPt_98_GenID_0'
p409
(lp410
(lp411
I5
aI4
aI98
aa(lp412
I28
aI26
aI182
aa(lp413
I4
aI60
aI500
aasS'f0_22'
p414
(lp415
(lp416
I6
aI54
aI500
aasS'f18_24'
p417
(lp418
(lp419
I29
aI10
aI500
aasS'f18_25'
p420
(lp421
(lp422
I30
aI1
aI137
aa(lp423
I29
aI136
aI495
aasS'f18_26'
p424
(lp425
(lp426
I29
aI65
aI499
aasS'f18_27'
p427
(lp428
(lp429
I29
aI113
aI498
aasS'f18_20'
p430
(lp431
(lp432
I29
aI1
aI500
aasS'f18_21'
p433
(lp434
(lp435
I29
aI68
aI499
aasS'f18_22'
p436
(lp437
(lp438
I29
aI55
aI500
aasS'f18_23'
p439
(lp440
(lp441
I30
aI2
aI162
aa(lp442
I29
aI10
aI500
aasS'ID_57_F1_12_F2_3_G_2_SplitPt_58_GenID_0'
p443
(lp444
(lp445
I31
aI2
aI91
aa(lp446
I9
aI50
aI500
aasS'f18_28'
p447
(lp448
(lp449
I30
aI1
aI148
aa(lp450
I29
aI161
aI500
aasS'f18_29'
p451
(lp452
(lp453
I29
aI6
aI500
aasS'f11_18'
p454
(lp455
(lp456
I19
aI8
aI497
aasS'f11_19'
p457
(lp458
(lp459
I19
aI5
aI494
aasS'f11_12'
p460
(lp461
(lp462
I32
aI184
aI304
aasS'f11_13'
p463
(lp464
(lp465
I19
aI1
aI496
aasS'f11_10'
p466
(lp467
(lp468
I19
aI9
aI485
aasS'f11_11'
p469
(lp470
(lp471
I19
aI2
aI494
aasS'f11_16'
p472
(lp473
(lp474
I19
aI7
aI498
aasS'f11_17'
p475
(lp476
(lp477
I19
aI23
aI500
aasS'f11_14'
p478
(lp479
(lp480
I19
aI1
aI500
aasS'f11_15'
p481
(lp482
(lp483
I19
aI1
aI496
aasS'f9_14'
p484
(lp485
(lp486
I33
aI34
aI500
aasS'f9_15'
p487
(lp488
(lp489
I17
aI15
aI193
aa(lp490
I33
aI34
aI500
aasS'f9_16'
p491
(lp492
(lp493
I17
aI2
aI230
aa(lp494
I33
aI80
aI498
aasS'f9_17'
p495
(lp496
(lp497
I17
aI1
aI230
aa(lp498
I33
aI31
aI500
aasS'f9_10'
p499
(lp500
(lp501
I33
aI21
aI499
aasS'f9_11'
p502
(lp503
(lp504
I33
aI31
aI499
aasS'f9_12'
p505
(lp506
(lp507
I33
aI34
aI497
aasS'f9_13'
p508
(lp509
(lp510
I33
aI6
aI465
aasS'f9_18'
p511
(lp512
(lp513
I17
aI2
aI227
aa(lp514
I33
aI25
aI478
aasS'f9_19'
p515
(lp516
(lp517
I17
aI1
aI282
aa(lp518
I33
aI176
aI473
aasS'f7_16'
p519
(lp520
(lp521
I12
aI6
aI500
aasS'f7_17'
p522
(lp523
(lp524
I12
aI1
aI500
aasS'f7_14'
p525
(lp526
(lp527
I12
aI2
aI499
aasS'f7_15'
p528
(lp529
(lp530
I12
aI114
aI499
aasS'f7_12'
p531
(lp532
(lp533
I12
aI4
aI499
aasS'f7_13'
p534
(lp535
(lp536
I12
aI1
aI499
aasS'f7_10'
p537
(lp538
(lp539
I12
aI4
aI496
aasS'f7_11'
p540
(lp541
(lp542
I12
aI1
aI499
aasS'f5_10'
p543
(lp544
(lp545
I14
aI22
aI500
aasS'f5_11'
p546
(lp547
(lp548
I14
aI28
aI500
aasS'f5_12'
p549
(lp550
(lp551
I14
aI9
aI500
aasS'f5_13'
p552
(lp553
(lp554
I14
aI24
aI500
aasS'f5_14'
p555
(lp556
(lp557
I14
aI2
aI500
aasS'f5_15'
p558
(lp559
(lp560
I14
aI8
aI500
aasS'f7_18'
p561
(lp562
(lp563
I12
aI2
aI499
aasS'f7_19'
p564
(lp565
(lp566
I12
aI1
aI500
aasS'f0_14'
p567
(lp568
(lp569
I6
aI2
aI500
aasS'f3_11'
p570
(lp571
(lp572
I9
aI1
aI500
aasS'f12_31'
p573
(lp574
(lp575
I18
aI1
aI489
aasS'f12_30'
p576
(lp577
(lp578
I18
aI1
aI499
aasS'f3_16'
p579
(lp580
(lp581
I9
aI4
aI500
aasS'f5_9'
p582
(lp583
(lp584
I14
aI2
aI499
aasS'f5_0'
p585
(lp586
(lp587
I14
aI1
aI500
aasS'f2_9'
p588
(lp589
(lp590
I11
aI11
aI500
aasS'f2_8'
p591
(lp592
(lp593
I11
aI2
aI500
aasS'ID_54_F1_12_F2_3_G_1_SplitPt_199_GenID_0'
p594
(lp595
(lp596
I26
aI192
aI338
aa(lp597
I18
aI1
aI271
aasS'f3_17'
p598
(lp599
(lp600
I9
aI6
aI498
aasS'f9_1'
p601
(lp602
(lp603
I33
aI36
aI494
aasS'ID_3_F1_0_F2_15_G_1_SplitPt_220_GenID_0'
p604
(lp605
(lp606
I4
aI205
aI500
aa(lp607
I6
aI2
aI479
aasS'f3_14'
p608
(lp609
(lp610
I9
aI14
aI500
aasS'f2_1'
p611
(lp612
(lp613
I11
aI1
aI441
aasS'f7_4'
p614
(lp615
(lp616
I12
aI243
aI496
aa(lp617
I12
aI4
aI103
aasS'f7_5'
p618
(lp619
(lp620
I12
aI2
aI493
aasS'f7_6'
p621
(lp622
(lp623
I12
aI2
aI494
aasS'f7_7'
p624
(lp625
(lp626
I12
aI4
aI489
aasS'f7_0'
p627
(lp628
(lp629
I12
aI2
aI493
aasS'f7_1'
p630
(lp631
(lp632
I12
aI141
aI498
aasS'f7_2'
p633
(lp634
(lp635
I12
aI2
aI499
aasS'f7_3'
p636
(lp637
(lp638
I12
aI2
aI498
aasS'f7_8'
p639
(lp640
(lp641
I12
aI48
aI499
aasS'f7_9'
p642
(lp643
(lp644
I12
aI233
aI499
aasS'f2_4'
p645
(lp646
(lp647
I11
aI3
aI495
aasS'f2_7'
p648
(lp649
(lp650
I11
aI1
aI487
aasS'f2_6'
p651
(lp652
(lp653
I11
aI1
aI495
aasS'f19_12'
p654
(lp655
(lp656
I1
aI4
aI208
aasS'f19_13'
p657
(lp658
(lp659
I2
aI14
aI500
aasS'f19_10'
p660
(lp661
(lp662
I1
aI26
aI217
aasS'f19_11'
p663
(lp664
(lp665
I1
aI15
aI217
aasS'f19_16'
p666
(lp667
(lp668
I1
aI5
aI244
aa(lp669
I2
aI14
aI500
aasS'f19_17'
p670
(lp671
(lp672
I1
aI4
aI241
aa(lp673
I2
aI32
aI500
aasS'f19_14'
p674
(lp675
(lp676
I1
aI46
aI232
aasS'f19_15'
p677
(lp678
(lp679
I1
aI54
aI232
aa(lp680
I2
aI73
aI500
aasS'f5_2'
p681
(lp682
(lp683
I14
aI1
aI500
aasS'f5_3'
p684
(lp685
(lp686
I7
aI80
aI207
aasS'f19_18'
p687
(lp688
(lp689
I1
aI4
aI243
aasS'f6_30'
p690
(lp691
(lp692
I15
aI3
aI496
aasS'f5_6'
p693
(lp694
(lp695
I14
aI2
aI500
aasS'f5_7'
p696
(lp697
(lp698
I14
aI2
aI500
aasS'f5_4'
p699
(lp700
(lp701
I14
aI4
aI500
aasS'f5_5'
p702
(lp703
(lp704
I14
aI6
aI500
aasS'ID_51_F1_3_F2_2_G_0_SplitPt_220_GenID_0'
p705
(lp706
(lp707
I34
aI221
aI353
aa(lp708
I9
aI1
aI254
aasS'ID_36_F1_10_F2_5_G_1_SplitPt_227_GenID_0'
p709
(lp710
(lp711
I25
aI1
aI326
aa(lp712
I14
aI211
aI500
aasS'f10_10'
p713
(lp714
(lp715
I25
aI5
aI497
aasS'ID_52_F1_8_F2_17_G_2_SplitPt_159_GenID_0'
p716
(lp717
(lp718
I13
aI143
aI500
aa(lp719
I8
aI1
aI159
aasS'f0_9'
p720
(lp721
(lp722
I6
aI4
aI500
aasS'ID_47_F1_0_F2_17_G_1_SplitPt_167_GenID_0'
p723
(lp724
(lp725
I35
aI283
aI389
aa(lp726
I6
aI1
aI250
aasS'f5_1'
p727
(lp728
(lp729
I14
aI2
aI500
aasS'f8_26'
p730
(lp731
(lp732
I8
aI1
aI492
aasS'f8_27'
p733
(lp734
(lp735
I8
aI1
aI500
aasS'f8_24'
p736
(lp737
(lp738
I8
aI3
aI500
aasS'f8_25'
p739
(lp740
(lp741
I8
aI1
aI500
aasS'f8_22'
p742
(lp743
(lp744
I8
aI14
aI499
aasS'f8_23'
p745
(lp746
(lp747
I8
aI3
aI499
aasS'f8_20'
p748
(lp749
(lp750
I36
aI326
aI495
aasS'f8_21'
p751
(lp752
(lp753
I36
aI336
aI495
aasS'f3_8'
p754
(lp755
(lp756
I9
aI1
aI500
aasS'f0_3'
p757
(lp758
(lp759
I6
aI28
aI500
aasS'f1_31'
p760
(lp761
(lp762
I3
aI10
aI462
aasS'f8_28'
p763
(lp764
(lp765
I8
aI1
aI491
aasS'f8_29'
p766
(lp767
(lp768
I8
aI1
aI490
aasS'f1_6'
p769
(lp770
(lp771
I3
aI8
aI482
aasS'f1_7'
p772
(lp773
(lp774
I3
aI2
aI500
aasS'f1_4'
p775
(lp776
(lp777
I3
aI7
aI495
aasS'f1_5'
p778
(lp779
(lp780
I3
aI1
aI487
aasS'f1_2'
p781
(lp782
(lp783
I3
aI2
aI489
aasS'f1_3'
p784
(lp785
(lp786
I3
aI1
aI499
aasS'f1_0'
p787
(lp788
(lp789
I3
aI4
aI498
aasS'f1_1'
p790
(lp791
(lp792
I3
aI4
aI498
aasS'ID_22_F1_16_F2_17_G_2_SplitPt_70_GenID_0'
p793
(lp794
(lp795
I37
aI283
aI381
aa(lp796
I38
aI1
aI64
aasS'f1_8'
p797
(lp798
(lp799
I3
aI16
aI500
aasS'f1_9'
p800
(lp801
(lp802
I3
aI3
aI498
aasS'f9_8'
p803
(lp804
(lp805
I17
aI4
aI127
aa(lp806
I33
aI25
aI494
aasS'f9_9'
p807
(lp808
(lp809
I33
aI70
aI494
aasS'f9_6'
p810
(lp811
(lp812
I33
aI10
aI500
aasS'f9_7'
p813
(lp814
(lp815
I33
aI35
aI500
aasS'f9_4'
p816
(lp817
(lp818
I33
aI11
aI500
aasS'f9_5'
p819
(lp820
(lp821
I33
aI10
aI500
aasS'f9_2'
p822
(lp823
(lp824
I33
aI223
aI500
aasS'f9_3'
p825
(lp826
(lp827
I33
aI1
aI500
aasS'f9_0'
p828
(lp829
(lp830
I17
aI25
aI182
aa(lp831
I33
aI51
aI498
aasS'ID_48_F1_12_F2_9_G_3_SplitPt_175_GenID_0'
p832
(lp833
(lp834
I33
aI136
aI500
aa(lp835
I18
aI1
aI209
aasS'ID_6_F1_13_F2_6_G_1_SplitPt_153_GenID_0'
p836
(lp837
(lp838
I39
aI376
aI500
aa(lp839
I27
aI1
aI155
aasS'f17_9'
p840
(lp841
(lp842
I13
aI1
aI500
aasS'f10_11'
p843
(lp844
(lp845
I25
aI5
aI500
aasS'f9_29'
p846
(lp847
(lp848
I17
aI31
aI205
aasS'f9_28'
p849
(lp850
(lp851
I17
aI1
aI210
aa(lp852
I33
aI176
aI496
aasS'f14_24'
p853
(lp854
(lp855
I22
aI12
aI499
aasS'f9_25'
p856
(lp857
(lp858
I17
aI2
aI207
aa(lp859
I33
aI10
aI498
aasS'f9_24'
p860
(lp861
(lp862
I17
aI1
aI224
aa(lp863
I33
aI5
aI494
aasS'f9_27'
p864
(lp865
(lp866
I17
aI1
aI246
aa(lp867
I33
aI25
aI497
aasS'f9_26'
p868
(lp869
(lp870
I17
aI7
aI197
aasS'f9_21'
p871
(lp872
(lp873
I17
aI1
aI229
aa(lp874
I33
aI176
aI489
aasS'f9_20'
p875
(lp876
(lp877
I17
aI1
aI229
aa(lp878
I33
aI133
aI484
aasS'f9_23'
p879
(lp880
(lp881
I17
aI1
aI210
aa(lp882
I33
aI15
aI500
aasS'f9_22'
p883
(lp884
(lp885
I17
aI1
aI210
aa(lp886
I33
aI41
aI483
aasS'f5_21'
p887
(lp888
(lp889
I14
aI14
aI500
aasS'f5_20'
p890
(lp891
(lp892
I14
aI5
aI500
aasS'f5_23'
p893
(lp894
(lp895
I14
aI3
aI498
aasS'f5_22'
p896
(lp897
(lp898
I14
aI10
aI500
aasS'f5_25'
p899
(lp900
(lp901
I14
aI1
aI487
aasS'f5_24'
p902
(lp903
(lp904
I14
aI6
aI498
aasS'f5_27'
p905
(lp906
(lp907
I14
aI5
aI495
aasS'f5_26'
p908
(lp909
(lp910
I14
aI5
aI500
aasS'f5_29'
p911
(lp912
(lp913
I14
aI1
aI500
aasS'f5_28'
p914
(lp915
(lp916
I14
aI1
aI500
aasS'f10_14'
p917
(lp918
(lp919
I25
aI7
aI498
aasS'f15_30'
p920
(lp921
(lp922
I4
aI4
aI500
aasS'f4_28'
p923
(lp924
(lp925
I20
aI143
aI500
aasS'f4_29'
p926
(lp927
(lp928
I40
aI5
aI97
aa(lp929
I20
aI131
aI499
aasS'f14_25'
p930
(lp931
(lp932
I21
aI1
aI140
aa(lp933
I22
aI8
aI500
aasS'f15_31'
p934
(lp935
(lp936
I4
aI21
aI500
aasS'f4_22'
p937
(lp938
(lp939
I20
aI2
aI500
aasS'f4_23'
p940
(lp941
(lp942
I20
aI6
aI500
aasS'f4_20'
p943
(lp944
(lp945
I20
aI5
aI500
aasS'f4_21'
p946
(lp947
(lp948
I20
aI2
aI499
aasS'f4_26'
p949
(lp950
(lp951
I20
aI138
aI500
aasS'f4_27'
p952
(lp953
(lp954
I20
aI132
aI500
aasS'f4_24'
p955
(lp956
(lp957
I20
aI20
aI500
aasS'f4_25'
p958
(lp959
(lp960
I20
aI10
aI500
aasS'ID_23_F1_8_F2_17_G_0_SplitPt_139_GenID_0'
p961
(lp962
(lp963
I41
aI351
aI438
aa(lp964
I8
aI1
aI205
aasS'f10_18'
p965
(lp966
(lp967
I42
aI1
aI60
aasS'f5_16'
p968
(lp969
(lp970
I14
aI28
aI497
aasS'f0_31'
p971
(lp972
(lp973
I6
aI1
aI499
aasS'f0_30'
p974
(lp975
(lp976
I6
aI13
aI500
aasS'f17_30'
p977
(lp978
(lp979
I37
aI283
aI381
aasS'f17_31'
p980
(lp981
(lp982
I13
aI47
aI498
aasS'f12_8'
p983
(lp984
(lp985
I18
aI1
aI493
aasS'ID_34_F1_1_F2_18_G_3_SplitPt_190_GenID_0'
p986
(lp987
(lp988
I29
aI173
aI500
aa(lp989
I3
aI1
aI202
aasS'f5_17'
p990
(lp991
(lp992
I14
aI5
aI496
aasS'ID_30_F1_16_F2_16_G_4_SplitPt_81_GenID_0'
p993
(lp994
(lp995
I23
aI1
aI500
aasS'ID_26_F1_10_F2_11_G_0_SplitPt_243_GenID_0'
p996
(lp997
(lp998
I25
aI3
aI304
aa(lp999
I19
aI204
aI500
aasS'f5_18'
p1000
(lp1001
(lp1002
I14
aI2
aI496
aasS'f1_18'
p1003
(lp1004
(lp1005
I3
aI12
aI488
aasS'f1_19'
p1006
(lp1007
(lp1008
I3
aI8
aI490
aasS'f5_19'
p1009
(lp1010
(lp1011
I14
aI1
aI491
aasS'f1_14'
p1012
(lp1013
(lp1014
I3
aI3
aI471
aasS'f1_15'
p1015
(lp1016
(lp1017
I3
aI1
aI477
aasS'f1_16'
p1018
(lp1019
(lp1020
I3
aI1
aI497
aasS'f1_17'
p1021
(lp1022
(lp1023
I3
aI1
aI490
aasS'f1_10'
p1024
(lp1025
(lp1026
I3
aI14
aI476
aasS'f1_11'
p1027
(lp1028
(lp1029
I3
aI3
aI463
aasS'f1_12'
p1030
(lp1031
(lp1032
I3
aI1
aI496
aasS'f1_13'
p1033
(lp1034
(lp1035
I3
aI1
aI470
aasS'ID_27_F1_11_F2_14_G_0_SplitPt_245_GenID_0'
p1036
(lp1037
(lp1038
I22
aI227
aI499
aa(lp1039
I19
aI9
aI302
aasS'f10_31'
p1040
(lp1041
(lp1042
I25
aI51
aI500
aasS'f10_30'
p1043
(lp1044
(lp1045
I25
aI9
aI500
aasS'ID_46_F1_5_F2_18_G_2_SplitPt_150_GenID_0'
p1046
(lp1047
(lp1048
I29
aI113
aI500
aa(lp1049
I14
aI6
aI157
aasS'f12_9'
p1050
(lp1051
(lp1052
I18
aI16
aI497
aasS'ID_21_F1_10_F2_3_G_3_SplitPt_54_GenID_0'
p1053
(lp1054
(lp1055
I42
aI1
aI79
aa(lp1056
I9
aI2
aI500
aasS'ID_25_F1_1_F2_13_G_2_SplitPt_193_GenID_0'
p1057
(lp1058
(lp1059
I27
aI178
aI498
aa(lp1060
I3
aI1
aI199
aasS'f19_8'
p1061
(lp1062
(lp1063
I2
aI15
aI500
aasS'f19_9'
p1064
(lp1065
(lp1066
I2
aI4
aI500
aasS'f3_18'
p1067
(lp1068
(lp1069
I9
aI1
aI497
aasS'f3_19'
p1070
(lp1071
(lp1072
I9
aI1
aI496
aasS'f1_29'
p1073
(lp1074
(lp1075
I3
aI24
aI496
aasS'f19_0'
p1076
(lp1077
(lp1078
I1
aI1
aI217
aa(lp1079
I2
aI159
aI500
aasS'f19_1'
p1080
(lp1081
(lp1082
I1
aI28
aI217
aasS'f19_2'
p1083
(lp1084
(lp1085
I1
aI27
aI213
aasS'f19_3'
p1086
(lp1087
(lp1088
I1
aI32
aI216
aasS'f19_4'
p1089
(lp1090
(lp1091
I2
aI3
aI500
aasS'f19_5'
p1092
(lp1093
(lp1094
I2
aI124
aI500
aasS'f19_6'
p1095
(lp1096
(lp1097
I1
aI105
aI213
aasS'f19_7'
p1098
(lp1099
(lp1100
I1
aI26
aI216
aasS'f18_31'
p1101
(lp1102
(lp1103
I30
aI1
aI152
aa(lp1104
I29
aI72
aI500
aasS'f18_30'
p1105
(lp1106
(lp1107
I30
aI1
aI125
aa(lp1108
I29
aI72
aI500
aasS'f12_1'
p1109
(lp1110
(lp1111
I18
aI1
aI490
aasS'f12_0'
p1112
(lp1113
(lp1114
I18
aI1
aI489
aasS'f6_9'
p1115
(lp1116
(lp1117
I15
aI1
aI500
aasS'f6_8'
p1118
(lp1119
(lp1120
I15
aI1
aI500
aasS'f6_5'
p1121
(lp1122
(lp1123
I15
aI3
aI493
aasS'f6_4'
p1124
(lp1125
(lp1126
I15
aI1
aI500
aasS'f6_7'
p1127
(lp1128
(lp1129
I15
aI1
aI500
aasS'f6_6'
p1130
(lp1131
(lp1132
I15
aI1
aI500
aasS'f6_1'
p1133
(lp1134
(lp1135
I15
aI1
aI500
aasS'f6_0'
p1136
(lp1137
(lp1138
I15
aI1
aI500
aasS'f6_3'
p1139
(lp1140
(lp1141
I15
aI1
aI500
aasS'f6_2'
p1142
(lp1143
(lp1144
I15
aI1
aI500
aasS'f4_3'
p1145
(lp1146
(lp1147
I40
aI2
aI98
aa(lp1148
I20
aI5
aI497
aasS'f4_2'
p1149
(lp1150
(lp1151
I40
aI2
aI98
aa(lp1152
I20
aI3
aI465
aasS'f4_1'
p1153
(lp1154
(lp1155
I43
aI22
aI239
aa(lp1156
I40
aI12
aI98
aasS'f4_0'
p1157
(lp1158
(lp1159
I40
aI8
aI98
aa(lp1160
I20
aI9
aI498
aasS'f4_7'
p1161
(lp1162
(lp1163
I40
aI2
aI90
aa(lp1164
I20
aI99
aI500
aasS'f4_6'
p1165
(lp1166
(lp1167
I40
aI2
aI90
aa(lp1168
I20
aI179
aI500
aasS'f4_5'
p1169
(lp1170
(lp1171
I40
aI2
aI96
aa(lp1172
I20
aI5
aI449
aasS'f4_4'
p1173
(lp1174
(lp1175
I40
aI11
aI96
aa(lp1176
I20
aI94
aI499
aasS'f17_2'
p1177
(lp1178
(lp1179
I13
aI1
aI500
aasS'f17_3'
p1180
(lp1181
(lp1182
I13
aI1
aI500
aasS'f4_9'
p1183
(lp1184
(lp1185
I20
aI2
aI460
aasS'f4_8'
p1186
(lp1187
(lp1188
I20
aI2
aI488
aasS'f17_6'
p1189
(lp1190
(lp1191
I13
aI1
aI500
aasS'f17_7'
p1192
(lp1193
(lp1194
I13
aI2
aI500
aasS'f17_4'
p1195
(lp1196
(lp1197
I13
aI4
aI500
aasS'f17_5'
p1198
(lp1199
(lp1200
I13
aI10
aI500
aasS'f7_23'
p1201
(lp1202
(lp1203
I12
aI1
aI499
aasS'f7_22'
p1204
(lp1205
(lp1206
I12
aI2
aI500
aasS'f7_21'
p1207
(lp1208
(lp1209
I12
aI1
aI500
aasS'f7_20'
p1210
(lp1211
(lp1212
I12
aI2
aI499
aasS'f7_27'
p1213
(lp1214
(lp1215
I12
aI2
aI499
aasS'f7_26'
p1216
(lp1217
(lp1218
I12
aI2
aI498
aasS'f7_25'
p1219
(lp1220
(lp1221
I12
aI186
aI500
aa(lp1222
I12
aI18
aI150
aasS'f7_24'
p1223
(lp1224
(lp1225
I12
aI12
aI156
aa(lp1226
I12
aI224
aI498
aasS'f7_29'
p1227
(lp1228
(lp1229
I12
aI186
aI500
aa(lp1230
I12
aI4
aI158
aasS'f7_28'
p1231
(lp1232
(lp1233
I12
aI12
aI500
aasS'f8_9'
p1234
(lp1235
(lp1236
I8
aI1
aI500
aasS'f8_8'
p1237
(lp1238
(lp1239
I8
aI1
aI500
aasS'f11_0'
p1240
(lp1241
(lp1242
I19
aI1
aI497
aasS'f11_1'
p1243
(lp1244
(lp1245
I19
aI6
aI497
aasS'f11_2'
p1246
(lp1247
(lp1248
I19
aI13
aI500
aasS'f11_3'
p1249
(lp1250
(lp1251
I19
aI8
aI497
aasS'f11_4'
p1252
(lp1253
(lp1254
I19
aI5
aI499
aasS'f11_5'
p1255
(lp1256
(lp1257
I19
aI5
aI480
aasS'f11_6'
p1258
(lp1259
(lp1260
I19
aI5
aI500
aasS'f11_7'
p1261
(lp1262
(lp1263
I19
aI5
aI497
aasS'f11_8'
p1264
(lp1265
(lp1266
I19
aI1
aI495
aasS'f11_9'
p1267
(lp1268
(lp1269
I19
aI2
aI497
aasS'f13_6'
p1270
(lp1271
(lp1272
I27
aI1
aI500
aasS'f13_7'
p1273
(lp1274
(lp1275
I27
aI1
aI500
aasS'f13_4'
p1276
(lp1277
(lp1278
I27
aI2
aI500
aasS'f13_5'
p1279
(lp1280
(lp1281
I27
aI1
aI500
aasS'f13_2'
p1282
(lp1283
(lp1284
I27
aI1
aI500
aasS'f13_3'
p1285
(lp1286
(lp1287
I27
aI2
aI500
aasS'f13_0'
p1288
(lp1289
(lp1290
I27
aI1
aI272
aasS'f13_1'
p1291
(lp1292
(lp1293
I27
aI6
aI255
aasS'ID_24_F1_15_F2_18_G_0_SplitPt_71_GenID_0'
p1294
(lp1295
(lp1296
I29
aI72
aI500
aasS'f2_0'
p1297
(lp1298
(lp1299
I11
aI1
aI490
aasS'f2_3'
p1300
(lp1301
(lp1302
I11
aI3
aI466
aasS'f2_2'
p1303
(lp1304
(lp1305
I11
aI3
aI458
aasS'f2_5'
p1306
(lp1307
(lp1308
I11
aI1
aI495
aasS'ID_39_F1_18_F2_8_G_0_SplitPt_119_GenID_0'
p1309
(lp1310
(lp1311
I44
aI156
aI310
aa(lp1312
I30
aI5
aI120
aasS'f13_8'
p1313
(lp1314
(lp1315
I27
aI9
aI500
aasS'f13_9'
p1316
(lp1317
(lp1318
I27
aI1
aI481
aasS'f15_4'
p1319
(lp1320
(lp1321
I10
aI4
aI142
aasS'f15_5'
p1322
(lp1323
(lp1324
I10
aI1
aI142
aa(lp1325
I4
aI4
aI500
aasS'f15_6'
p1326
(lp1327
(lp1328
I10
aI4
aI142
aasS'f15_7'
p1329
(lp1330
(lp1331
I10
aI4
aI141
aa(lp1332
I4
aI6
aI500
aasS'f15_0'
p1333
(lp1334
(lp1335
I10
aI1
aI142
aa(lp1336
I4
aI4
aI500
aasS'f15_1'
p1337
(lp1338
(lp1339
I10
aI1
aI142
aa(lp1340
I4
aI18
aI500
aasS'f15_2'
p1341
(lp1342
(lp1343
I10
aI3
aI136
aa(lp1344
I4
aI26
aI500
aasS'f15_3'
p1345
(lp1346
(lp1347
I10
aI3
aI142
aa(lp1348
I4
aI47
aI500
aasS'f0_7'
p1349
(lp1350
(lp1351
I6
aI1
aI491
aasS'f0_6'
p1352
(lp1353
(lp1354
I45
aI262
aI389
aasS'f0_5'
p1355
(lp1356
(lp1357
I6
aI2
aI499
aasS'f0_4'
p1358
(lp1359
(lp1360
I6
aI58
aI499
aasS'f15_8'
p1361
(lp1362
(lp1363
I10
aI4
aI148
aasS'f15_9'
p1364
(lp1365
(lp1366
I10
aI4
aI148
aasS'f0_1'
p1367
(lp1368
(lp1369
I6
aI1
aI492
aasS'f0_0'
p1370
(lp1371
(lp1372
I6
aI4
aI496
aasS'f1_28'
p1373
(lp1374
(lp1375
I3
aI2
aI497
aasS'ID_32_F1_4_F2_5_G_0_SplitPt_176_GenID_0'
p1376
(lp1377
(lp1378
I20
aI2
aI237
aa(lp1379
I14
aI164
aI500
aasS'f16_13'
p1380
(lp1381
(lp1382
I23
aI10
aI500
aasS'f16_12'
p1383
(lp1384
(lp1385
I23
aI12
aI500
aasS'f16_11'
p1386
(lp1387
(lp1388
I23
aI1
aI499
aasS'f16_10'
p1389
(lp1390
(lp1391
I23
aI1
aI500
aasS'f16_17'
p1392
(lp1393
(lp1394
I28
aI1
aI147
aasS'f16_16'
p1395
(lp1396
(lp1397
I28
aI1
aI147
aasS'f16_15'
p1398
(lp1399
(lp1400
I23
aI14
aI496
aasS'f16_14'
p1401
(lp1402
(lp1403
I23
aI8
aI500
aasS'ID_42_F1_16_F2_6_G_1_SplitPt_148_GenID_0'
p1404
(lp1405
(lp1406
I28
aI1
aI147
aa(lp1407
I15
aI66
aI500
aasS'f16_19'
p1408
(lp1409
(lp1410
I28
aI6
aI167
aasS'f16_18'
p1411
(lp1412
(lp1413
I28
aI1
aI145
aasS'f3_15'
p1414
(lp1415
(lp1416
I9
aI1
aI499
aasS'ID_11_F1_18_F2_10_G_0_SplitPt_152_GenID_0'
p1417
(lp1418
(lp1419
I30
aI1
aI201
aa(lp1420
I25
aI157
aI500
aasS'f6_24'
p1421
(lp1422
(lp1423
I15
aI3
aI499
aasS'f6_25'
p1424
(lp1425
(lp1426
I15
aI6
aI500
aasS'f6_26'
p1427
(lp1428
(lp1429
I15
aI1
aI500
aasS'f6_27'
p1430
(lp1431
(lp1432
I15
aI2
aI487
aasS'f6_20'
p1433
(lp1434
(lp1435
I15
aI1
aI493
aasS'f6_21'
p1436
(lp1437
(lp1438
I15
aI1
aI500
aasS'f6_22'
p1439
(lp1440
(lp1441
I15
aI1
aI496
aasS'f6_23'
p1442
(lp1443
(lp1444
I15
aI1
aI499
aasS'f6_28'
p1445
(lp1446
(lp1447
I15
aI8
aI500
aasS'f6_29'
p1448
(lp1449
(lp1450
I15
aI21
aI500
aasS'f1_25'
p1451
(lp1452
(lp1453
I3
aI7
aI500
aasS'f1_24'
p1454
(lp1455
(lp1456
I3
aI4
aI500
aasS'f1_27'
p1457
(lp1458
(lp1459
I3
aI2
aI489
aasS'f1_26'
p1460
(lp1461
(lp1462
I3
aI2
aI497
aasS'f14_19'
p1463
(lp1464
(lp1465
I22
aI3
aI500
aasS'f14_18'
p1466
(lp1467
(lp1468
I22
aI4
aI496
aasS'f1_23'
p1469
(lp1470
(lp1471
I3
aI1
aI498
aasS'f1_22'
p1472
(lp1473
(lp1474
I3
aI1
aI500
aasS'f14_15'
p1475
(lp1476
(lp1477
I16
aI345
aI481
aasS'f14_14'
p1478
(lp1479
(lp1480
I22
aI42
aI499
aasS'f14_17'
p1481
(lp1482
(lp1483
I22
aI1
aI499
aasS'f14_16'
p1484
(lp1485
(lp1486
I22
aI1
aI499
aasS'f14_11'
p1487
(lp1488
(lp1489
I22
aI59
aI499
aasS'f14_10'
p1490
(lp1491
(lp1492
I22
aI2
aI499
aasS'f14_13'
p1493
(lp1494
(lp1495
I22
aI1
aI500
aasS'f14_12'
p1496
(lp1497
(lp1498
I22
aI1
aI500
aasS'f2_31'
p1499
(lp1500
(lp1501
I11
aI14
aI500
aasS'f2_30'
p1502
(lp1503
(lp1504
I11
aI16
aI494
aasS'ID_55_F1_3_F2_2_G_4_SplitPt_83_GenID_0'
p1505
(lp1506
(lp1507
I11
aI61
aI500
aa(lp1508
I9
aI1
aI122
aasS'f13_30'
p1509
(lp1510
(lp1511
I27
aI2
aI499
aasS'f13_31'
p1512
(lp1513
(lp1514
I27
aI1
aI499
aasS'ID_50_F1_13_F2_9_G_4_SplitPt_241_GenID_0'
p1515
(lp1516
(lp1517
I33
aI208
aI500
aa(lp1518
I27
aI1
aI271
aasS'ID_7_F1_3_F2_0_G_1_SplitPt_59_GenID_0'
p1519
(lp1520
(lp1521
I6
aI49
aI500
aasS'f8_13'
p1522
(lp1523
(lp1524
I8
aI2
aI500
aasS'f8_12'
p1525
(lp1526
(lp1527
I36
aI326
aI495
aasS'f8_11'
p1528
(lp1529
(lp1530
I8
aI1
aI489
aasS'f8_10'
p1531
(lp1532
(lp1533
I8
aI2
aI500
aasS'f8_17'
p1534
(lp1535
(lp1536
I8
aI17
aI500
aasS'f8_16'
p1537
(lp1538
(lp1539
I8
aI22
aI500
aasS'f8_15'
p1540
(lp1541
(lp1542
I8
aI1
aI500
aasS'f8_14'
p1543
(lp1544
(lp1545
I8
aI1
aI500
aasS'f8_19'
p1546
(lp1547
(lp1548
I8
aI4
aI498
aasS'f8_18'
p1549
(lp1550
(lp1551
I8
aI4
aI500
aasS'f0_10'
p1552
(lp1553
(lp1554
I6
aI1
aI500
aasS'f0_17'
p1555
(lp1556
(lp1557
I6
aI16
aI500
aasS'f18_1'
p1558
(lp1559
(lp1560
I30
aI4
aI120
aa(lp1561
I29
aI72
aI500
aasS'f18_0'
p1562
(lp1563
(lp1564
I30
aI3
aI115
aa(lp1565
I29
aI72
aI500
aasS'f18_3'
p1566
(lp1567
(lp1568
I29
aI71
aI500
aasS'f18_2'
p1569
(lp1570
(lp1571
I29
aI72
aI500
aasS'f18_5'
p1572
(lp1573
(lp1574
I29
aI71
aI500
aasS'f18_4'
p1575
(lp1576
(lp1577
I29
aI86
aI500
aasS'f18_7'
p1578
(lp1579
(lp1580
I29
aI52
aI499
aasS'f18_6'
p1581
(lp1582
(lp1583
I29
aI41
aI500
aasS'f18_9'
p1584
(lp1585
(lp1586
I29
aI6
aI499
aasS'f18_8'
p1587
(lp1588
(lp1589
I29
aI51
aI499
aasS'f1_20'
p1590
(lp1591
(lp1592
I3
aI1
aI500
aasS'f0_16'
p1593
(lp1594
(lp1595
I6
aI2
aI500
aasS'ID_62_F1_2_F2_3_G_3_SplitPt_212_GenID_0'
p1596
(lp1597
(lp1598
I11
aI1
aI264
aa(lp1599
I9
aI141
aI500
aasS'f9_30'
p1600
(lp1601
(lp1602
I17
aI1
aI225
aa(lp1603
I33
aI74
aI497
aasS'f9_31'
p1604
(lp1605
(lp1606
I17
aI1
aI195
aa(lp1607
I33
aI76
aI497
aasS'ID_18_F1_15_F2_4_G_4_SplitPt_140_GenID_0'
p1608
(lp1609
(lp1610
I10
aI1
aI147
aa(lp1611
I20
aI77
aI500
aasS'f5_30'
p1612
(lp1613
(lp1614
I14
aI1
aI500
aasS'f5_31'
p1615
(lp1616
(lp1617
I14
aI1
aI500
aasS'ID_1_F1_13_F2_16_G_3_SplitPt_203_GenID_0'
p1618
(lp1619
(lp1620
I27
aI1
aI295
aa(lp1621
I23
aI165
aI500
aasS'ID_40_F1_3_F2_19_G_4_SplitPt_185_GenID_0'
p1622
(lp1623
(lp1624
I2
aI78
aI500
aa(lp1625
I9
aI1
aI237
aasS'f16_28'
p1626
(lp1627
(lp1628
I23
aI1
aI499
aasS'f16_29'
p1629
(lp1630
(lp1631
I23
aI1
aI499
aasS'f14_9'
p1632
(lp1633
(lp1634
I22
aI8
aI499
aasS'f14_8'
p1635
(lp1636
(lp1637
I22
aI3
aI500
aasS'f14_5'
p1638
(lp1639
(lp1640
I22
aI24
aI498
aasS'f14_4'
p1641
(lp1642
(lp1643
I22
aI3
aI499
aasS'f14_7'
p1644
(lp1645
(lp1646
I22
aI71
aI496
aasS'f14_6'
p1647
(lp1648
(lp1649
I22
aI2
aI496
aasS'f16_26'
p1650
(lp1651
(lp1652
I5
aI4
aI98
aasS'f14_0'
p1653
(lp1654
(lp1655
I22
aI4
aI496
aasS'f14_3'
p1656
(lp1657
(lp1658
I22
aI26
aI499
aasS'f14_2'
p1659
(lp1660
(lp1661
I24
aI16
aI236
aasS'f16_3'
p1662
(lp1663
(lp1664
I23
aI56
aI500
aasS'ID_19_F1_15_F2_12_G_0_SplitPt_69_GenID_0'
p1665
(lp1666
(lp1667
I18
aI70
aI500
aasS'f16_1'
p1668
(lp1669
(lp1670
I23
aI3
aI500
aasS'ID_13_F1_8_F2_19_G_1_SplitPt_245_GenID_0'
p1671
(lp1672
(lp1673
I2
aI246
aI500
aa(lp1674
I8
aI1
aI266
aasS'f16_7'
p1675
(lp1676
(lp1677
I38
aI5
aI64
aa(lp1678
I23
aI21
aI500
aasS'f16_6'
p1679
(lp1680
(lp1681
I38
aI24
aI64
aasS'f16_5'
p1682
(lp1683
(lp1684
I38
aI1
aI62
aa(lp1685
I23
aI3
aI467
aasS'f16_4'
p1686
(lp1687
(lp1688
I38
aI1
aI62
aasS'f0_26'
p1689
(lp1690
(lp1691
I6
aI1
aI500
aasS'f0_27'
p1692
(lp1693
(lp1694
I6
aI1
aI500
aasS'f16_9'
p1695
(lp1696
(lp1697
I23
aI8
aI499
aasS'f16_8'
p1698
(lp1699
(lp1700
I23
aI9
aI500
aasS'ID_31_F1_12_F2_1_G_1_SplitPt_112_GenID_0'
p1701
(lp1702
(lp1703
I18
aI1
aI101
aa(lp1704
I3
aI73
aI500
aasS'f0_23'
p1705
(lp1706
(lp1707
I6
aI2
aI500
aasS'f0_20'
p1708
(lp1709
(lp1710
I6
aI2
aI500
aasS'f0_21'
p1711
(lp1712
(lp1713
I6
aI1
aI500
aasS'f17_21'
p1714
(lp1715
(lp1716
I13
aI186
aI470
aasS'f17_20'
p1717
(lp1718
(lp1719
I13
aI3
aI500
aasS'f17_23'
p1720
(lp1721
(lp1722
I13
aI74
aI500
aasS'f17_22'
p1723
(lp1724
(lp1725
I13
aI3
aI500
aasS'f17_25'
p1726
(lp1727
(lp1728
I13
aI2
aI500
aasS'f17_24'
p1729
(lp1730
(lp1731
I13
aI1
aI500
aasS'f17_27'
p1732
(lp1733
(lp1734
I41
aI351
aI438
aasS'f17_26'
p1735
(lp1736
(lp1737
I13
aI10
aI496
aasS'f17_29'
p1738
(lp1739
(lp1740
I13
aI2
aI500
aasS'f17_28'
p1741
(lp1742
(lp1743
I13
aI2
aI497
aasS'f3_12'
p1744
(lp1745
(lp1746
I9
aI2
aI500
aasS'ID_58_F1_5_F2_11_G_2_SplitPt_98_GenID_0'
p1747
(lp1748
(lp1749
I46
aI126
aI231
aa(lp1750
I14
aI1
aI99
aasS'f10_9'
p1751
(lp1752
(lp1753
I25
aI7
aI500
aasS'f10_8'
p1754
(lp1755
(lp1756
I25
aI11
aI500
aasS'f10_1'
p1757
(lp1758
(lp1759
I25
aI1
aI499
aasS'f10_0'
p1760
(lp1761
(lp1762
I25
aI1
aI497
aasS'f10_3'
p1763
(lp1764
(lp1765
I25
aI18
aI500
aasS'f10_2'
p1766
(lp1767
(lp1768
I25
aI18
aI500
aasS'f10_5'
p1769
(lp1770
(lp1771
I25
aI1
aI490
aasS'f10_4'
p1772
(lp1773
(lp1774
I25
aI1
aI500
aasS'f10_7'
p1775
(lp1776
(lp1777
I25
aI1
aI499
aasS'f10_6'
p1778
(lp1779
(lp1780
I25
aI1
aI500
aasS'f4_17'
p1781
(lp1782
(lp1783
I43
aI22
aI239
aasS'f4_16'
p1784
(lp1785
(lp1786
I20
aI6
aI500
aasS'f4_15'
p1787
(lp1788
(lp1789
I40
aI6
aI85
aasS'f4_14'
p1790
(lp1791
(lp1792
I20
aI142
aI499
aasS'f4_13'
p1793
(lp1794
(lp1795
I40
aI6
aI98
aasS'f4_12'
p1796
(lp1797
(lp1798
I20
aI6
aI499
aasS'f4_11'
p1799
(lp1800
(lp1801
I20
aI142
aI497
aasS'f4_10'
p1802
(lp1803
(lp1804
I20
aI3
aI494
aasS'f12_7'
p1805
(lp1806
(lp1807
I18
aI2
aI496
aasS'f12_6'
p1808
(lp1809
(lp1810
I18
aI2
aI420
aasS'f12_5'
p1811
(lp1812
(lp1813
I47
aI307
aI389
aasS'f12_4'
p1814
(lp1815
(lp1816
I18
aI2
aI498
aasS'f12_3'
p1817
(lp1818
(lp1819
I18
aI7
aI479
aasS'f12_2'
p1820
(lp1821
(lp1822
I18
aI1
aI498
aasS'f4_19'
p1823
(lp1824
(lp1825
I20
aI8
aI500
aasS'f4_18'
p1826
(lp1827
(lp1828
I20
aI2
aI500
aasS'f3_27'
p1829
(lp1830
(lp1831
I9
aI1
aI500
aasS'f3_26'
p1832
(lp1833
(lp1834
I9
aI3
aI499
aasS'f3_25'
p1835
(lp1836
(lp1837
I9
aI3
aI500
aasS'f3_24'
p1838
(lp1839
(lp1840
I9
aI1
aI500
aasS'f3_23'
p1841
(lp1842
(lp1843
I26
aI242
aI320
aasS'f3_22'
p1844
(lp1845
(lp1846
I26
aI195
aI319
aasS'f3_21'
p1847
(lp1848
(lp1849
I9
aI2
aI495
aasS'f3_20'
p1850
(lp1851
(lp1852
I26
aI242
aI338
aasS'f3_29'
p1853
(lp1854
(lp1855
I9
aI3
aI497
aasS'f3_28'
p1856
(lp1857
(lp1858
I9
aI11
aI500
aasS'f6_19'
p1859
(lp1860
(lp1861
I15
aI2
aI494
aasS'f6_18'
p1862
(lp1863
(lp1864
I15
aI2
aI500
aasS'f6_15'
p1865
(lp1866
(lp1867
I15
aI1
aI500
aasS'f6_14'
p1868
(lp1869
(lp1870
I15
aI1
aI500
aasS'f6_17'
p1871
(lp1872
(lp1873
I39
aI376
aI500
aa(lp1874
I15
aI1
aI431
aasS'f6_16'
p1875
(lp1876
(lp1877
I15
aI245
aI500
aa(lp1878
I15
aI1
aI233
aasS'f6_11'
p1879
(lp1880
(lp1881
I15
aI2
aI474
aasS'f6_10'
p1882
(lp1883
(lp1884
I15
aI1
aI497
aasS'f6_13'
p1885
(lp1886
(lp1887
I15
aI1
aI499
aasS'f6_12'
p1888
(lp1889
(lp1890
I15
aI2
aI481
aasS'ID_12_F1_13_F2_14_G_1_SplitPt_175_GenID_0'
p1891
(lp1892
(lp1893
I27
aI4
aI191
aa(lp1894
I22
aI88
aI500
aasS'ID_45_F1_11_F2_15_G_4_SplitPt_231_GenID_0'
p1895
(lp1896
(lp1897
I46
aI126
aI231
aa(lp1898
I4
aI232
aI500
aasS'f3_13'
p1899
(lp1900
(lp1901
I9
aI9
aI500
aasS'ID_2_F1_8_F2_1_G_3_SplitPt_182_GenID_0'
p1902
(lp1903
(lp1904
I8
aI1
aI191
aa(lp1905
I3
aI116
aI500
aasS'f1_21'
p1906
(lp1907
(lp1908
I3
aI1
aI500
aasS'f7_30'
p1909
(lp1910
(lp1911
I12
aI4
aI500
aasS'f7_31'
p1912
(lp1913
(lp1914
I12
aI3
aI500
aasS'f12_17'
p1915
(lp1916
(lp1917
I31
aI6
aI79
aasS'f12_16'
p1918
(lp1919
(lp1920
I31
aI5
aI85
aasS'f12_15'
p1921
(lp1922
(lp1923
I18
aI1
aI500
aasS'f12_14'
p1924
(lp1925
(lp1926
I18
aI1
aI500
aasS'f12_13'
p1927
(lp1928
(lp1929
I18
aI2
aI420
aasS'f12_12'
p1930
(lp1931
(lp1932
I18
aI2
aI420
aasS'f12_11'
p1933
(lp1934
(lp1935
I18
aI1
aI500
aasS'f12_10'
p1936
(lp1937
(lp1938
I18
aI1
aI484
aasS'f12_19'
p1939
(lp1940
(lp1941
I47
aI307
aI389
aa(lp1942
I31
aI2
aI92
aasS'f12_18'
p1943
(lp1944
(lp1945
I18
aI1
aI500
aasS'f0_2'
p1946
(lp1947
(lp1948
I6
aI37
aI491
aasS'ID_56_F1_13_F2_17_G_3_SplitPt_217_GenID_0'
p1949
(lp1950
(lp1951
I35
aI283
aI389
aa(lp1952
I27
aI1
aI276
aasS'f11_30'
p1953
(lp1954
(lp1955
I19
aI5
aI491
aasS'f11_31'
p1956
(lp1957
(lp1958
I19
aI5
aI495
aasS'ID_38_F1_17_F2_7_G_2_SplitPt_223_GenID_0'
p1959
(lp1960
(lp1961
I12
aI171
aI500
aa(lp1962
I13
aI1
aI301
aasS'f3_6'
p1963
(lp1964
(lp1965
I9
aI10
aI498
aasS'f3_10'
p1966
(lp1967
(lp1968
I9
aI1
aI500
aasS'f18_19'
p1969
(lp1970
(lp1971
I30
aI8
aI199
aa(lp1972
I29
aI147
aI500
aasS'f18_18'
p1973
(lp1974
(lp1975
I30
aI3
aI156
aa(lp1976
I29
aI51
aI500
aasS'f18_11'
p1977
(lp1978
(lp1979
I29
aI271
aI500
aasS'f18_10'
p1980
(lp1981
(lp1982
I29
aI65
aI499
aasS'f18_13'
p1983
(lp1984
(lp1985
I29
aI94
aI498
aasS'f18_12'
p1986
(lp1987
(lp1988
I29
aI55
aI500
aasS'f18_15'
p1989
(lp1990
(lp1991
I29
aI85
aI500
aasS'f18_14'
p1992
(lp1993
(lp1994
I29
aI1
aI500
aasS'f18_17'
p1995
(lp1996
(lp1997
I30
aI2
aI203
aa(lp1998
I29
aI51
aI500
aasS'f18_16'
p1999
(lp2000
(lp2001
I30
aI2
aI181
aa(lp2002
I29
aI82
aI500
aasS'f0_13'
p2003
(lp2004
(lp2005
I6
aI1
aI500
aasS'f0_12'
p2006
(lp2007
(lp2008
I6
aI6
aI500
aasS'f0_11'
p2009
(lp2010
(lp2011
I6
aI1
aI500
aasS'f14_28'
p2012
(lp2013
(lp2014
I22
aI22
aI500
aasS'f14_29'
p2015
(lp2016
(lp2017
I22
aI59
aI500
aasS'ID_29_F1_4_F2_11_G_3_SplitPt_98_GenID_0'
p2018
(lp2019
(lp2020
I40
aI2
aI98
aa(lp2021
I19
aI68
aI500
aasS'ID_14_F1_17_F2_11_G_0_SplitPt_104_GenID_0'
p2022
(lp2023
(lp2024
I32
aI184
aI304
aasS'ID_60_F1_8_F2_0_G_2_SplitPt_180_GenID_0'
p2025
(lp2026
(lp2027
I45
aI262
aI389
aa(lp2028
I8
aI1
aI198
aasS'f14_20'
p2029
(lp2030
(lp2031
I22
aI2
aI499
aasS'f14_21'
p2032
(lp2033
(lp2034
I22
aI3
aI500
aasS'f14_22'
p2035
(lp2036
(lp2037
I22
aI8
aI500
aasS'f14_23'
p2038
(lp2039
(lp2040
I22
aI43
aI500
aasS'f19_30'
p2041
(lp2042
(lp2043
I1
aI14
aI239
aasS'f19_31'
p2044
(lp2045
(lp2046
I2
aI15
aI484
aasS'f14_26'
p2047
(lp2048
(lp2049
I21
aI2
aI149
aasS'f14_27'
p2050
(lp2051
(lp2052
I21
aI2
aI121
aa(lp2053
I22
aI4
aI500
aasS'f2_28'
p2054
(lp2055
(lp2056
I11
aI15
aI500
aasS'f2_29'
p2057
(lp2058
(lp2059
I11
aI8
aI490
aasS'f10_13'
p2060
(lp2061
(lp2062
I25
aI18
aI497
aasS'f10_12'
p2063
(lp2064
(lp2065
I25
aI23
aI500
aasS'f10_15'
p2066
(lp2067
(lp2068
I25
aI54
aI500
aasS'ID_59_F1_18_F2_5_G_1_SplitPt_158_GenID_0'
p2069
(lp2070
(lp2071
I30
aI2
aI186
aa(lp2072
I14
aI122
aI500
aasS'f10_17'
p2073
(lp2074
(lp2075
I25
aI39
aI498
aasS'f10_16'
p2076
(lp2077
(lp2078
I25
aI15
aI497
aasS'f10_19'
p2079
(lp2080
(lp2081
I42
aI1
aI76
aasS'f2_21'
p2082
(lp2083
(lp2084
I11
aI12
aI500
aasS'f2_22'
p2085
(lp2086
(lp2087
I11
aI21
aI499
aasS'f2_23'
p2088
(lp2089
(lp2090
I11
aI8
aI484
aasS'f2_24'
p2091
(lp2092
(lp2093
I11
aI3
aI476
aasS'f2_25'
p2094
(lp2095
(lp2096
I11
aI4
aI500
aasS'f2_26'
p2097
(lp2098
(lp2099
I11
aI15
aI490
aasS'f2_27'
p2100
(lp2101
(lp2102
I34
aI221
aI353
aasS'ID_8_F1_19_F2_0_G_1_SplitPt_243_GenID_0'
p2103
(lp2104
(lp2105
I1
aI3
aI244
aa(lp2106
I6
aI181
aI500
aasS'ID_35_F1_11_F2_5_G_0_SplitPt_114_GenID_0'
p2107
(lp2108
(lp2109
I19
aI1
aI143
aa(lp2110
I14
aI113
aI500
aasS'f13_25'
p2111
(lp2112
(lp2113
I27
aI2
aI500
aasS'f13_24'
p2114
(lp2115
(lp2116
I27
aI3
aI500
aasS'f13_27'
p2117
(lp2118
(lp2119
I27
aI1
aI494
aasS'f13_26'
p2120
(lp2121
(lp2122
I27
aI1
aI499
aasS'f13_21'
p2123
(lp2124
(lp2125
I27
aI1
aI499
aasS'f13_20'
p2126
(lp2127
(lp2128
I27
aI1
aI499
aasS'f13_23'
p2129
(lp2130
(lp2131
I27
aI1
aI499
aasS'f13_22'
p2132
(lp2133
(lp2134
I27
aI1
aI499
aasS'f13_29'
p2135
(lp2136
(lp2137
I27
aI2
aI499
aasS'f13_28'
p2138
(lp2139
(lp2140
I27
aI2
aI500
aasS'f3_7'
p2141
(lp2142
(lp2143
I9
aI7
aI500
aasS'ID_43_F1_3_F2_7_G_0_SplitPt_236_GenID_0'
p2144
(lp2145
(lp2146
I12
aI194
aI500
aa(lp2147
I9
aI2
aI237
aasS'f0_8'
p2148
(lp2149
(lp2150
I6
aI1
aI499
aasS'ID_61_F1_2_F2_1_G_1_SplitPt_189_GenID_0'
p2151
(lp2152
(lp2153
I11
aI6
aI234
aa(lp2154
I3
aI162
aI500
aasS'ID_44_F1_0_F2_3_G_1_SplitPt_84_GenID_0'
p2155
(lp2156
(lp2157
I6
aI4
aI128
aa(lp2158
I9
aI61
aI500
aasS'f16_31'
p2159
(lp2160
(lp2161
I23
aI1
aI477
aasS'f16_30'
p2162
(lp2163
(lp2164
I23
aI1
aI478
aasS'f5_8'
p2165
(lp2166
(lp2167
I14
aI1
aI500
aasS'f0_19'
p2168
(lp2169
(lp2170
I6
aI1
aI500
aasS'f0_18'
p2171
(lp2172
(lp2173
I6
aI1
aI500
aasS'f12_28'
p2174
(lp2175
(lp2176
I18
aI1
aI500
aasS'f12_29'
p2177
(lp2178
(lp2179
I18
aI1
aI499
aasS'f12_26'
p2180
(lp2181
(lp2182
I18
aI1
aI500
aasS'f12_27'
p2183
(lp2184
(lp2185
I18
aI1
aI500
aasS'f12_24'
p2186
(lp2187
(lp2188
I18
aI1
aI500
aasS'f12_25'
p2189
(lp2190
(lp2191
I18
aI1
aI464
aasS'f12_22'
p2192
(lp2193
(lp2194
I18
aI1
aI500
aasS'f12_23'
p2195
(lp2196
(lp2197
I18
aI1
aI500
aasS'f12_20'
p2198
(lp2199
(lp2200
I18
aI2
aI500
aasS'f12_21'
p2201
(lp2202
(lp2203
I18
aI2
aI493
aasS'f17_18'
p2204
(lp2205
(lp2206
I13
aI4
aI498
aasS'f17_19'
p2207
(lp2208
(lp2209
I13
aI1
aI500
aasS'f17_14'
p2210
(lp2211
(lp2212
I13
aI3
aI500
aasS'f17_15'
p2213
(lp2214
(lp2215
I13
aI3
aI500
aasS'f17_16'
p2216
(lp2217
(lp2218
I13
aI8
aI500
aasS'f17_17'
p2219
(lp2220
(lp2221
I13
aI4
aI500
aasS'f17_10'
p2222
(lp2223
(lp2224
I13
aI2
aI500
aasS'f17_11'
p2225
(lp2226
(lp2227
I13
aI10
aI500
aasS'f17_12'
p2228
(lp2229
(lp2230
I13
aI1
aI500
aasS'f17_13'
p2231
(lp2232
(lp2233
I13
aI1
aI500
aasS'ID_16_F1_0_F2_8_G_1_SplitPt_88_GenID_0'
p2234
(lp2235
(lp2236
I44
aI156
aI310
aa(lp2237
I6
aI1
aI99
aasS'f6_31'
p2238
(lp2239
(lp2240
I15
aI3
aI486
aas.