(dp1
S'f19_19'
p2
(lp3
(lp4
I1
aI1
aI500
aasS'ID_111_F1_14_F2_14_G_3_SplitPt_139_GenID_0'
p5
(lp6
(lp7
I2
aI1
aI500
aasS'ID_50_F1_3_F2_0_G_1_SplitPt_137_GenID_0'
p8
(lp9
(lp10
I3
aI60
aI154
aa(lp11
I4
aI138
aI500
aasS'ID_115_F1_8_F2_10_G_2_SplitPt_123_GenID_0'
p12
(lp13
(lp14
I5
aI7
aI123
aa(lp15
I6
aI80
aI500
aasS'ID_97_F1_8_F2_8_G_3_SplitPt_238_GenID_0'
p16
(lp17
(lp18
I7
aI188
aI244
aasS'ID_364_F1_16_F2_17_G_4_SplitPt_61_GenID_0'
p19
(lp20
(lp21
I8
aI1
aI87
aa(lp22
I9
aI44
aI500
aasS'f11_18'
p23
(lp24
(lp25
I10
aI1
aI500
aasS'ID_168_F1_14_F2_7_G_4_SplitPt_97_GenID_0'
p26
(lp27
(lp28
I11
aI64
aI105
aa(lp29
I12
aI91
aI500
aasS'f5_7'
p30
(lp31
(lp32
I13
aI196
aI288
aasS'ID_73_F1_3_F2_16_G_0_SplitPt_225_GenID_0'
p33
(lp34
(lp35
I14
aI160
aI481
aasS'ID_314_F1_2_F2_5_G_3_SplitPt_61_GenID_0'
p36
(lp37
(lp38
I15
aI2
aI60
aa(lp39
I16
aI56
aI500
aasS'ID_312_F1_1_F2_13_G_2_SplitPt_184_GenID_0'
p40
(lp41
(lp42
I17
aI107
aI496
aa(lp43
I18
aI1
aI242
aasS'ID_324_F1_10_F2_4_G_2_SplitPt_80_GenID_0'
p44
(lp45
(lp46
I19
aI62
aI500
aasS'ID_215_F1_4_F2_0_G_3_SplitPt_88_GenID_0'
p47
(lp48
(lp49
I20
aI203
aI339
aa(lp50
I21
aI1
aI161
aasS'ID_482_F1_10_F2_10_G_3_SplitPt_103_GenID_0'
p51
(lp52
(lp53
I6
aI1
aI498
aasS'f11_22'
p54
(lp55
(lp56
I10
aI1
aI500
aasS'f15_28'
p57
(lp58
(lp59
I6
aI5
aI490
aasS'f15_27'
p60
(lp61
(lp62
I6
aI1
aI485
aasS'f15_26'
p63
(lp64
(lp65
I22
aI300
aI438
aasS'f15_25'
p66
(lp67
(lp68
I6
aI71
aI489
aasS'ID_9_F1_12_F2_17_G_2_SplitPt_123_GenID_0'
p69
(lp70
(lp71
I9
aI128
aI499
aa(lp72
I23
aI1
aI125
aasS'ID_346_F1_10_F2_16_G_0_SplitPt_240_GenID_0'
p73
(lp74
(lp75
I14
aI264
aI480
aasS'f15_22'
p76
(lp77
(lp78
I6
aI7
aI500
aasS'f15_21'
p79
(lp80
(lp81
I24
aI4
aI113
aa(lp82
I6
aI51
aI499
aasS'f15_20'
p83
(lp84
(lp85
I6
aI1
aI500
aasS'ID_341_F1_11_F2_19_G_0_SplitPt_117_GenID_0'
p86
(lp87
(lp88
I1
aI132
aI492
aasS'f14_2'
p89
(lp90
(lp91
I2
aI1
aI499
aasS'ID_423_F1_0_F2_0_G_3_SplitPt_86_GenID_0'
p92
(lp93
(lp94
I4
aI2
aI500
aasS'ID_300_F1_7_F2_4_G_2_SplitPt_237_GenID_0'
p95
(lp96
(lp97
I12
aI1
aI274
aa(lp98
I19
aI172
aI499
aasS'f3_30'
p99
(lp100
(lp101
I3
aI1
aI500
aasS'ID_149_F1_2_F2_5_G_2_SplitPt_74_GenID_0'
p102
(lp103
(lp104
I25
aI1
aI90
aa(lp105
I16
aI73
aI500
aasS'f12_9'
p106
(lp107
(lp108
I23
aI1
aI500
aasS'f15_17'
p109
(lp110
(lp111
I6
aI5
aI500
aasS'ID_19_F1_6_F2_8_G_1_SplitPt_97_GenID_0'
p112
(lp113
(lp114
I5
aI98
aI500
aasS'ID_284_F1_17_F2_14_G_1_SplitPt_122_GenID_0'
p115
(lp116
(lp117
I2
aI113
aI500
aasS'ID_112_F1_11_F2_5_G_1_SplitPt_138_GenID_0'
p118
(lp119
(lp120
I16
aI69
aI499
aa(lp121
I10
aI4
aI127
aasS'ID_424_F1_3_F2_2_G_0_SplitPt_60_GenID_0'
p122
(lp123
(lp124
I26
aI113
aI479
aasS'f15_15'
p125
(lp126
(lp127
I6
aI1
aI500
aasS'ID_102_F1_6_F2_18_G_1_SplitPt_131_GenID_0'
p128
(lp129
(lp130
I27
aI20
aI124
aa(lp131
I18
aI180
aI500
aasS'ID_201_F1_3_F2_11_G_0_SplitPt_236_GenID_0'
p132
(lp133
(lp134
I3
aI33
aI239
aa(lp135
I10
aI234
aI499
aasS'ID_446_F1_9_F2_3_G_0_SplitPt_67_GenID_0'
p136
(lp137
(lp138
I3
aI75
aI467
aasS'ID_5_F1_0_F2_12_G_0_SplitPt_207_GenID_0'
p139
(lp140
(lp141
I23
aI168
aI485
aasS'f18_25'
p142
(lp143
(lp144
I18
aI216
aI499
aasS'ID_422_F1_15_F2_1_G_2_SplitPt_240_GenID_0'
p145
(lp146
(lp147
I18
aI220
aI500
aa(lp148
I6
aI2
aI244
aasS'ID_290_F1_4_F2_14_G_1_SplitPt_224_GenID_0'
p149
(lp150
(lp151
I19
aI2
aI228
aa(lp152
I2
aI215
aI498
aasS'ID_504_F1_9_F2_15_G_4_SplitPt_149_GenID_0'
p153
(lp154
(lp155
I28
aI1
aI222
aa(lp156
I6
aI117
aI500
aasS'ID_81_F1_3_F2_0_G_4_SplitPt_73_GenID_0'
p157
(lp158
(lp159
I3
aI1
aI102
aa(lp160
I4
aI22
aI500
aasS'ID_44_F1_2_F2_18_G_2_SplitPt_194_GenID_0'
p161
(lp162
(lp163
I26
aI28
aI202
aa(lp164
I18
aI136
aI498
aasS'ID_137_F1_10_F2_19_G_4_SplitPt_146_GenID_0'
p165
(lp166
(lp167
I29
aI119
aI175
aa(lp168
I1
aI147
aI500
aasS'f2_11'
p169
(lp170
(lp171
I30
aI15
aI177
aa(lp172
I26
aI37
aI499
aasS'f2_10'
p173
(lp174
(lp175
I30
aI15
aI177
aasS'f2_13'
p176
(lp177
(lp178
I26
aI3
aI500
aasS'f2_12'
p179
(lp180
(lp181
I26
aI3
aI499
aasS'f2_15'
p182
(lp183
(lp184
I26
aI62
aI499
aasS'f2_14'
p185
(lp186
(lp187
I26
aI59
aI500
aasS'f2_17'
p188
(lp189
(lp190
I26
aI1
aI500
aasS'f2_16'
p191
(lp192
(lp193
I31
aI218
aI320
aasS'f2_19'
p194
(lp195
(lp196
I26
aI7
aI500
aasS'f2_18'
p197
(lp198
(lp199
I26
aI2
aI500
aasS'ID_84_F1_10_F2_6_G_0_SplitPt_79_GenID_0'
p200
(lp201
(lp202
I32
aI363
aI495
aasS'ID_194_F1_15_F2_8_G_0_SplitPt_249_GenID_0'
p203
(lp204
(lp205
I6
aI1
aI266
aasS'ID_196_F1_9_F2_19_G_1_SplitPt_232_GenID_0'
p206
(lp207
(lp208
I1
aI208
aI494
aa(lp209
I28
aI2
aI246
aasS'f8_20'
p210
(lp211
(lp212
I5
aI1
aI500
aasS'ID_303_F1_10_F2_5_G_1_SplitPt_245_GenID_0'
p213
(lp214
(lp215
I33
aI233
aI332
aa(lp216
I16
aI237
aI491
aa(lp217
I6
aI2
aI277
aasS'ID_221_F1_9_F2_17_G_0_SplitPt_222_GenID_0'
p218
(lp219
(lp220
I9
aI130
aI491
aasS'ID_118_F1_2_F2_19_G_2_SplitPt_164_GenID_0'
p221
(lp222
(lp223
I26
aI2
aI190
aa(lp224
I1
aI155
aI500
aasS'f12_22'
p225
(lp226
(lp227
I23
aI3
aI500
aasS'ID_108_F1_2_F2_12_G_1_SplitPt_135_GenID_0'
p228
(lp229
(lp230
I23
aI130
aI500
aasS'ID_402_F1_3_F2_5_G_1_SplitPt_122_GenID_0'
p231
(lp232
(lp233
I3
aI1
aI152
aa(lp234
I16
aI100
aI500
aasS'f19_25'
p235
(lp236
(lp237
I1
aI1
aI498
aasS'f9_31'
p238
(lp239
(lp240
I28
aI1
aI500
aasS'f17_0'
p241
(lp242
(lp243
I9
aI2
aI499
aasS'ID_48_F1_9_F2_2_G_3_SplitPt_79_GenID_0'
p244
(lp245
(lp246
I34
aI1
aI96
aa(lp247
I26
aI61
aI500
aasS'f17_1'
p248
(lp249
(lp250
I9
aI1
aI498
aasS'f8_31'
p251
(lp252
(lp253
I5
aI1
aI499
aasS'f8_30'
p254
(lp255
(lp256
I5
aI1
aI500
aasS'ID_426_F1_14_F2_6_G_1_SplitPt_159_GenID_0'
p257
(lp258
(lp259
I27
aI152
aI471
aa(lp260
I2
aI2
aI171
aasS'ID_242_F1_19_F2_10_G_4_SplitPt_72_GenID_0'
p261
(lp262
(lp263
I35
aI88
aI159
aa(lp264
I36
aI1
aI72
aasS'ID_34_F1_15_F2_2_G_3_SplitPt_217_GenID_0'
p265
(lp266
(lp267
I37
aI78
aI164
aa(lp268
I26
aI218
aI500
aasS'ID_191_F1_7_F2_11_G_1_SplitPt_63_GenID_0'
p269
(lp270
(lp271
I10
aI51
aI499
aasS'ID_38_F1_5_F2_2_G_1_SplitPt_220_GenID_0'
p272
(lp273
(lp274
I26
aI284
aI466
aa(lp275
I16
aI1
aI215
aasS'ID_241_F1_9_F2_11_G_3_SplitPt_191_GenID_0'
p276
(lp277
(lp278
I10
aI192
aI500
aa(lp279
I28
aI1
aI195
aasS'ID_159_F1_8_F2_5_G_4_SplitPt_51_GenID_0'
p280
(lp281
(lp282
I38
aI1
aI51
aa(lp283
I16
aI42
aI500
aasS'f10_29'
p284
(lp285
(lp286
I6
aI1
aI496
aasS'ID_138_F1_9_F2_4_G_4_SplitPt_167_GenID_0'
p287
(lp288
(lp289
I19
aI131
aI500
aa(lp290
I28
aI1
aI179
aasS'f12_20'
p291
(lp292
(lp293
I23
aI4
aI500
aasS'ID_381_F1_0_F2_18_G_0_SplitPt_100_GenID_0'
p294
(lp295
(lp296
I18
aI98
aI495
aasS'ID_253_F1_10_F2_14_G_3_SplitPt_120_GenID_0'
p297
(lp298
(lp299
I6
aI1
aI159
aasS'ID_98_F1_2_F2_8_G_2_SplitPt_116_GenID_0'
p300
(lp301
(lp302
I39
aI3
aI116
aa(lp303
I5
aI112
aI500
aasS'f10_10'
p304
(lp305
(lp306
I6
aI1
aI500
aasS'ID_418_F1_10_F2_14_G_3_SplitPt_78_GenID_0'
p307
(lp308
(lp309
I6
aI1
aI79
aasS'ID_68_F1_13_F2_6_G_3_SplitPt_168_GenID_0'
p310
(lp311
(lp312
I17
aI2
aI168
aa(lp313
I27
aI166
aI500
aasS'ID_190_F1_4_F2_13_G_4_SplitPt_210_GenID_0'
p314
(lp315
(lp316
I40
aI124
aI212
aa(lp317
I17
aI160
aI500
aasS'ID_437_F1_16_F2_10_G_4_SplitPt_153_GenID_0'
p318
(lp319
(lp320
I14
aI1
aI205
aa(lp321
I6
aI103
aI500
aasS'f10_3'
p322
(lp323
(lp324
I6
aI1
aI500
aasS'f15_29'
p325
(lp326
(lp327
I6
aI1
aI487
aasS'f12_21'
p328
(lp329
(lp330
I23
aI1
aI500
aasS'ID_384_F1_4_F2_4_G_1_SplitPt_153_GenID_0'
p331
(lp332
(lp333
I19
aI81
aI492
aasS'ID_246_F1_19_F2_18_G_2_SplitPt_244_GenID_0'
p334
(lp335
(lp336
I41
aI118
aI245
aa(lp337
I18
aI192
aI499
aasS'ID_353_F1_10_F2_12_G_4_SplitPt_182_GenID_0'
p338
(lp339
(lp340
I23
aI173
aI500
aa(lp341
I6
aI1
aI360
aasS'ID_113_F1_12_F2_5_G_3_SplitPt_67_GenID_0'
p342
(lp343
(lp344
I42
aI1
aI67
aa(lp345
I16
aI67
aI500
aasS'ID_476_F1_16_F2_19_G_2_SplitPt_174_GenID_0'
p346
(lp347
(lp348
I1
aI173
aI499
aa(lp349
I14
aI1
aI201
aasS'f11_21'
p350
(lp351
(lp352
I10
aI1
aI500
aasS'f16_11'
p353
(lp354
(lp355
I14
aI2
aI500
aasS'ID_472_F1_12_F2_8_G_1_SplitPt_56_GenID_0'
p356
(lp357
(lp358
I5
aI53
aI497
aasS'ID_46_F1_1_F2_8_G_4_SplitPt_154_GenID_0'
p359
(lp360
(lp361
I43
aI1
aI227
aa(lp362
I5
aI104
aI500
aasS'f11_25'
p363
(lp364
(lp365
I10
aI1
aI500
aasS'ID_359_F1_13_F2_0_G_0_SplitPt_213_GenID_0'
p366
(lp367
(lp368
I44
aI216
aI354
aasS'f11_29'
p369
(lp370
(lp371
I10
aI1
aI500
aasS'f11_28'
p372
(lp373
(lp374
I10
aI1
aI500
aasS'ID_75_F1_15_F2_19_G_2_SplitPt_180_GenID_0'
p375
(lp376
(lp377
I1
aI153
aI500
aa(lp378
I6
aI2
aI192
aasS'ID_302_F1_17_F2_15_G_2_SplitPt_247_GenID_0'
p379
(lp380
(lp381
I9
aI1
aI277
aa(lp382
I6
aI184
aI500
aasS'ID_259_F1_19_F2_9_G_4_SplitPt_149_GenID_0'
p383
(lp384
(lp385
I1
aI1
aI176
aa(lp386
I28
aI123
aI500
aasS'ID_505_F1_16_F2_9_G_0_SplitPt_142_GenID_0'
p387
(lp388
(lp389
I28
aI143
aI497
aasS'ID_379_F1_14_F2_15_G_0_SplitPt_60_GenID_0'
p390
(lp391
(lp392
I6
aI10
aI483
aasS'f4_31'
p393
(lp394
(lp395
I21
aI1
aI248
aa(lp396
I19
aI75
aI500
aasS'f4_30'
p397
(lp398
(lp399
I21
aI1
aI248
aa(lp400
I19
aI50
aI500
aasS'ID_490_F1_16_F2_6_G_2_SplitPt_121_GenID_0'
p401
(lp402
(lp403
I27
aI102
aI497
aa(lp404
I14
aI3
aI171
aasS'f15_9'
p405
(lp406
(lp407
I6
aI1
aI500
aasS'ID_293_F1_11_F2_18_G_1_SplitPt_52_GenID_0'
p408
(lp409
(lp410
I18
aI62
aI496
aasS'f15_14'
p411
(lp412
(lp413
I6
aI1
aI500
aasS'ID_29_F1_16_F2_16_G_4_SplitPt_115_GenID_0'
p414
(lp415
(lp416
I14
aI1
aI500
aasS'ID_172_F1_11_F2_11_G_1_SplitPt_227_GenID_0'
p417
(lp418
(lp419
I10
aI1
aI492
aasS'f10_21'
p420
(lp421
(lp422
I6
aI1
aI500
aasS'ID_95_F1_16_F2_0_G_2_SplitPt_128_GenID_0'
p423
(lp424
(lp425
I4
aI58
aI500
aa(lp426
I14
aI2
aI136
aasS'ID_230_F1_4_F2_2_G_3_SplitPt_248_GenID_0'
p427
(lp428
(lp429
I45
aI44
aI90
aa(lp430
I26
aI248
aI499
aasS'ID_180_F1_15_F2_7_G_2_SplitPt_180_GenID_0'
p431
(lp432
(lp433
I12
aI154
aI500
aa(lp434
I6
aI1
aI331
aasS'ID_204_F1_2_F2_8_G_1_SplitPt_50_GenID_0'
p435
(lp436
(lp437
I5
aI51
aI500
aasS'ID_177_F1_4_F2_16_G_2_SplitPt_118_GenID_0'
p438
(lp439
(lp440
I46
aI1
aI134
aa(lp441
I14
aI108
aI498
aasS'f8_7'
p442
(lp443
(lp444
I5
aI2
aI497
aasS'ID_433_F1_6_F2_16_G_2_SplitPt_134_GenID_0'
p445
(lp446
(lp447
I27
aI1
aI137
aa(lp448
I14
aI112
aI497
aasS'f7_22'
p449
(lp450
(lp451
I47
aI1
aI76
aa(lp452
I48
aI5
aI157
aa(lp453
I12
aI55
aI500
aasS'ID_173_F1_19_F2_15_G_0_SplitPt_50_GenID_0'
p454
(lp455
(lp456
I22
aI300
aI438
aasS'ID_231_F1_14_F2_11_G_2_SplitPt_218_GenID_0'
p457
(lp458
(lp459
I2
aI2
aI223
aa(lp460
I10
aI173
aI500
aasS'f7_21'
p461
(lp462
(lp463
I47
aI1
aI68
aa(lp464
I12
aI14
aI500
aasS'ID_243_F1_15_F2_10_G_0_SplitPt_75_GenID_0'
p465
(lp466
(lp467
I6
aI18
aI446
aasS'f14_5'
p468
(lp469
(lp470
I2
aI4
aI500
aasS'f7_20'
p471
(lp472
(lp473
I47
aI1
aI73
aa(lp474
I12
aI13
aI500
aasS'f14_4'
p475
(lp476
(lp477
I2
aI1
aI497
aasS'f7_27'
p478
(lp479
(lp480
I12
aI1
aI500
aasS'f14_7'
p481
(lp482
(lp483
I2
aI1
aI500
aasS'f8_2'
p484
(lp485
(lp486
I5
aI1
aI495
aasS'ID_441_F1_2_F2_2_G_1_SplitPt_64_GenID_0'
p487
(lp488
(lp489
I26
aI2
aI495
aasS'ID_213_F1_3_F2_14_G_3_SplitPt_239_GenID_0'
p490
(lp491
(lp492
I49
aI65
aI179
aa(lp493
I2
aI228
aI500
aasS'f14_6'
p494
(lp495
(lp496
I2
aI1
aI499
aasS'f7_25'
p497
(lp498
(lp499
I12
aI28
aI500
aasS'f8_27'
p500
(lp501
(lp502
I5
aI3
aI500
aasS'ID_140_F1_10_F2_6_G_2_SplitPt_149_GenID_0'
p503
(lp504
(lp505
I27
aI97
aI500
aa(lp506
I6
aI1
aI150
aasS'f14_1'
p507
(lp508
(lp509
I2
aI1
aI500
aasS'ID_479_F1_3_F2_16_G_2_SplitPt_188_GenID_0'
p510
(lp511
(lp512
I50
aI114
aI189
aa(lp513
I14
aI167
aI500
aasS'f8_24'
p514
(lp515
(lp516
I5
aI1
aI500
aasS'ID_228_F1_4_F2_2_G_0_SplitPt_145_GenID_0'
p517
(lp518
(lp519
I26
aI143
aI496
aasS'ID_338_F1_15_F2_2_G_0_SplitPt_224_GenID_0'
p520
(lp521
(lp522
I26
aI209
aI496
aasS'f8_0'
p523
(lp524
(lp525
I5
aI1
aI500
aasS'ID_158_F1_5_F2_7_G_3_SplitPt_107_GenID_0'
p526
(lp527
(lp528
I51
aI1
aI107
aa(lp529
I12
aI108
aI500
aa(lp530
I16
aI15
aI210
aasS'ID_413_F1_8_F2_4_G_0_SplitPt_56_GenID_0'
p531
(lp532
(lp533
I52
aI57
aI116
aasS'ID_59_F1_14_F2_12_G_1_SplitPt_186_GenID_0'
p534
(lp535
(lp536
I23
aI186
aI500
aa(lp537
I2
aI8
aI233
aasS'ID_307_F1_7_F2_3_G_3_SplitPt_98_GenID_0'
p538
(lp539
(lp540
I12
aI1
aI119
aa(lp541
I3
aI61
aI500
aasS'f14_30'
p542
(lp543
(lp544
I53
aI357
aI492
aasS'ID_18_F1_19_F2_8_G_1_SplitPt_97_GenID_0'
p545
(lp546
(lp547
I5
aI92
aI497
aasS'f8_22'
p548
(lp549
(lp550
I5
aI1
aI500
aasS'ID_342_F1_18_F2_12_G_3_SplitPt_135_GenID_0'
p551
(lp552
(lp553
I54
aI86
aI149
aa(lp554
I55
aI144
aI215
aasS'f16_25'
p555
(lp556
(lp557
I14
aI3
aI500
aasS'f1_20'
p558
(lp559
(lp560
I18
aI1
aI499
aasS'ID_337_F1_0_F2_0_G_2_SplitPt_149_GenID_0'
p561
(lp562
(lp563
I4
aI3
aI499
aasS'f8_23'
p564
(lp565
(lp566
I5
aI1
aI499
aasS'f15_16'
p567
(lp568
(lp569
I6
aI5
aI500
aasS'ID_434_F1_2_F2_3_G_2_SplitPt_230_GenID_0'
p570
(lp571
(lp572
I26
aI1
aI233
aa(lp573
I3
aI232
aI483
aasS'f19_29'
p574
(lp575
(lp576
I56
aI337
aI477
aasS'f19_28'
p577
(lp578
(lp579
I1
aI1
aI495
aasS'ID_501_F1_16_F2_5_G_1_SplitPt_166_GenID_0'
p580
(lp581
(lp582
I14
aI1
aI167
aa(lp583
I16
aI174
aI500
aasS'ID_240_F1_0_F2_8_G_2_SplitPt_112_GenID_0'
p584
(lp585
(lp586
I4
aI3
aI112
aa(lp587
I5
aI115
aI497
aasS'ID_343_F1_6_F2_9_G_1_SplitPt_64_GenID_0'
p588
(lp589
(lp590
I28
aI64
aI494
aasS'f15_11'
p591
(lp592
(lp593
I57
aI1
aI59
aasS'f19_23'
p594
(lp595
(lp596
I58
aI1
aI67
aa(lp597
I1
aI2
aI500
aasS'f19_22'
p598
(lp599
(lp600
I58
aI1
aI67
aa(lp601
I1
aI8
aI500
aasS'f19_21'
p602
(lp603
(lp604
I58
aI2
aI67
aasS'f19_20'
p605
(lp606
(lp607
I1
aI2
aI500
aasS'f19_27'
p608
(lp609
(lp610
I1
aI1
aI500
aasS'f19_26'
p611
(lp612
(lp613
I1
aI1
aI500
aasS'ID_147_F1_15_F2_2_G_3_SplitPt_184_GenID_0'
p614
(lp615
(lp616
I26
aI135
aI500
aa(lp617
I6
aI2
aI204
aasS'f19_24'
p618
(lp619
(lp620
I1
aI1
aI498
aasS'ID_481_F1_11_F2_17_G_1_SplitPt_231_GenID_0'
p621
(lp622
(lp623
I9
aI211
aI499
aa(lp624
I10
aI13
aI252
aasS'ID_267_F1_8_F2_11_G_0_SplitPt_95_GenID_0'
p625
(lp626
(lp627
I10
aI60
aI500
aasS'ID_45_F1_2_F2_0_G_1_SplitPt_133_GenID_0'
p628
(lp629
(lp630
I26
aI9
aI129
aa(lp631
I4
aI125
aI500
aasS'f10_28'
p632
(lp633
(lp634
I6
aI1
aI500
aasS'ID_62_F1_1_F2_4_G_0_SplitPt_242_GenID_0'
p635
(lp636
(lp637
I19
aI263
aI486
aa(lp638
I18
aI4
aI177
aasS'ID_153_F1_2_F2_11_G_2_SplitPt_188_GenID_0'
p639
(lp640
(lp641
I30
aI8
aI188
aa(lp642
I10
aI165
aI500
aasS'ID_141_F1_6_F2_4_G_4_SplitPt_65_GenID_0'
p643
(lp644
(lp645
I59
aI1
aI65
aa(lp646
I19
aI50
aI500
aasS'f10_24'
p647
(lp648
(lp649
I60
aI1
aI74
aasS'f10_25'
p650
(lp651
(lp652
I60
aI1
aI80
aasS'f10_26'
p653
(lp654
(lp655
I60
aI1
aI80
aa(lp656
I6
aI15
aI500
aasS'f10_27'
p657
(lp658
(lp659
I60
aI1
aI78
aasS'f10_20'
p660
(lp661
(lp662
I6
aI1
aI500
aasS'ID_256_F1_4_F2_17_G_4_SplitPt_143_GenID_0'
p663
(lp664
(lp665
I19
aI1
aI151
aa(lp666
I9
aI97
aI500
aasS'f10_22'
p667
(lp668
(lp669
I6
aI1
aI500
aasS'ID_467_F1_4_F2_8_G_3_SplitPt_206_GenID_0'
p670
(lp671
(lp672
I19
aI1
aI240
aa(lp673
I5
aI199
aI500
aasS'ID_156_F1_4_F2_4_G_1_SplitPt_196_GenID_0'
p674
(lp675
(lp676
I19
aI2
aI500
aasS'ID_445_F1_10_F2_8_G_1_SplitPt_214_GenID_0'
p677
(lp678
(lp679
I5
aI206
aI497
aa(lp680
I6
aI1
aI269
aasS'f0_28'
p681
(lp682
(lp683
I44
aI216
aI354
aa(lp684
I61
aI2
aI131
aasS'f3_31'
p685
(lp686
(lp687
I3
aI1
aI500
aasS'ID_77_F1_15_F2_3_G_0_SplitPt_66_GenID_0'
p688
(lp689
(lp690
I3
aI33
aI500
aasS'ID_429_F1_6_F2_16_G_0_SplitPt_102_GenID_0'
p691
(lp692
(lp693
I14
aI109
aI465
aasS'f13_10'
p694
(lp695
(lp696
I62
aI380
aI497
aasS'ID_497_F1_14_F2_18_G_4_SplitPt_79_GenID_0'
p697
(lp698
(lp699
I54
aI86
aI153
aa(lp700
I2
aI1
aI115
aasS'f13_12'
p701
(lp702
(lp703
I17
aI1
aI483
aasS'f13_13'
p704
(lp705
(lp706
I17
aI1
aI493
aasS'f13_14'
p707
(lp708
(lp709
I17
aI1
aI498
aasS'f13_15'
p710
(lp711
(lp712
I17
aI3
aI496
aasS'f13_16'
p713
(lp714
(lp715
I17
aI1
aI500
aasS'f13_17'
p716
(lp717
(lp718
I17
aI4
aI498
aasS'f13_18'
p719
(lp720
(lp721
I63
aI376
aI488
aasS'f13_19'
p722
(lp723
(lp724
I17
aI30
aI499
aasS'f16_9'
p725
(lp726
(lp727
I14
aI1
aI500
aasS'ID_371_F1_18_F2_0_G_2_SplitPt_76_GenID_0'
p728
(lp729
(lp730
I4
aI66
aI497
aasS'f0_25'
p731
(lp732
(lp733
I4
aI30
aI500
aasS'ID_58_F1_1_F2_19_G_3_SplitPt_154_GenID_0'
p734
(lp735
(lp736
I43
aI1
aI234
aa(lp737
I1
aI108
aI496
aasS'ID_404_F1_13_F2_15_G_2_SplitPt_58_GenID_0'
p738
(lp739
(lp740
I6
aI44
aI500
aasS'ID_91_F1_9_F2_1_G_1_SplitPt_229_GenID_0'
p741
(lp742
(lp743
I28
aI2
aI248
aa(lp744
I18
aI198
aI458
aasS'f16_4'
p745
(lp746
(lp747
I14
aI1
aI500
aasS'ID_30_F1_15_F2_5_G_3_SplitPt_141_GenID_0'
p748
(lp749
(lp750
I16
aI99
aI500
aa(lp751
I6
aI1
aI180
aasS'ID_101_F1_7_F2_9_G_2_SplitPt_67_GenID_0'
p752
(lp753
(lp754
I12
aI3
aI69
aa(lp755
I28
aI42
aI500
aasS'f18_26'
p756
(lp757
(lp758
I64
aI5
aI236
aa(lp759
I18
aI10
aI494
aasS'f18_27'
p760
(lp761
(lp762
I64
aI5
aI248
aasS'f18_20'
p763
(lp764
(lp765
I65
aI1
aI191
aa(lp766
I18
aI23
aI500
aasS'ID_471_F1_4_F2_10_G_2_SplitPt_169_GenID_0'
p767
(lp768
(lp769
I21
aI2
aI158
aa(lp770
I6
aI168
aI500
aasS'f18_22'
p771
(lp772
(lp773
I66
aI1
aI73
aa(lp774
I18
aI23
aI500
aasS'f18_23'
p775
(lp776
(lp777
I65
aI2
aI194
aa(lp778
I18
aI3
aI500
aasS'ID_192_F1_11_F2_1_G_2_SplitPt_169_GenID_0'
p779
(lp780
(lp781
I10
aI7
aI168
aa(lp782
I18
aI165
aI500
aasS'f0_21'
p783
(lp784
(lp785
I4
aI1
aI500
aasS'f18_28'
p786
(lp787
(lp788
I64
aI1
aI233
aa(lp789
I18
aI98
aI495
aasS'f18_29'
p790
(lp791
(lp792
I64
aI1
aI227
aa(lp793
I18
aI103
aI499
aasS'ID_79_F1_14_F2_8_G_1_SplitPt_249_GenID_0'
p794
(lp795
(lp796
I2
aI2
aI248
aa(lp797
I5
aI242
aI478
aasS'ID_104_F1_19_F2_9_G_4_SplitPt_206_GenID_0'
p798
(lp799
(lp800
I1
aI1
aI243
aa(lp801
I28
aI194
aI500
aasS'f11_19'
p802
(lp803
(lp804
I10
aI1
aI500
aasS'ID_151_F1_3_F2_9_G_4_SplitPt_222_GenID_0'
p805
(lp806
(lp807
I67
aI152
aI213
aa(lp808
I28
aI210
aI500
aasS'ID_170_F1_14_F2_9_G_2_SplitPt_157_GenID_0'
p809
(lp810
(lp811
I2
aI1
aI171
aa(lp812
I28
aI138
aI500
aasS'f11_12'
p813
(lp814
(lp815
I10
aI1
aI497
aasS'f11_13'
p816
(lp817
(lp818
I10
aI1
aI497
aasS'ID_432_F1_0_F2_3_G_2_SplitPt_132_GenID_0'
p819
(lp820
(lp821
I61
aI2
aI136
aa(lp822
I3
aI126
aI500
aasS'ID_22_F1_5_F2_5_G_1_SplitPt_147_GenID_0'
p823
(lp824
(lp825
I16
aI6
aI500
aasS'f11_16'
p826
(lp827
(lp828
I68
aI375
aI495
aasS'ID_309_F1_15_F2_6_G_1_SplitPt_50_GenID_0'
p829
(lp830
(lp831
I27
aI48
aI498
aasS'f11_14'
p832
(lp833
(lp834
I10
aI2
aI500
aasS'f11_15'
p835
(lp836
(lp837
I10
aI4
aI500
aasS'ID_313_F1_0_F2_4_G_0_SplitPt_187_GenID_0'
p838
(lp839
(lp840
I19
aI87
aI500
aasS'f3_15'
p841
(lp842
(lp843
I3
aI1
aI500
aasS'f3_13'
p844
(lp845
(lp846
I3
aI1
aI500
aasS'f5_19'
p847
(lp848
(lp849
I16
aI1
aI500
aasS'f9_10'
p850
(lp851
(lp852
I28
aI1
aI500
aasS'f9_11'
p853
(lp854
(lp855
I28
aI1
aI500
aasS'f9_12'
p856
(lp857
(lp858
I28
aI2
aI500
aasS'f9_13'
p859
(lp860
(lp861
I28
aI1
aI500
aasS'ID_469_F1_8_F2_19_G_4_SplitPt_222_GenID_0'
p862
(lp863
(lp864
I69
aI172
aI221
aa(lp865
I1
aI175
aI500
aasS'f9_18'
p866
(lp867
(lp868
I28
aI1
aI500
aasS'f14_29'
p869
(lp870
(lp871
I2
aI1
aI500
aasS'f17_24'
p872
(lp873
(lp874
I9
aI1
aI500
aasS'f14_21'
p875
(lp876
(lp877
I2
aI1
aI500
aasS'ID_237_F1_14_F2_8_G_1_SplitPt_178_GenID_0'
p878
(lp879
(lp880
I5
aI172
aI500
aasS'ID_116_F1_10_F2_8_G_0_SplitPt_164_GenID_0'
p881
(lp882
(lp883
I6
aI1
aI142
aasS'ID_322_F1_5_F2_11_G_0_SplitPt_63_GenID_0'
p884
(lp885
(lp886
I10
aI54
aI490
aasS'ID_351_F1_10_F2_11_G_4_SplitPt_140_GenID_0'
p887
(lp888
(lp889
I10
aI52
aI500
aa(lp890
I6
aI1
aI149
aasS'f7_16'
p891
(lp892
(lp893
I70
aI1
aI74
aa(lp894
I12
aI43
aI500
aasS'f7_17'
p895
(lp896
(lp897
I70
aI1
aI50
aa(lp898
I12
aI70
aI500
aasS'f7_14'
p899
(lp900
(lp901
I12
aI1
aI500
aasS'ID_352_F1_15_F2_5_G_3_SplitPt_142_GenID_0'
p902
(lp903
(lp904
I37
aI78
aI141
aa(lp905
I16
aI98
aI500
aasS'f7_12'
p906
(lp907
(lp908
I71
aI214
aI378
aasS'ID_327_F1_6_F2_4_G_2_SplitPt_139_GenID_0'
p909
(lp910
(lp911
I40
aI150
aI209
aa(lp912
I27
aI1
aI161
aasS'ID_373_F1_15_F2_5_G_1_SplitPt_153_GenID_0'
p913
(lp914
(lp915
I24
aI4
aI113
aa(lp916
I16
aI56
aI500
aasS'f7_11'
p917
(lp918
(lp919
I12
aI1
aI500
aasS'f5_10'
p920
(lp921
(lp922
I16
aI3
aI500
aasS'f5_11'
p923
(lp924
(lp925
I16
aI2
aI500
aasS'f5_12'
p926
(lp927
(lp928
I16
aI2
aI500
aasS'f5_13'
p929
(lp930
(lp931
I16
aI12
aI500
aasS'f5_14'
p932
(lp933
(lp934
I13
aI196
aI288
aasS'f5_15'
p935
(lp936
(lp937
I16
aI44
aI500
aasS'f7_18'
p938
(lp939
(lp940
I48
aI1
aI139
aa(lp941
I12
aI44
aI500
aasS'f7_19'
p942
(lp943
(lp944
I48
aI1
aI152
aasS'f15_24'
p945
(lp946
(lp947
I6
aI7
aI499
aasS'ID_94_F1_6_F2_14_G_2_SplitPt_92_GenID_0'
p948
(lp949
(lp950
I27
aI2
aI115
aa(lp951
I2
aI97
aI500
aasS'ID_183_F1_9_F2_4_G_2_SplitPt_218_GenID_0'
p952
(lp953
(lp954
I19
aI133
aI500
aa(lp955
I28
aI5
aI243
aasS'ID_258_F1_3_F2_11_G_2_SplitPt_161_GenID_0'
p956
(lp957
(lp958
I3
aI1
aI181
aa(lp959
I10
aI162
aI500
aasS'ID_493_F1_15_F2_10_G_2_SplitPt_143_GenID_0'
p960
(lp961
(lp962
I6
aI1
aI500
aasS'f3_11'
p963
(lp964
(lp965
I3
aI1
aI500
aasS'f9_25'
p966
(lp967
(lp968
I28
aI7
aI500
aasS'f11_8'
p969
(lp970
(lp971
I10
aI1
aI500
aasS'f12_31'
p972
(lp973
(lp974
I23
aI1
aI499
aasS'f12_30'
p975
(lp976
(lp977
I23
aI1
aI499
aasS'f18_24'
p978
(lp979
(lp980
I18
aI103
aI500
aasS'ID_26_F1_4_F2_17_G_0_SplitPt_54_GenID_0'
p981
(lp982
(lp983
I9
aI24
aI481
aasS'ID_391_F1_13_F2_2_G_2_SplitPt_184_GenID_0'
p984
(lp985
(lp986
I72
aI2
aI75
aa(lp987
I26
aI183
aI500
aasS'f9_8'
p988
(lp989
(lp990
I28
aI9
aI500
aasS'f18_15'
p991
(lp992
(lp993
I18
aI5
aI498
aasS'ID_478_F1_13_F2_15_G_3_SplitPt_87_GenID_0'
p994
(lp995
(lp996
I73
aI384
aI490
aa(lp997
I72
aI2
aI83
aa(lp998
I74
aI4
aI234
aasS'ID_187_F1_8_F2_1_G_4_SplitPt_106_GenID_0'
p999
(lp1000
(lp1001
I75
aI1
aI142
aa(lp1002
I18
aI107
aI500
aasS'f9_9'
p1003
(lp1004
(lp1005
I28
aI5
aI500
aasS'f3_16'
p1006
(lp1007
(lp1008
I3
aI1
aI500
aasS'f9_24'
p1009
(lp1010
(lp1011
I28
aI7
aI500
aasS'ID_146_F1_2_F2_11_G_3_SplitPt_160_GenID_0'
p1012
(lp1013
(lp1014
I26
aI1
aI225
aa(lp1015
I10
aI118
aI500
aasS'ID_440_F1_4_F2_9_G_3_SplitPt_181_GenID_0'
p1016
(lp1017
(lp1018
I19
aI1
aI219
aa(lp1019
I28
aI159
aI500
aasS'f5_9'
p1020
(lp1021
(lp1022
I16
aI10
aI497
aasS'ID_236_F1_0_F2_4_G_0_SplitPt_154_GenID_0'
p1023
(lp1024
(lp1025
I19
aI149
aI441
aasS'f9_7'
p1026
(lp1027
(lp1028
I28
aI1
aI499
aasS'ID_330_F1_15_F2_9_G_0_SplitPt_75_GenID_0'
p1029
(lp1030
(lp1031
I28
aI55
aI496
aasS'ID_357_F1_5_F2_11_G_2_SplitPt_59_GenID_0'
p1032
(lp1033
(lp1034
I10
aI55
aI500
aasS'ID_33_F1_19_F2_7_G_4_SplitPt_239_GenID_0'
p1035
(lp1036
(lp1037
I12
aI235
aI500
aa(lp1038
I1
aI1
aI240
aasS'f18_21'
p1039
(lp1040
(lp1041
I66
aI1
aI83
aa(lp1042
I18
aI154
aI500
aasS'f11_23'
p1043
(lp1044
(lp1045
I10
aI1
aI500
aasS'f13_6'
p1046
(lp1047
(lp1048
I76
aI321
aI478
aasS'f9_5'
p1049
(lp1050
(lp1051
I28
aI1
aI500
aasS'ID_270_F1_10_F2_14_G_2_SplitPt_96_GenID_0'
p1052
(lp1053
(lp1054
I2
aI37
aI500
aa(lp1055
I6
aI1
aI134
aasS'f13_7'
p1056
(lp1057
(lp1058
I17
aI1
aI471
aasS'f9_2'
p1059
(lp1060
(lp1061
I28
aI1
aI500
aasS'ID_247_F1_18_F2_6_G_1_SplitPt_123_GenID_0'
p1062
(lp1063
(lp1064
I27
aI121
aI499
aasS'ID_388_F1_11_F2_16_G_4_SplitPt_74_GenID_0'
p1065
(lp1066
(lp1067
I14
aI51
aI500
aa(lp1068
I10
aI1
aI99
aasS'ID_185_F1_8_F2_3_G_4_SplitPt_140_GenID_0'
p1069
(lp1070
(lp1071
I50
aI120
aI189
aa(lp1072
I77
aI138
aI234
aa(lp1073
I5
aI1
aI143
aasS'ID_263_F1_3_F2_9_G_1_SplitPt_119_GenID_0'
p1074
(lp1075
(lp1076
I3
aI1
aI114
aa(lp1077
I28
aI107
aI499
aasS'f1_17'
p1078
(lp1079
(lp1080
I18
aI1
aI500
aasS'ID_326_F1_7_F2_3_G_4_SplitPt_157_GenID_0'
p1081
(lp1082
(lp1083
I78
aI71
aI157
aa(lp1084
I77
aI132
aI240
aa(lp1085
I47
aI1
aI73
aasS'f16_24'
p1086
(lp1087
(lp1088
I14
aI1
aI499
aasS'ID_86_F1_18_F2_11_G_2_SplitPt_214_GenID_0'
p1089
(lp1090
(lp1091
I10
aI161
aI500
aa(lp1092
I18
aI1
aI279
aasS'f9_1'
p1093
(lp1094
(lp1095
I28
aI7
aI500
aasS'f10_14'
p1096
(lp1097
(lp1098
I6
aI11
aI500
aasS'ID_223_F1_13_F2_5_G_4_SplitPt_162_GenID_0'
p1099
(lp1100
(lp1101
I72
aI4
aI83
aa(lp1102
I16
aI147
aI500
aasS'ID_39_F1_13_F2_10_G_4_SplitPt_173_GenID_0'
p1103
(lp1104
(lp1105
I17
aI1
aI209
aa(lp1106
I6
aI65
aI500
aasS'ID_120_F1_10_F2_0_G_2_SplitPt_83_GenID_0'
p1107
(lp1108
(lp1109
I4
aI62
aI500
aasS'ID_71_F1_12_F2_12_G_4_SplitPt_247_GenID_0'
p1110
(lp1111
(lp1112
I23
aI3
aI500
aasS'ID_449_F1_9_F2_15_G_3_SplitPt_144_GenID_0'
p1113
(lp1114
(lp1115
I73
aI384
aI490
aa(lp1116
I28
aI1
aI222
aasS'ID_344_F1_5_F2_9_G_1_SplitPt_137_GenID_0'
p1117
(lp1118
(lp1119
I16
aI3
aI135
aa(lp1120
I28
aI136
aI495
aasS'ID_207_F1_2_F2_10_G_0_SplitPt_70_GenID_0'
p1121
(lp1122
(lp1123
I6
aI74
aI500
aasS'ID_214_F1_17_F2_7_G_2_SplitPt_183_GenID_0'
p1124
(lp1125
(lp1126
I12
aI153
aI500
aa(lp1127
I9
aI1
aI187
aasS'ID_349_F1_5_F2_0_G_2_SplitPt_176_GenID_0'
p1128
(lp1129
(lp1130
I4
aI164
aI500
aa(lp1131
I16
aI3
aI176
aasS'ID_105_F1_2_F2_3_G_2_SplitPt_109_GenID_0'
p1132
(lp1133
(lp1134
I26
aI13
aI108
aa(lp1135
I3
aI57
aI500
aasS'f15_18'
p1136
(lp1137
(lp1138
I6
aI1
aI500
aasS'ID_61_F1_14_F2_12_G_0_SplitPt_175_GenID_0'
p1139
(lp1140
(lp1141
I79
aI190
aI314
aasS'ID_78_F1_7_F2_15_G_3_SplitPt_142_GenID_0'
p1142
(lp1143
(lp1144
I48
aI4
aI160
aa(lp1145
I6
aI143
aI500
aasS'ID_274_F1_6_F2_9_G_2_SplitPt_154_GenID_0'
p1146
(lp1147
(lp1148
I27
aI1
aI160
aa(lp1149
I28
aI121
aI500
aasS'f7_4'
p1150
(lp1151
(lp1152
I12
aI1
aI486
aasS'ID_436_F1_7_F2_19_G_4_SplitPt_73_GenID_0'
p1153
(lp1154
(lp1155
I80
aI1
aI73
aa(lp1156
I1
aI55
aI500
aasS'f7_6'
p1157
(lp1158
(lp1159
I12
aI3
aI500
aasS'f7_7'
p1160
(lp1161
(lp1162
I12
aI4
aI500
aasS'f7_0'
p1163
(lp1164
(lp1165
I12
aI1
aI500
aasS'f7_1'
p1166
(lp1167
(lp1168
I12
aI1
aI500
aasS'ID_117_F1_16_F2_14_G_4_SplitPt_54_GenID_0'
p1169
(lp1170
(lp1171
I8
aI1
aI90
aa(lp1172
I2
aI17
aI500
aasS'ID_103_F1_6_F2_18_G_1_SplitPt_111_GenID_0'
p1173
(lp1174
(lp1175
I81
aI113
aI255
aasS'ID_197_F1_14_F2_13_G_2_SplitPt_201_GenID_0'
p1176
(lp1177
(lp1178
I82
aI86
aI175
aasS'ID_320_F1_5_F2_10_G_1_SplitPt_207_GenID_0'
p1179
(lp1180
(lp1181
I83
aI343
aI494
aa(lp1182
I16
aI4
aI210
aasS'f7_8'
p1183
(lp1184
(lp1185
I84
aI11
aI78
aasS'f7_9'
p1186
(lp1187
(lp1188
I84
aI1
aI68
aasS'f9_16'
p1189
(lp1190
(lp1191
I28
aI4
aI500
aasS'ID_220_F1_16_F2_8_G_1_SplitPt_214_GenID_0'
p1192
(lp1193
(lp1194
I14
aI1
aI242
aasS'ID_354_F1_0_F2_9_G_2_SplitPt_74_GenID_0'
p1195
(lp1196
(lp1197
I28
aI46
aI500
aasS'f15_19'
p1198
(lp1199
(lp1200
I6
aI1
aI495
aasS'f2_7'
p1201
(lp1202
(lp1203
I26
aI2
aI496
aasS'ID_294_F1_11_F2_6_G_2_SplitPt_244_GenID_0'
p1204
(lp1205
(lp1206
I27
aI246
aI500
aa(lp1207
I10
aI1
aI255
aasS'f14_31'
p1208
(lp1209
(lp1210
I2
aI1
aI500
aasS'f2_6'
p1211
(lp1212
(lp1213
I26
aI1
aI500
aasS'f16_8'
p1214
(lp1215
(lp1216
I14
aI2
aI499
aasS'f10_11'
p1217
(lp1218
(lp1219
I6
aI1
aI497
aasS'f19_12'
p1220
(lp1221
(lp1222
I1
aI1
aI500
aasS'f19_13'
p1223
(lp1224
(lp1225
I1
aI1
aI500
aasS'f5_8'
p1226
(lp1227
(lp1228
I33
aI233
aI332
aasS'f19_11'
p1229
(lp1230
(lp1231
I1
aI11
aI500
aasS'f19_16'
p1232
(lp1233
(lp1234
I1
aI1
aI500
aasS'f19_17'
p1235
(lp1236
(lp1237
I1
aI2
aI500
aasS'f19_14'
p1238
(lp1239
(lp1240
I85
aI186
aI353
aasS'f19_15'
p1241
(lp1242
(lp1243
I1
aI2
aI500
aasS'f5_2'
p1244
(lp1245
(lp1246
I51
aI1
aI103
aa(lp1247
I16
aI5
aI500
aasS'f5_3'
p1248
(lp1249
(lp1250
I51
aI1
aI107
aa(lp1251
I16
aI6
aI500
aasS'f6_31'
p1252
(lp1253
(lp1254
I27
aI2
aI497
aasS'f6_30'
p1255
(lp1256
(lp1257
I86
aI112
aI247
aasS'f5_6'
p1258
(lp1259
(lp1260
I16
aI1
aI500
aasS'ID_288_F1_19_F2_14_G_3_SplitPt_67_GenID_0'
p1261
(lp1262
(lp1263
I87
aI68
aI147
aa(lp1264
I58
aI1
aI67
aasS'f5_4'
p1265
(lp1266
(lp1267
I16
aI1
aI500
aasS'f5_5'
p1268
(lp1269
(lp1270
I16
aI1
aI500
aasS'ID_308_F1_9_F2_1_G_1_SplitPt_250_GenID_0'
p1271
(lp1272
(lp1273
I28
aI1
aI250
aa(lp1274
I18
aI273
aI500
aasS'ID_387_F1_7_F2_2_G_4_SplitPt_137_GenID_0'
p1275
(lp1276
(lp1277
I48
aI1
aI144
aa(lp1278
I26
aI86
aI500
aasS'ID_291_F1_1_F2_1_G_1_SplitPt_139_GenID_0'
p1279
(lp1280
(lp1281
I18
aI2
aI497
aasS'f14_24'
p1282
(lp1283
(lp1284
I2
aI6
aI500
aasS'ID_227_F1_17_F2_12_G_0_SplitPt_174_GenID_0'
p1285
(lp1286
(lp1287
I79
aI190
aI287
aa(lp1288
I9
aI1
aI173
aa(lp1289
I23
aI191
aI490
aasS'f11_10'
p1290
(lp1291
(lp1292
I88
aI224
aI329
aasS'f11_24'
p1293
(lp1294
(lp1295
I10
aI1
aI500
aasS'ID_492_F1_14_F2_18_G_2_SplitPt_211_GenID_0'
p1296
(lp1297
(lp1298
I2
aI2
aI224
aa(lp1299
I18
aI212
aI500
aasS'f11_11'
p1300
(lp1301
(lp1302
I10
aI1
aI499
aasS'ID_206_F1_12_F2_12_G_3_SplitPt_183_GenID_0'
p1303
(lp1304
(lp1305
I23
aI3
aI441
aasS'ID_311_F1_0_F2_3_G_2_SplitPt_234_GenID_0'
p1306
(lp1307
(lp1308
I89
aI1
aI232
aa(lp1309
I3
aI232
aI500
aasS'ID_23_F1_3_F2_18_G_2_SplitPt_168_GenID_0'
p1310
(lp1311
(lp1312
I3
aI1
aI169
aa(lp1313
I18
aI159
aI499
aasS'f9_19'
p1314
(lp1315
(lp1316
I28
aI1
aI500
aasS'ID_21_F1_8_F2_7_G_1_SplitPt_235_GenID_0'
p1317
(lp1318
(lp1319
I12
aI244
aI499
aa(lp1320
I5
aI1
aI245
aasS'ID_175_F1_12_F2_14_G_1_SplitPt_176_GenID_0'
p1321
(lp1322
(lp1323
I23
aI3
aI176
aa(lp1324
I2
aI157
aI500
aasS'ID_139_F1_4_F2_5_G_4_SplitPt_170_GenID_0'
p1325
(lp1326
(lp1327
I45
aI44
aI90
aa(lp1328
I16
aI158
aI500
aasS'f11_17'
p1329
(lp1330
(lp1331
I10
aI1
aI500
aasS'ID_92_F1_10_F2_6_G_2_SplitPt_58_GenID_0'
p1332
(lp1333
(lp1334
I90
aI346
aI486
aasS'ID_166_F1_7_F2_2_G_4_SplitPt_51_GenID_0'
p1335
(lp1336
(lp1337
I31
aI221
aI320
aa(lp1338
I70
aI1
aI52
aasS'f11_31'
p1339
(lp1340
(lp1341
I10
aI1
aI500
aasS'ID_376_F1_15_F2_12_G_0_SplitPt_77_GenID_0'
p1342
(lp1343
(lp1344
I23
aI153
aI474
aasS'ID_486_F1_3_F2_18_G_2_SplitPt_118_GenID_0'
p1345
(lp1346
(lp1347
I91
aI119
aI192
aa(lp1348
I92
aI341
aI444
aa(lp1349
I3
aI2
aI120
aasS'ID_363_F1_1_F2_13_G_1_SplitPt_175_GenID_0'
p1350
(lp1351
(lp1352
I17
aI167
aI497
aa(lp1353
I18
aI2
aI190
aasS'ID_392_F1_5_F2_2_G_2_SplitPt_183_GenID_0'
p1354
(lp1355
(lp1356
I26
aI178
aI478
aa(lp1357
I16
aI1
aI214
aasS'ID_385_F1_19_F2_19_G_4_SplitPt_165_GenID_0'
p1358
(lp1359
(lp1360
I41
aI118
aI245
aa(lp1361
I36
aI1
aI72
aasS'ID_435_F1_16_F2_10_G_3_SplitPt_211_GenID_0'
p1362
(lp1363
(lp1364
I14
aI1
aI264
aa(lp1365
I6
aI206
aI500
aasS'f3_0'
p1366
(lp1367
(lp1368
I3
aI3
aI500
aasS'f3_1'
p1369
(lp1370
(lp1371
I3
aI2
aI500
aasS'f3_2'
p1372
(lp1373
(lp1374
I3
aI1
aI500
aasS'f3_3'
p1375
(lp1376
(lp1377
I3
aI1
aI500
aasS'f3_4'
p1378
(lp1379
(lp1380
I3
aI3
aI500
aasS'f3_5'
p1381
(lp1382
(lp1383
I3
aI2
aI500
aasS'f3_6'
p1384
(lp1385
(lp1386
I3
aI1
aI497
aasS'f3_7'
p1387
(lp1388
(lp1389
I3
aI1
aI497
aasS'f3_8'
p1390
(lp1391
(lp1392
I3
aI1
aI500
aasS'f3_9'
p1393
(lp1394
(lp1395
I3
aI1
aI500
aasS'ID_273_F1_14_F2_14_G_4_SplitPt_107_GenID_0'
p1396
(lp1397
(lp1398
I93
aI415
aI492
aasS'f8_28'
p1399
(lp1400
(lp1401
I5
aI1
aI499
aasS'f8_29'
p1402
(lp1403
(lp1404
I5
aI1
aI499
aasS'f1_6'
p1405
(lp1406
(lp1407
I43
aI1
aI153
aa(lp1408
I18
aI70
aI500
aasS'f1_7'
p1409
(lp1410
(lp1411
I43
aI1
aI173
aa(lp1412
I18
aI7
aI500
aasS'f1_4'
p1413
(lp1414
(lp1415
I43
aI3
aI199
aa(lp1416
I18
aI6
aI500
aasS'f1_5'
p1417
(lp1418
(lp1419
I43
aI1
aI153
aa(lp1420
I18
aI5
aI500
aasS'f1_2'
p1421
(lp1422
(lp1423
I43
aI1
aI225
aa(lp1424
I18
aI37
aI500
aasS'f1_3'
p1425
(lp1426
(lp1427
I43
aI1
aI225
aa(lp1428
I18
aI77
aI500
aasS'f1_0'
p1429
(lp1430
(lp1431
I43
aI1
aI217
aa(lp1432
I18
aI37
aI500
aasS'f1_1'
p1433
(lp1434
(lp1435
I43
aI1
aI180
aa(lp1436
I18
aI11
aI500
aasS'ID_448_F1_12_F2_5_G_3_SplitPt_84_GenID_0'
p1437
(lp1438
(lp1439
I23
aI2
aI87
aa(lp1440
I16
aI85
aI500
aasS'ID_508_F1_11_F2_17_G_1_SplitPt_192_GenID_0'
p1441
(lp1442
(lp1443
I9
aI198
aI499
aa(lp1444
I10
aI1
aI197
aasS'f1_8'
p1445
(lp1446
(lp1447
I18
aI2
aI500
aasS'ID_442_F1_11_F2_18_G_2_SplitPt_153_GenID_0'
p1448
(lp1449
(lp1450
I10
aI9
aI235
aa(lp1451
I18
aI141
aI500
aasS'ID_64_F1_14_F2_7_G_2_SplitPt_113_GenID_0'
p1452
(lp1453
(lp1454
I12
aI54
aI500
aa(lp1455
I2
aI1
aI127
aasS'ID_89_F1_3_F2_6_G_3_SplitPt_239_GenID_0'
p1456
(lp1457
(lp1458
I90
aI334
aI486
aa(lp1459
I77
aI127
aI229
aasS'f17_8'
p1460
(lp1461
(lp1462
I9
aI3
aI500
aasS'f14_23'
p1463
(lp1464
(lp1465
I2
aI1
aI500
aasS'ID_164_F1_12_F2_3_G_3_SplitPt_198_GenID_0'
p1466
(lp1467
(lp1468
I3
aI194
aI500
aa(lp1469
I23
aI1
aI233
aasS'f5_0'
p1470
(lp1471
(lp1472
I16
aI2
aI500
aasS'f9_6'
p1473
(lp1474
(lp1475
I28
aI1
aI499
aasS'ID_458_F1_4_F2_5_G_3_SplitPt_66_GenID_0'
p1476
(lp1477
(lp1478
I21
aI1
aI66
aa(lp1479
I16
aI58
aI500
aasS'f9_4'
p1480
(lp1481
(lp1482
I94
aI309
aI383
aasS'ID_285_F1_3_F2_3_G_4_SplitPt_68_GenID_0'
p1483
(lp1484
(lp1485
I3
aI1
aI500
aasS'ID_356_F1_7_F2_3_G_3_SplitPt_69_GenID_0'
p1486
(lp1487
(lp1488
I84
aI1
aI74
aa(lp1489
I3
aI70
aI498
aasS'f9_3'
p1490
(lp1491
(lp1492
I28
aI2
aI500
aasS'f9_0'
p1493
(lp1494
(lp1495
I28
aI5
aI500
aasS'f14_25'
p1496
(lp1497
(lp1498
I2
aI5
aI500
aasS'ID_255_F1_15_F2_14_G_4_SplitPt_68_GenID_0'
p1499
(lp1500
(lp1501
I11
aI64
aI107
aasS'ID_66_F1_8_F2_0_G_1_SplitPt_77_GenID_0'
p1502
(lp1503
(lp1504
I4
aI55
aI499
aasS'ID_133_F1_7_F2_4_G_3_SplitPt_223_GenID_0'
p1505
(lp1506
(lp1507
I95
aI351
aI500
aa(lp1508
I12
aI1
aI263
aasS'ID_249_F1_14_F2_4_G_4_SplitPt_109_GenID_0'
p1509
(lp1510
(lp1511
I19
aI106
aI500
aa(lp1512
I2
aI1
aI112
aasS'f14_27'
p1513
(lp1514
(lp1515
I2
aI1
aI497
aasS'f5_1'
p1516
(lp1517
(lp1518
I16
aI1
aI500
aasS'f17_9'
p1519
(lp1520
(lp1521
I9
aI1
aI499
aasS'ID_407_F1_19_F2_16_G_0_SplitPt_216_GenID_0'
p1522
(lp1523
(lp1524
I14
aI219
aI466
aasS'f7_13'
p1525
(lp1526
(lp1527
I12
aI1
aI488
aasS'f9_29'
p1528
(lp1529
(lp1530
I34
aI1
aI79
aasS'f9_28'
p1531
(lp1532
(lp1533
I34
aI1
aI93
aasS'f5_20'
p1534
(lp1535
(lp1536
I16
aI13
aI500
aasS'ID_370_F1_9_F2_10_G_2_SplitPt_109_GenID_0'
p1537
(lp1538
(lp1539
I83
aI343
aI494
aa(lp1540
I28
aI2
aI130
aasS'ID_456_F1_12_F2_1_G_1_SplitPt_118_GenID_0'
p1541
(lp1542
(lp1543
I23
aI2
aI212
aa(lp1544
I18
aI133
aI500
aasS'ID_212_F1_6_F2_3_G_1_SplitPt_127_GenID_0'
p1545
(lp1546
(lp1547
I27
aI3
aI141
aa(lp1548
I3
aI121
aI496
aasS'f9_26'
p1549
(lp1550
(lp1551
I28
aI25
aI500
aasS'f9_21'
p1552
(lp1553
(lp1554
I28
aI1
aI500
aasS'f9_20'
p1555
(lp1556
(lp1557
I28
aI1
aI500
aasS'f9_23'
p1558
(lp1559
(lp1560
I94
aI309
aI383
aasS'f9_22'
p1561
(lp1562
(lp1563
I28
aI1
aI500
aasS'f5_21'
p1564
(lp1565
(lp1566
I16
aI13
aI500
aasS'ID_195_F1_5_F2_4_G_3_SplitPt_205_GenID_0'
p1567
(lp1568
(lp1569
I19
aI187
aI500
aa(lp1570
I16
aI1
aI229
aasS'f5_23'
p1571
(lp1572
(lp1573
I16
aI9
aI500
aasS'f5_22'
p1574
(lp1575
(lp1576
I16
aI4
aI500
aasS'f5_25'
p1577
(lp1578
(lp1579
I16
aI1
aI500
aasS'f5_24'
p1580
(lp1581
(lp1582
I16
aI1
aI500
aasS'f5_27'
p1583
(lp1584
(lp1585
I16
aI9
aI500
aasS'f5_26'
p1586
(lp1587
(lp1588
I16
aI1
aI499
aasS'f5_29'
p1589
(lp1590
(lp1591
I16
aI1
aI500
aasS'f5_28'
p1592
(lp1593
(lp1594
I16
aI1
aI500
aasS'ID_465_F1_18_F2_16_G_1_SplitPt_55_GenID_0'
p1595
(lp1596
(lp1597
I14
aI173
aI500
aasS'ID_495_F1_1_F2_14_G_3_SplitPt_248_GenID_0'
p1598
(lp1599
(lp1600
I2
aI243
aI498
aa(lp1601
I18
aI1
aI316
aasS'f15_30'
p1602
(lp1603
(lp1604
I6
aI10
aI500
aasS'f4_28'
p1605
(lp1606
(lp1607
I21
aI1
aI236
aa(lp1608
I19
aI17
aI500
aasS'f4_29'
p1609
(lp1610
(lp1611
I95
aI351
aI497
aa(lp1612
I21
aI1
aI236
aasS'ID_296_F1_19_F2_7_G_1_SplitPt_67_GenID_0'
p1613
(lp1614
(lp1615
I12
aI63
aI500
aasS'f15_31'
p1616
(lp1617
(lp1618
I6
aI2
aI492
aasS'f4_22'
p1619
(lp1620
(lp1621
I52
aI57
aI116
aasS'f4_23'
p1622
(lp1623
(lp1624
I96
aI387
aI492
aa(lp1625
I46
aI1
aI245
aasS'f4_20'
p1626
(lp1627
(lp1628
I46
aI2
aI220
aa(lp1629
I19
aI17
aI500
aasS'f4_21'
p1630
(lp1631
(lp1632
I46
aI4
aI199
aa(lp1633
I19
aI61
aI500
aasS'f4_26'
p1634
(lp1635
(lp1636
I21
aI1
aI235
aa(lp1637
I19
aI57
aI500
aasS'f4_27'
p1638
(lp1639
(lp1640
I21
aI2
aI248
aa(lp1641
I19
aI17
aI500
aasS'f4_24'
p1642
(lp1643
(lp1644
I21
aI1
aI235
aa(lp1645
I19
aI51
aI499
aasS'f4_25'
p1646
(lp1647
(lp1648
I21
aI1
aI244
aa(lp1649
I19
aI40
aI500
aasS'ID_269_F1_18_F2_3_G_0_SplitPt_96_GenID_0'
p1650
(lp1651
(lp1652
I3
aI114
aI470
aasS'f10_17'
p1653
(lp1654
(lp1655
I6
aI1
aI500
aasS'ID_333_F1_10_F2_11_G_4_SplitPt_148_GenID_0'
p1656
(lp1657
(lp1658
I10
aI12
aI500
aa(lp1659
I6
aI1
aI204
aasS'f10_18'
p1660
(lp1661
(lp1662
I6
aI1
aI500
aasS'f5_16'
p1663
(lp1664
(lp1665
I16
aI16
aI500
aasS'f0_31'
p1666
(lp1667
(lp1668
I4
aI2
aI497
aasS'f0_30'
p1669
(lp1670
(lp1671
I61
aI3
aI129
aasS'ID_400_F1_1_F2_5_G_2_SplitPt_182_GenID_0'
p1672
(lp1673
(lp1674
I16
aI19
aI499
aa(lp1675
I18
aI1
aI193
aasS'ID_366_F1_9_F2_17_G_1_SplitPt_69_GenID_0'
p1676
(lp1677
(lp1678
I9
aI50
aI499
aasS'ID_264_F1_16_F2_6_G_0_SplitPt_192_GenID_0'
p1679
(lp1680
(lp1681
I14
aI7
aI196
aasS'f17_30'
p1682
(lp1683
(lp1684
I9
aI1
aI496
aasS'f17_31'
p1685
(lp1686
(lp1687
I97
aI4
aI66
aa(lp1688
I9
aI10
aI496
aasS'f12_8'
p1689
(lp1690
(lp1691
I23
aI1
aI500
aasS'ID_340_F1_11_F2_12_G_3_SplitPt_141_GenID_0'
p1692
(lp1693
(lp1694
I23
aI132
aI500
aa(lp1695
I10
aI1
aI148
aasS'ID_405_F1_2_F2_19_G_0_SplitPt_118_GenID_0'
p1696
(lp1697
(lp1698
I26
aI3
aI112
aa(lp1699
I1
aI154
aI498
aasS'ID_121_F1_11_F2_11_G_4_SplitPt_168_GenID_0'
p1700
(lp1701
(lp1702
I10
aI1
aI500
aasS'ID_378_F1_13_F2_9_G_0_SplitPt_178_GenID_0'
p1703
(lp1704
(lp1705
I28
aI215
aI484
aasS'ID_260_F1_6_F2_18_G_3_SplitPt_232_GenID_0'
p1706
(lp1707
(lp1708
I98
aI299
aI388
aa(lp1709
I27
aI2
aI252
aasS'ID_152_F1_8_F2_12_G_0_SplitPt_149_GenID_0'
p1710
(lp1711
(lp1712
I99
aI57
aI149
aa(lp1713
I23
aI118
aI489
aasS'ID_216_F1_7_F2_8_G_4_SplitPt_59_GenID_0'
p1714
(lp1715
(lp1716
I12
aI1
aI62
aa(lp1717
I5
aI60
aI500
aasS'ID_277_F1_17_F2_19_G_3_SplitPt_69_GenID_0'
p1718
(lp1719
(lp1720
I97
aI1
aI67
aa(lp1721
I1
aI68
aI500
aasS'ID_323_F1_5_F2_18_G_0_SplitPt_128_GenID_0'
p1722
(lp1723
(lp1724
I16
aI1
aI126
aasS'ID_248_F1_12_F2_1_G_4_SplitPt_207_GenID_0'
p1725
(lp1726
(lp1727
I42
aI2
aI64
aa(lp1728
I18
aI177
aI500
aasS'ID_331_F1_18_F2_17_G_2_SplitPt_108_GenID_0'
p1729
(lp1730
(lp1731
I100
aI1
aI113
aa(lp1732
I9
aI87
aI498
aasS'ID_411_F1_5_F2_1_G_4_SplitPt_126_GenID_0'
p1733
(lp1734
(lp1735
I16
aI1
aI142
aa(lp1736
I18
aI127
aI500
aasS'f10_5'
p1737
(lp1738
(lp1739
I6
aI1
aI500
aasS'f10_19'
p1740
(lp1741
(lp1742
I6
aI1
aI500
aasS'ID_210_F1_11_F2_19_G_3_SplitPt_130_GenID_0'
p1743
(lp1744
(lp1745
I1
aI116
aI500
aa(lp1746
I10
aI1
aI134
aasS'f9_27'
p1747
(lp1748
(lp1749
I28
aI1
aI500
aasS'f10_6'
p1750
(lp1751
(lp1752
I6
aI1
aI500
aasS'ID_419_F1_18_F2_8_G_3_SplitPt_182_GenID_0'
p1753
(lp1754
(lp1755
I65
aI1
aI306
aa(lp1756
I5
aI182
aI500
aasS'ID_398_F1_19_F2_9_G_4_SplitPt_78_GenID_0'
p1757
(lp1758
(lp1759
I101
aI1
aI78
aa(lp1760
I28
aI79
aI500
aasS'f1_18'
p1761
(lp1762
(lp1763
I18
aI1
aI500
aasS'f1_19'
p1764
(lp1765
(lp1766
I18
aI1
aI500
aasS'ID_124_F1_13_F2_9_G_1_SplitPt_217_GenID_0'
p1767
(lp1768
(lp1769
I17
aI1
aI229
aa(lp1770
I28
aI230
aI491
aasS'f1_14'
p1771
(lp1772
(lp1773
I18
aI5
aI500
aasS'f1_15'
p1774
(lp1775
(lp1776
I18
aI2
aI499
aasS'f1_16'
p1777
(lp1778
(lp1779
I18
aI1
aI500
aasS'f0_7'
p1780
(lp1781
(lp1782
I4
aI1
aI500
aasS'f1_10'
p1783
(lp1784
(lp1785
I18
aI2
aI500
aasS'ID_453_F1_18_F2_14_G_4_SplitPt_244_GenID_0'
p1786
(lp1787
(lp1788
I102
aI119
aI245
aa(lp1789
I103
aI266
aI354
aa(lp1790
I104
aI2
aI89
aasS'f1_12'
p1791
(lp1792
(lp1793
I18
aI2
aI500
aasS'f1_13'
p1794
(lp1795
(lp1796
I18
aI2
aI500
aasS'ID_55_F1_0_F2_6_G_0_SplitPt_58_GenID_0'
p1797
(lp1798
(lp1799
I27
aI59
aI498
aasS'ID_509_F1_11_F2_9_G_3_SplitPt_147_GenID_0'
p1800
(lp1801
(lp1802
I10
aI1
aI155
aa(lp1803
I28
aI61
aI500
aasS'f7_15'
p1804
(lp1805
(lp1806
I12
aI1
aI500
aasS'ID_1_F1_13_F2_1_G_0_SplitPt_75_GenID_0'
p1807
(lp1808
(lp1809
I18
aI54
aI468
aasS'f4_13'
p1810
(lp1811
(lp1812
I19
aI3
aI500
aasS'ID_369_F1_19_F2_5_G_1_SplitPt_187_GenID_0'
p1813
(lp1814
(lp1815
I16
aI192
aI500
aasS'f10_30'
p1816
(lp1817
(lp1818
I6
aI1
aI499
aasS'ID_15_F1_15_F2_19_G_1_SplitPt_64_GenID_0'
p1819
(lp1820
(lp1821
I57
aI1
aI59
aa(lp1822
I1
aI63
aI500
aasS'ID_27_F1_12_F2_16_G_2_SplitPt_105_GenID_0'
p1823
(lp1824
(lp1825
I105
aI113
aI278
aa(lp1826
I106
aI4
aI104
aasS'ID_226_F1_0_F2_10_G_1_SplitPt_226_GenID_0'
p1827
(lp1828
(lp1829
I89
aI7
aI224
aa(lp1830
I6
aI103
aI500
aasS'ID_85_F1_14_F2_19_G_0_SplitPt_148_GenID_0'
p1831
(lp1832
(lp1833
I1
aI95
aI340
aasS'ID_93_F1_14_F2_4_G_1_SplitPt_91_GenID_0'
p1834
(lp1835
(lp1836
I19
aI91
aI500
aasS'ID_279_F1_13_F2_1_G_3_SplitPt_171_GenID_0'
p1837
(lp1838
(lp1839
I17
aI1
aI242
aa(lp1840
I18
aI145
aI499
aasS'f7_10'
p1841
(lp1842
(lp1843
I12
aI1
aI496
aasS'ID_184_F1_4_F2_4_G_3_SplitPt_90_GenID_0'
p1844
(lp1845
(lp1846
I107
aI1
aI85
aa(lp1847
I21
aI90
aI236
aasS'ID_477_F1_3_F2_15_G_4_SplitPt_187_GenID_0'
p1848
(lp1849
(lp1850
I3
aI1
aI208
aa(lp1851
I6
aI184
aI500
aasS'ID_189_F1_6_F2_7_G_0_SplitPt_208_GenID_0'
p1852
(lp1853
(lp1854
I27
aI9
aI211
aasS'f19_8'
p1855
(lp1856
(lp1857
I1
aI1
aI500
aasS'f19_9'
p1858
(lp1859
(lp1860
I1
aI1
aI500
aasS'f3_18'
p1861
(lp1862
(lp1863
I3
aI1
aI500
aasS'f3_19'
p1864
(lp1865
(lp1866
I3
aI1
aI499
aasS'ID_409_F1_12_F2_1_G_4_SplitPt_193_GenID_0'
p1867
(lp1868
(lp1869
I108
aI1
aI83
aa(lp1870
I18
aI169
aI500
aasS'f19_0'
p1871
(lp1872
(lp1873
I101
aI2
aI78
aasS'f19_1'
p1874
(lp1875
(lp1876
I101
aI2
aI78
aasS'f19_2'
p1877
(lp1878
(lp1879
I101
aI1
aI78
aa(lp1880
I1
aI2
aI500
aasS'f19_3'
p1881
(lp1882
(lp1883
I101
aI1
aI78
aa(lp1884
I1
aI2
aI499
aasS'f19_4'
p1885
(lp1886
(lp1887
I1
aI5
aI500
aasS'f19_5'
p1888
(lp1889
(lp1890
I36
aI1
aI70
aa(lp1891
I85
aI186
aI353
aasS'f19_6'
p1892
(lp1893
(lp1894
I36
aI1
aI72
aasS'f19_7'
p1895
(lp1896
(lp1897
I36
aI1
aI72
aa(lp1898
I1
aI6
aI499
aasS'ID_299_F1_4_F2_11_G_1_SplitPt_74_GenID_0'
p1899
(lp1900
(lp1901
I10
aI76
aI500
aasS'ID_235_F1_9_F2_0_G_3_SplitPt_225_GenID_0'
p1902
(lp1903
(lp1904
I4
aI186
aI500
aa(lp1905
I28
aI1
aI227
aasS'f9_15'
p1906
(lp1907
(lp1908
I28
aI9
aI500
aasS'f1_29'
p1909
(lp1910
(lp1911
I18
aI9
aI500
aasS'ID_412_F1_8_F2_9_G_3_SplitPt_191_GenID_0'
p1912
(lp1913
(lp1914
I109
aI122
aI192
aa(lp1915
I28
aI145
aI499
aasS'ID_109_F1_8_F2_0_G_1_SplitPt_235_GenID_0'
p1916
(lp1917
(lp1918
I4
aI267
aI488
aa(lp1919
I5
aI1
aI277
aasS'f18_31'
p1920
(lp1921
(lp1922
I110
aI119
aI244
aasS'f18_30'
p1923
(lp1924
(lp1925
I64
aI1
aI233
aa(lp1926
I18
aI20
aI499
aasS'f12_1'
p1927
(lp1928
(lp1929
I23
aI1
aI500
aasS'ID_383_F1_1_F2_0_G_1_SplitPt_111_GenID_0'
p1930
(lp1931
(lp1932
I111
aI127
aI235
aasS'ID_474_F1_7_F2_1_G_2_SplitPt_124_GenID_0'
p1933
(lp1934
(lp1935
I12
aI3
aI161
aa(lp1936
I18
aI76
aI500
aasS'ID_380_F1_11_F2_0_G_0_SplitPt_88_GenID_0'
p1937
(lp1938
(lp1939
I4
aI90
aI482
aasS'f12_0'
p1940
(lp1941
(lp1942
I23
aI1
aI500
aasS'ID_297_F1_5_F2_9_G_0_SplitPt_166_GenID_0'
p1943
(lp1944
(lp1945
I28
aI175
aI488
aasS'f13_20'
p1946
(lp1947
(lp1948
I17
aI1
aI497
aasS'f3_27'
p1949
(lp1950
(lp1951
I3
aI2
aI500
aasS'ID_305_F1_17_F2_8_G_4_SplitPt_241_GenID_0'
p1952
(lp1953
(lp1954
I9
aI1
aI252
aa(lp1955
I5
aI183
aI500
aasS'f6_9'
p1956
(lp1957
(lp1958
I112
aI1
aI117
aa(lp1959
I27
aI2
aI500
aasS'f6_8'
p1960
(lp1961
(lp1962
I112
aI2
aI117
aasS'f6_5'
p1963
(lp1964
(lp1965
I27
aI1
aI499
aasS'f6_4'
p1966
(lp1967
(lp1968
I27
aI1
aI500
aasS'f6_7'
p1969
(lp1970
(lp1971
I27
aI5
aI500
aasS'f6_6'
p1972
(lp1973
(lp1974
I27
aI2
aI500
aasS'f6_1'
p1975
(lp1976
(lp1977
I27
aI1
aI498
aasS'f6_0'
p1978
(lp1979
(lp1980
I27
aI1
aI498
aasS'f6_3'
p1981
(lp1982
(lp1983
I27
aI5
aI499
aasS'f6_2'
p1984
(lp1985
(lp1986
I27
aI2
aI498
aasS'f4_3'
p1987
(lp1988
(lp1989
I19
aI1
aI497
aasS'f4_2'
p1990
(lp1991
(lp1992
I19
aI1
aI497
aasS'f4_1'
p1993
(lp1994
(lp1995
I96
aI387
aI492
aasS'f4_0'
p1996
(lp1997
(lp1998
I19
aI1
aI497
aasS'f4_7'
p1999
(lp2000
(lp2001
I19
aI4
aI500
aasS'f4_6'
p2002
(lp2003
(lp2004
I19
aI1
aI497
aasS'f4_5'
p2005
(lp2006
(lp2007
I19
aI1
aI500
aasS'f4_4'
p2008
(lp2009
(lp2010
I19
aI1
aI499
aasS'f17_2'
p2011
(lp2012
(lp2013
I113
aI366
aI490
aasS'f17_3'
p2014
(lp2015
(lp2016
I9
aI2
aI500
aasS'f4_9'
p2017
(lp2018
(lp2019
I19
aI1
aI500
aasS'f4_8'
p2020
(lp2021
(lp2022
I19
aI1
aI500
aasS'ID_37_F1_4_F2_0_G_1_SplitPt_184_GenID_0'
p2023
(lp2024
(lp2025
I4
aI180
aI500
aa(lp2026
I19
aI44
aI185
aasS'f17_7'
p2027
(lp2028
(lp2029
I9
aI1
aI500
aasS'f17_4'
p2030
(lp2031
(lp2032
I9
aI3
aI500
aasS'f17_5'
p2033
(lp2034
(lp2035
I9
aI1
aI500
aasS'ID_7_F1_5_F2_7_G_1_SplitPt_141_GenID_0'
p2036
(lp2037
(lp2038
I12
aI60
aI493
aasS'ID_454_F1_10_F2_13_G_2_SplitPt_218_GenID_0'
p2039
(lp2040
(lp2041
I17
aI185
aI500
aa(lp2042
I6
aI2
aI337
aasS'ID_83_F1_15_F2_9_G_1_SplitPt_125_GenID_0'
p2043
(lp2044
(lp2045
I28
aI87
aI500
aa(lp2046
I6
aI1
aI178
aasS'ID_202_F1_15_F2_11_G_4_SplitPt_87_GenID_0'
p2047
(lp2048
(lp2049
I10
aI85
aI500
aa(lp2050
I6
aI1
aI133
aasS'ID_63_F1_8_F2_17_G_1_SplitPt_55_GenID_0'
p2051
(lp2052
(lp2053
I9
aI46
aI500
aasS'ID_450_F1_6_F2_4_G_4_SplitPt_117_GenID_0'
p2054
(lp2055
(lp2056
I40
aI124
aI212
aa(lp2057
I112
aI1
aI117
aasS'f17_6'
p2058
(lp2059
(lp2060
I9
aI1
aI499
aasS'f13_28'
p2061
(lp2062
(lp2063
I114
aI166
aI252
aa(lp2064
I74
aI1
aI168
aasS'f7_23'
p2065
(lp2066
(lp2067
I47
aI1
aI75
aa(lp2068
I12
aI66
aI500
aasS'f8_6'
p2069
(lp2070
(lp2071
I99
aI63
aI146
aasS'f8_5'
p2072
(lp2073
(lp2074
I38
aI1
aI48
aasS'f8_4'
p2075
(lp2076
(lp2077
I38
aI1
aI51
aasS'f8_3'
p2078
(lp2079
(lp2080
I109
aI122
aI192
aasS'f7_26'
p2081
(lp2082
(lp2083
I12
aI1
aI500
aasS'f8_1'
p2084
(lp2085
(lp2086
I99
aI57
aI149
aasS'f7_24'
p2087
(lp2088
(lp2089
I12
aI1
aI500
aasS'ID_262_F1_5_F2_14_G_1_SplitPt_62_GenID_0'
p2090
(lp2091
(lp2092
I2
aI64
aI497
aasS'f7_29'
p2093
(lp2094
(lp2095
I12
aI1
aI500
aasS'f7_28'
p2096
(lp2097
(lp2098
I12
aI5
aI500
aasS'f8_9'
p2099
(lp2100
(lp2101
I5
aI25
aI499
aasS'f16_16'
p2102
(lp2103
(lp2104
I14
aI1
aI500
aasS'ID_8_F1_13_F2_9_G_4_SplitPt_101_GenID_0'
p2105
(lp2106
(lp2107
I17
aI1
aI127
aa(lp2108
I28
aI40
aI500
aasS'ID_244_F1_5_F2_14_G_4_SplitPt_62_GenID_0'
p2109
(lp2110
(lp2111
I51
aI1
aI66
aa(lp2112
I2
aI46
aI500
aasS'ID_200_F1_19_F2_8_G_3_SplitPt_173_GenID_0'
p2113
(lp2114
(lp2115
I1
aI4
aI199
aa(lp2116
I5
aI155
aI500
aasS'f18_13'
p2117
(lp2118
(lp2119
I18
aI3
aI498
aasS'f12_5'
p2120
(lp2121
(lp2122
I23
aI1
aI500
aasS'ID_107_F1_9_F2_3_G_3_SplitPt_151_GenID_0'
p2123
(lp2124
(lp2125
I67
aI152
aI213
aa(lp2126
I28
aI1
aI180
aasS'ID_430_F1_11_F2_16_G_2_SplitPt_165_GenID_0'
p2127
(lp2128
(lp2129
I14
aI156
aI500
aa(lp2130
I10
aI1
aI167
aasS'f11_0'
p2131
(lp2132
(lp2133
I10
aI1
aI497
aasS'f11_1'
p2134
(lp2135
(lp2136
I10
aI1
aI500
aasS'f11_2'
p2137
(lp2138
(lp2139
I10
aI1
aI498
aasS'f11_3'
p2140
(lp2141
(lp2142
I10
aI1
aI499
aasS'f11_4'
p2143
(lp2144
(lp2145
I10
aI18
aI496
aasS'f11_5'
p2146
(lp2147
(lp2148
I10
aI1
aI498
aasS'f11_6'
p2149
(lp2150
(lp2151
I68
aI390
aI495
aasS'f11_7'
p2152
(lp2153
(lp2154
I68
aI375
aI488
aasS'ID_35_F1_6_F2_2_G_2_SplitPt_237_GenID_0'
p2155
(lp2156
(lp2157
I27
aI1
aI243
aa(lp2158
I26
aI235
aI500
aasS'f11_9'
p2159
(lp2160
(lp2161
I10
aI1
aI500
aasS'ID_350_F1_1_F2_2_G_2_SplitPt_214_GenID_0'
p2162
(lp2163
(lp2164
I26
aI204
aI499
aa(lp2165
I18
aI5
aI220
aasS'ID_128_F1_14_F2_11_G_2_SplitPt_219_GenID_0'
p2166
(lp2167
(lp2168
I82
aI86
aI175
aa(lp2169
I88
aI224
aI326
aasS'f2_9'
p2170
(lp2171
(lp2172
I115
aI99
aI263
aa(lp2173
I30
aI8
aI174
aasS'f2_8'
p2174
(lp2175
(lp2176
I115
aI99
aI261
aa(lp2177
I30
aI8
aI188
aasS'f13_4'
p2178
(lp2179
(lp2180
I17
aI3
aI498
aasS'f13_5'
p2181
(lp2182
(lp2183
I17
aI2
aI499
aasS'f13_2'
p2184
(lp2185
(lp2186
I116
aI1
aI64
aasS'f13_3'
p2187
(lp2188
(lp2189
I116
aI1
aI63
aasS'f13_0'
p2190
(lp2191
(lp2192
I63
aI376
aI488
aa(lp2193
I116
aI1
aI72
aasS'f13_1'
p2194
(lp2195
(lp2196
I17
aI1
aI500
aasS'f2_1'
p2197
(lp2198
(lp2199
I25
aI9
aI90
aa(lp2200
I26
aI37
aI500
aasS'f2_0'
p2201
(lp2202
(lp2203
I25
aI3
aI72
aa(lp2204
I26
aI29
aI500
aasS'f2_3'
p2205
(lp2206
(lp2207
I25
aI9
aI79
aa(lp2208
I26
aI52
aI500
aasS'f2_2'
p2209
(lp2210
(lp2211
I31
aI221
aI320
aa(lp2212
I25
aI1
aI79
aasS'f2_5'
p2213
(lp2214
(lp2215
I26
aI2
aI496
aasS'f2_4'
p2216
(lp2217
(lp2218
I26
aI2
aI495
aasS'f13_8'
p2219
(lp2220
(lp2221
I17
aI1
aI500
aasS'f13_9'
p2222
(lp2223
(lp2224
I17
aI1
aI500
aasS'f15_4'
p2225
(lp2226
(lp2227
I6
aI1
aI500
aasS'f15_5'
p2228
(lp2229
(lp2230
I6
aI1
aI500
aasS'f15_6'
p2231
(lp2232
(lp2233
I6
aI1
aI500
aasS'f15_7'
p2234
(lp2235
(lp2236
I117
aI380
aI495
aasS'f15_0'
p2237
(lp2238
(lp2239
I6
aI1
aI500
aasS'f15_1'
p2240
(lp2241
(lp2242
I6
aI1
aI500
aasS'f0_9'
p2243
(lp2244
(lp2245
I89
aI22
aI232
aasS'f0_8'
p2246
(lp2247
(lp2248
I111
aI127
aI236
aa(lp2249
I89
aI8
aI228
aasS'ID_339_F1_13_F2_8_G_3_SplitPt_178_GenID_0'
p2250
(lp2251
(lp2252
I69
aI172
aI221
aa(lp2253
I74
aI1
aI178
aasS'f0_6'
p2254
(lp2255
(lp2256
I4
aI1
aI500
aasS'f0_5'
p2257
(lp2258
(lp2259
I4
aI1
aI497
aasS'f0_4'
p2260
(lp2261
(lp2262
I4
aI1
aI497
aasS'f0_3'
p2263
(lp2264
(lp2265
I4
aI2
aI500
aasS'f0_2'
p2266
(lp2267
(lp2268
I4
aI1
aI500
aasS'f0_1'
p2269
(lp2270
(lp2271
I4
aI2
aI500
aasS'f0_0'
p2272
(lp2273
(lp2274
I4
aI2
aI500
aasS'ID_199_F1_11_F2_3_G_2_SplitPt_154_GenID_0'
p2275
(lp2276
(lp2277
I3
aI150
aI500
aa(lp2278
I10
aI1
aI151
aasS'f1_28'
p2279
(lp2280
(lp2281
I18
aI9
aI500
aasS'ID_42_F1_18_F2_10_G_4_SplitPt_88_GenID_0'
p2282
(lp2283
(lp2284
I104
aI1
aI89
aa(lp2285
I6
aI73
aI500
aasS'ID_225_F1_9_F2_4_G_1_SplitPt_114_GenID_0'
p2286
(lp2287
(lp2288
I19
aI113
aI500
aasS'f5_18'
p2289
(lp2290
(lp2291
I16
aI1
aI500
aasS'ID_382_F1_9_F2_0_G_4_SplitPt_182_GenID_0'
p2292
(lp2293
(lp2294
I20
aI203
aI339
aa(lp2295
I34
aI1
aI79
aasS'ID_176_F1_4_F2_16_G_0_SplitPt_217_GenID_0'
p2296
(lp2297
(lp2298
I118
aI150
aI225
aa(lp2299
I14
aI238
aI499
aasS'ID_155_F1_0_F2_7_G_3_SplitPt_245_GenID_0'
p2300
(lp2301
(lp2302
I12
aI242
aI500
aa(lp2303
I4
aI2
aI250
aasS'ID_414_F1_13_F2_9_G_3_SplitPt_245_GenID_0'
p2304
(lp2305
(lp2306
I17
aI2
aI256
aa(lp2307
I28
aI208
aI497
aasS'ID_57_F1_14_F2_7_G_2_SplitPt_109_GenID_0'
p2308
(lp2309
(lp2310
I12
aI70
aI496
aa(lp2311
I2
aI1
aI115
aasS'ID_316_F1_7_F2_8_G_1_SplitPt_160_GenID_0'
p2312
(lp2313
(lp2314
I12
aI23
aI111
aa(lp2315
I5
aI158
aI496
aasS'f8_26'
p2316
(lp2317
(lp2318
I5
aI1
aI500
aasS'ID_487_F1_19_F2_10_G_0_SplitPt_170_GenID_0'
p2319
(lp2320
(lp2321
I6
aI197
aI500
aasS'ID_181_F1_6_F2_18_G_3_SplitPt_217_GenID_0'
p2322
(lp2323
(lp2324
I27
aI2
aI222
aa(lp2325
I18
aI135
aI500
aasS'ID_218_F1_9_F2_10_G_0_SplitPt_83_GenID_0'
p2326
(lp2327
(lp2328
I6
aI41
aI422
aasS'ID_122_F1_7_F2_5_G_3_SplitPt_74_GenID_0'
p2329
(lp2330
(lp2331
I70
aI5
aI74
aasS'ID_219_F1_2_F2_9_G_0_SplitPt_107_GenID_0'
p2332
(lp2333
(lp2334
I28
aI94
aI500
aasS'f1_11'
p2335
(lp2336
(lp2337
I18
aI7
aI500
aasS'f16_13'
p2338
(lp2339
(lp2340
I14
aI2
aI500
aasS'f16_12'
p2341
(lp2342
(lp2343
I14
aI1
aI500
aasS'f3_25'
p2344
(lp2345
(lp2346
I3
aI1
aI500
aasS'f16_10'
p2347
(lp2348
(lp2349
I14
aI2
aI500
aasS'f16_17'
p2350
(lp2351
(lp2352
I14
aI1
aI497
aasS'ID_355_F1_19_F2_9_G_1_SplitPt_114_GenID_0'
p2353
(lp2354
(lp2355
I1
aI21
aI122
aa(lp2356
I28
aI96
aI499
aasS'f16_15'
p2357
(lp2358
(lp2359
I14
aI1
aI500
aasS'f16_14'
p2360
(lp2361
(lp2362
I14
aI1
aI499
aasS'f16_19'
p2363
(lp2364
(lp2365
I14
aI1
aI500
aasS'f16_18'
p2366
(lp2367
(lp2368
I14
aI2
aI500
aasS'f10_15'
p2369
(lp2370
(lp2371
I6
aI1
aI499
aasS'f6_24'
p2372
(lp2373
(lp2374
I27
aI2
aI497
aasS'f6_25'
p2375
(lp2376
(lp2377
I27
aI3
aI496
aasS'f6_26'
p2378
(lp2379
(lp2380
I27
aI1
aI500
aasS'f6_27'
p2381
(lp2382
(lp2383
I27
aI1
aI500
aasS'f6_20'
p2384
(lp2385
(lp2386
I27
aI2
aI499
aasS'f6_21'
p2387
(lp2388
(lp2389
I27
aI1
aI500
aasS'f6_22'
p2390
(lp2391
(lp2392
I27
aI1
aI497
aasS'ID_54_F1_7_F2_4_G_4_SplitPt_124_GenID_0'
p2393
(lp2394
(lp2395
I12
aI1
aI236
aa(lp2396
I19
aI119
aI500
aasS'ID_334_F1_19_F2_11_G_1_SplitPt_173_GenID_0'
p2397
(lp2398
(lp2399
I1
aI1
aI172
aa(lp2400
I10
aI172
aI498
aasS'f6_28'
p2401
(lp2402
(lp2403
I27
aI3
aI500
aasS'f6_29'
p2404
(lp2405
(lp2406
I27
aI5
aI499
aasS'ID_229_F1_0_F2_1_G_1_SplitPt_112_GenID_0'
p2407
(lp2408
(lp2409
I18
aI108
aI500
aasS'ID_203_F1_18_F2_8_G_3_SplitPt_187_GenID_0'
p2410
(lp2411
(lp2412
I7
aI188
aI244
aasS'f1_27'
p2413
(lp2414
(lp2415
I18
aI11
aI499
aasS'f1_26'
p2416
(lp2417
(lp2418
I18
aI26
aI500
aasS'f14_19'
p2419
(lp2420
(lp2421
I93
aI415
aI492
aasS'f14_18'
p2422
(lp2423
(lp2424
I2
aI1
aI500
aasS'f1_23'
p2425
(lp2426
(lp2427
I18
aI1
aI498
aasS'f1_22'
p2428
(lp2429
(lp2430
I18
aI1
aI498
aasS'ID_444_F1_9_F2_17_G_3_SplitPt_78_GenID_0'
p2431
(lp2432
(lp2433
I34
aI1
aI75
aa(lp2434
I9
aI36
aI500
aasS'f14_14'
p2435
(lp2436
(lp2437
I103
aI240
aI358
aasS'f14_17'
p2438
(lp2439
(lp2440
I2
aI1
aI500
aasS'f14_16'
p2441
(lp2442
(lp2443
I2
aI1
aI500
aasS'f14_11'
p2444
(lp2445
(lp2446
I2
aI15
aI499
aasS'f14_10'
p2447
(lp2448
(lp2449
I2
aI4
aI500
aasS'f14_13'
p2450
(lp2451
(lp2452
I119
aI390
aI498
aasS'ID_280_F1_12_F2_2_G_4_SplitPt_81_GenID_0'
p2453
(lp2454
(lp2455
I108
aI1
aI82
aa(lp2456
I26
aI67
aI500
aasS'ID_420_F1_1_F2_12_G_2_SplitPt_76_GenID_0'
p2457
(lp2458
(lp2459
I43
aI1
aI81
aa(lp2460
I23
aI68
aI496
aasS'ID_74_F1_6_F2_12_G_3_SplitPt_123_GenID_0'
p2461
(lp2462
(lp2463
I27
aI3
aI156
aa(lp2464
I23
aI96
aI500
aasS'ID_401_F1_3_F2_8_G_4_SplitPt_233_GenID_0'
p2465
(lp2466
(lp2467
I120
aI205
aI231
aasS'ID_148_F1_11_F2_8_G_0_SplitPt_225_GenID_0'
p2468
(lp2469
(lp2470
I5
aI249
aI494
aasS'ID_2_F1_10_F2_11_G_4_SplitPt_108_GenID_0'
p2471
(lp2472
(lp2473
I88
aI224
aI324
aa(lp2474
I6
aI1
aI115
aasS'ID_268_F1_13_F2_11_G_2_SplitPt_155_GenID_0'
p2475
(lp2476
(lp2477
I74
aI6
aI156
aa(lp2478
I10
aI143
aI499
aasS'f6_17'
p2479
(lp2480
(lp2481
I27
aI1
aI497
aasS'f2_31'
p2482
(lp2483
(lp2484
I39
aI3
aI114
aa(lp2485
I26
aI58
aI500
aasS'f2_30'
p2486
(lp2487
(lp2488
I39
aI3
aI116
aa(lp2489
I26
aI49
aI498
aasS'ID_265_F1_19_F2_6_G_1_SplitPt_99_GenID_0'
p2490
(lp2491
(lp2492
I27
aI80
aI499
aasS'f1_9'
p2493
(lp2494
(lp2495
I18
aI19
aI491
aasS'ID_60_F1_10_F2_15_G_4_SplitPt_78_GenID_0'
p2496
(lp2497
(lp2498
I6
aI1
aI500
aasS'ID_470_F1_7_F2_0_G_4_SplitPt_106_GenID_0'
p2499
(lp2500
(lp2501
I12
aI1
aI106
aa(lp2502
I4
aI88
aI500
aasS'f8_8'
p2503
(lp2504
(lp2505
I5
aI20
aI500
aasS'f6_23'
p2506
(lp2507
(lp2508
I27
aI1
aI496
aasS'f6_10'
p2509
(lp2510
(lp2511
I112
aI1
aI117
aasS'f9_17'
p2512
(lp2513
(lp2514
I28
aI2
aI500
aasS'ID_130_F1_19_F2_5_G_2_SplitPt_222_GenID_0'
p2515
(lp2516
(lp2517
I1
aI5
aI244
aa(lp2518
I16
aI223
aI500
aasS'f13_30'
p2519
(lp2520
(lp2521
I74
aI1
aI186
aa(lp2522
I17
aI34
aI493
aasS'f13_31'
p2523
(lp2524
(lp2525
I72
aI4
aI83
aa(lp2526
I17
aI30
aI482
aasS'ID_361_F1_10_F2_14_G_3_SplitPt_182_GenID_0'
p2527
(lp2528
(lp2529
I119
aI390
aI498
aa(lp2530
I6
aI1
aI181
aasS'ID_24_F1_4_F2_14_G_1_SplitPt_58_GenID_0'
p2531
(lp2532
(lp2533
I2
aI46
aI500
aasS'f8_13'
p2534
(lp2535
(lp2536
I75
aI1
aI104
aa(lp2537
I5
aI7
aI500
aasS'f8_12'
p2538
(lp2539
(lp2540
I75
aI1
aI107
aasS'f8_11'
p2541
(lp2542
(lp2543
I5
aI16
aI500
aasS'f8_10'
p2544
(lp2545
(lp2546
I75
aI23
aI130
aasS'f8_17'
p2547
(lp2548
(lp2549
I5
aI1
aI500
aasS'f8_16'
p2550
(lp2551
(lp2552
I5
aI2
aI500
aasS'f8_15'
p2553
(lp2554
(lp2555
I75
aI4
aI111
aasS'f8_14'
p2556
(lp2557
(lp2558
I75
aI5
aI100
aasS'ID_186_F1_11_F2_5_G_2_SplitPt_128_GenID_0'
p2559
(lp2560
(lp2561
I16
aI83
aI500
aa(lp2562
I10
aI1
aI123
aasS'f8_19'
p2563
(lp2564
(lp2565
I5
aI19
aI500
aasS'f8_18'
p2566
(lp2567
(lp2568
I5
aI2
aI500
aasS'ID_377_F1_2_F2_3_G_1_SplitPt_149_GenID_0'
p2569
(lp2570
(lp2571
I3
aI149
aI500
aasS'ID_362_F1_9_F2_7_G_3_SplitPt_174_GenID_0'
p2572
(lp2573
(lp2574
I12
aI162
aI500
aa(lp2575
I28
aI1
aI180
aasS'ID_90_F1_2_F2_15_G_3_SplitPt_143_GenID_0'
p2576
(lp2577
(lp2578
I26
aI2
aI150
aa(lp2579
I6
aI85
aI500
aasS'ID_250_F1_10_F2_15_G_4_SplitPt_231_GenID_0'
p2580
(lp2581
(lp2582
I6
aI1
aI500
aasS'f1_25'
p2583
(lp2584
(lp2585
I18
aI7
aI499
aasS'ID_399_F1_19_F2_6_G_1_SplitPt_233_GenID_0'
p2586
(lp2587
(lp2588
I27
aI310
aI499
aa(lp2589
I1
aI8
aI175
aasS'ID_160_F1_15_F2_2_G_3_SplitPt_139_GenID_0'
p2590
(lp2591
(lp2592
I26
aI100
aI498
aa(lp2593
I6
aI1
aI160
aasS'ID_360_F1_1_F2_7_G_1_SplitPt_213_GenID_0'
p2594
(lp2595
(lp2596
I12
aI193
aI498
aa(lp2597
I18
aI2
aI233
aasS'ID_119_F1_17_F2_17_G_4_SplitPt_247_GenID_0'
p2598
(lp2599
(lp2600
I9
aI6
aI499
aasS'ID_169_F1_16_F2_13_G_3_SplitPt_149_GenID_0'
p2601
(lp2602
(lp2603
I114
aI158
aI252
aa(lp2604
I14
aI1
aI202
aasS'ID_125_F1_11_F2_3_G_3_SplitPt_145_GenID_0'
p2605
(lp2606
(lp2607
I3
aI146
aI498
aa(lp2608
I10
aI1
aI246
aasS'f18_1'
p2609
(lp2610
(lp2611
I104
aI2
aI89
aasS'f18_0'
p2612
(lp2613
(lp2614
I104
aI2
aI89
aasS'f18_3'
p2615
(lp2616
(lp2617
I104
aI2
aI89
aasS'f18_2'
p2618
(lp2619
(lp2620
I104
aI2
aI89
aasS'f18_5'
p2621
(lp2622
(lp2623
I104
aI1
aI88
aasS'f18_4'
p2624
(lp2625
(lp2626
I104
aI1
aI83
aa(lp2627
I18
aI2
aI500
aasS'f18_7'
p2628
(lp2629
(lp2630
I104
aI1
aI89
aa(lp2631
I18
aI2
aI500
aasS'f18_6'
p2632
(lp2633
(lp2634
I91
aI119
aI192
aa(lp2635
I92
aI341
aI444
aa(lp2636
I104
aI3
aI89
aasS'f18_9'
p2637
(lp2638
(lp2639
I18
aI1
aI500
aasS'f1_21'
p2640
(lp2641
(lp2642
I18
aI1
aI499
aasS'ID_208_F1_2_F2_2_G_4_SplitPt_145_GenID_0'
p2643
(lp2644
(lp2645
I121
aI137
aI225
aa(lp2646
I30
aI8
aI139
aasS'ID_447_F1_3_F2_6_G_2_SplitPt_54_GenID_0'
p2647
(lp2648
(lp2649
I27
aI56
aI498
aasS'ID_126_F1_4_F2_2_G_0_SplitPt_90_GenID_0'
p2650
(lp2651
(lp2652
I115
aI99
aI263
aasS'ID_254_F1_10_F2_0_G_4_SplitPt_80_GenID_0'
p2653
(lp2654
(lp2655
I60
aI1
aI80
aa(lp2656
I4
aI64
aI500
aasS'ID_114_F1_14_F2_2_G_2_SplitPt_61_GenID_0'
p2657
(lp2658
(lp2659
I26
aI63
aI500
aasS'ID_403_F1_14_F2_14_G_2_SplitPt_227_GenID_0'
p2660
(lp2661
(lp2662
I2
aI1
aI495
aasS'f0_16'
p2663
(lp2664
(lp2665
I4
aI2
aI500
aasS'f9_30'
p2666
(lp2667
(lp2668
I28
aI1
aI500
aasS'f8_21'
p2669
(lp2670
(lp2671
I5
aI1
aI500
aasS'f14_15'
p2672
(lp2673
(lp2674
I2
aI2
aI500
aasS'f5_30'
p2675
(lp2676
(lp2677
I16
aI1
aI500
aasS'f5_31'
p2678
(lp2679
(lp2680
I16
aI1
aI500
aasS'ID_480_F1_13_F2_12_G_3_SplitPt_142_GenID_0'
p2681
(lp2682
(lp2683
I72
aI7
aI83
aa(lp2684
I23
aI74
aI500
aasS'ID_67_F1_10_F2_11_G_0_SplitPt_51_GenID_0'
p2685
(lp2686
(lp2687
I10
aI37
aI498
aasS'ID_87_F1_7_F2_0_G_1_SplitPt_148_GenID_0'
p2688
(lp2689
(lp2690
I12
aI3
aI220
aa(lp2691
I4
aI140
aI497
aasS'f1_24'
p2692
(lp2693
(lp2694
I18
aI11
aI500
aasS'ID_53_F1_9_F2_10_G_2_SplitPt_61_GenID_0'
p2695
(lp2696
(lp2697
I6
aI49
aI499
aasS'ID_282_F1_10_F2_11_G_4_SplitPt_210_GenID_0'
p2698
(lp2699
(lp2700
I10
aI12
aI500
aa(lp2701
I6
aI1
aI213
aasS'f10_23'
p2702
(lp2703
(lp2704
I6
aI1
aI500
aasS'f16_28'
p2705
(lp2706
(lp2707
I122
aI143
aI229
aa(lp2708
I8
aI1
aI68
aasS'f16_29'
p2709
(lp2710
(lp2711
I8
aI1
aI68
aa(lp2712
I14
aI2
aI500
aasS'f14_9'
p2713
(lp2714
(lp2715
I2
aI1
aI500
aasS'f14_8'
p2716
(lp2717
(lp2718
I2
aI1
aI500
aasS'f19_18'
p2719
(lp2720
(lp2721
I1
aI1
aI500
aasS'f16_22'
p2722
(lp2723
(lp2724
I14
aI1
aI500
aasS'f16_23'
p2725
(lp2726
(lp2727
I14
aI2
aI500
aasS'f16_20'
p2728
(lp2729
(lp2730
I14
aI1
aI500
aasS'f16_21'
p2731
(lp2732
(lp2733
I14
aI1
aI500
aasS'f16_26'
p2734
(lp2735
(lp2736
I8
aI2
aI67
aa(lp2737
I14
aI3
aI481
aasS'f16_27'
p2738
(lp2739
(lp2740
I8
aI2
aI67
aa(lp2741
I14
aI4
aI500
aasS'ID_489_F1_0_F2_11_G_4_SplitPt_175_GenID_0'
p2742
(lp2743
(lp2744
I4
aI1
aI182
aa(lp2745
I10
aI157
aI500
aasS'ID_425_F1_18_F2_13_G_2_SplitPt_85_GenID_0'
p2746
(lp2747
(lp2748
I62
aI380
aI497
aa(lp2749
I66
aI1
aI83
aasS'f16_3'
p2750
(lp2751
(lp2752
I14
aI1
aI500
aasS'f16_2'
p2753
(lp2754
(lp2755
I14
aI1
aI499
aasS'f16_1'
p2756
(lp2757
(lp2758
I105
aI118
aI278
aasS'f16_0'
p2759
(lp2760
(lp2761
I14
aI2
aI499
aasS'f16_7'
p2762
(lp2763
(lp2764
I14
aI2
aI500
aasS'f16_6'
p2765
(lp2766
(lp2767
I14
aI1
aI500
aasS'f16_5'
p2768
(lp2769
(lp2770
I122
aI143
aI229
aasS'f0_29'
p2771
(lp2772
(lp2773
I61
aI3
aI136
aasS'f0_26'
p2774
(lp2775
(lp2776
I4
aI2
aI500
aasS'f0_27'
p2777
(lp2778
(lp2779
I4
aI1
aI500
aasS'f0_24'
p2780
(lp2781
(lp2782
I4
aI66
aI499
aasS'ID_498_F1_0_F2_1_G_4_SplitPt_224_GenID_0'
p2783
(lp2784
(lp2785
I4
aI1
aI263
aa(lp2786
I18
aI90
aI500
aasS'f0_22'
p2787
(lp2788
(lp2789
I4
aI1
aI498
aasS'f0_23'
p2790
(lp2791
(lp2792
I4
aI1
aI500
aasS'f0_20'
p2793
(lp2794
(lp2795
I4
aI1
aI499
aasS'ID_234_F1_15_F2_6_G_4_SplitPt_116_GenID_0'
p2796
(lp2797
(lp2798
I27
aI114
aI500
aa(lp2799
I6
aI1
aI128
aasS'f17_21'
p2800
(lp2801
(lp2802
I9
aI1
aI500
aasS'f17_20'
p2803
(lp2804
(lp2805
I123
aI402
aI493
aasS'f17_23'
p2806
(lp2807
(lp2808
I9
aI9
aI500
aasS'f17_22'
p2809
(lp2810
(lp2811
I123
aI399
aI480
aasS'f17_25'
p2812
(lp2813
(lp2814
I124
aI318
aI408
aasS'ID_428_F1_1_F2_5_G_2_SplitPt_129_GenID_0'
p2815
(lp2816
(lp2817
I43
aI1
aI202
aa(lp2818
I16
aI104
aI500
aasS'f17_27'
p2819
(lp2820
(lp2821
I9
aI1
aI500
aasS'f17_26'
p2822
(lp2823
(lp2824
I9
aI1
aI500
aasS'f17_29'
p2825
(lp2826
(lp2827
I97
aI1
aI65
aa(lp2828
I9
aI28
aI500
aasS'f17_28'
p2829
(lp2830
(lp2831
I97
aI4
aI67
aasS'ID_11_F1_17_F2_1_G_3_SplitPt_180_GenID_0'
p2832
(lp2833
(lp2834
I9
aI1
aI185
aa(lp2835
I18
aI178
aI500
aasS'ID_367_F1_16_F2_16_G_1_SplitPt_100_GenID_0'
p2836
(lp2837
(lp2838
I14
aI2
aI468
aasS'f11_20'
p2839
(lp2840
(lp2841
I10
aI1
aI500
aasS'ID_179_F1_19_F2_8_G_3_SplitPt_207_GenID_0'
p2842
(lp2843
(lp2844
I1
aI4
aI208
aa(lp2845
I5
aI201
aI500
aasS'ID_257_F1_1_F2_9_G_3_SplitPt_170_GenID_0'
p2846
(lp2847
(lp2848
I125
aI164
aI240
aa(lp2849
I43
aI1
aI173
aasS'f3_12'
p2850
(lp2851
(lp2852
I3
aI1
aI500
aasS'f11_27'
p2853
(lp2854
(lp2855
I10
aI1
aI500
aasS'ID_16_F1_19_F2_5_G_1_SplitPt_117_GenID_0'
p2856
(lp2857
(lp2858
I1
aI2
aI115
aa(lp2859
I16
aI104
aI500
aasS'f15_2'
p2860
(lp2861
(lp2862
I6
aI1
aI500
aasS'ID_462_F1_9_F2_6_G_2_SplitPt_56_GenID_0'
p2863
(lp2864
(lp2865
I27
aI31
aI500
aasS'f11_26'
p2866
(lp2867
(lp2868
I10
aI4
aI500
aasS'ID_40_F1_18_F2_15_G_1_SplitPt_232_GenID_0'
p2869
(lp2870
(lp2871
I18
aI2
aI247
aa(lp2872
I6
aI239
aI498
aasS'ID_245_F1_6_F2_19_G_4_SplitPt_77_GenID_0'
p2873
(lp2874
(lp2875
I27
aI1
aI112
aa(lp2876
I1
aI58
aI500
aasS'ID_295_F1_9_F2_1_G_3_SplitPt_148_GenID_0'
p2877
(lp2878
(lp2879
I28
aI2
aI180
aa(lp2880
I18
aI51
aI500
aasS'ID_443_F1_4_F2_4_G_4_SplitPt_217_GenID_0'
p2881
(lp2882
(lp2883
I118
aI150
aI225
aa(lp2884
I95
aI351
aI500
aa(lp2885
I46
aI2
aI220
aasS'ID_287_F1_17_F2_4_G_4_SplitPt_176_GenID_0'
p2886
(lp2887
(lp2888
I126
aI88
aI152
aasS'ID_491_F1_0_F2_19_G_3_SplitPt_238_GenID_0'
p2889
(lp2890
(lp2891
I1
aI229
aI500
aa(lp2892
I4
aI1
aI253
aasS'ID_3_F1_0_F2_0_G_2_SplitPt_157_GenID_0'
p2893
(lp2894
(lp2895
I89
aI24
aI148
aa(lp2896
I4
aI66
aI500
aasS'ID_283_F1_13_F2_10_G_0_SplitPt_229_GenID_0'
p2897
(lp2898
(lp2899
I17
aI30
aI170
aasS'ID_13_F1_15_F2_19_G_4_SplitPt_131_GenID_0'
p2900
(lp2901
(lp2902
I85
aI186
aI353
aa(lp2903
I6
aI1
aI200
aasS'ID_17_F1_11_F2_11_G_1_SplitPt_244_GenID_0'
p2904
(lp2905
(lp2906
I10
aI1
aI464
aasS'ID_329_F1_12_F2_19_G_2_SplitPt_176_GenID_0'
p2907
(lp2908
(lp2909
I56
aI337
aI477
aa(lp2910
I23
aI1
aI176
aasS'f15_3'
p2911
(lp2912
(lp2913
I6
aI1
aI500
aasS'ID_301_F1_14_F2_8_G_3_SplitPt_147_GenID_0'
p2914
(lp2915
(lp2916
I127
aI147
aI204
aa(lp2917
I87
aI68
aI147
aasS'f10_9'
p2918
(lp2919
(lp2920
I6
aI1
aI498
aasS'f10_8'
p2921
(lp2922
(lp2923
I6
aI1
aI500
aasS'ID_10_F1_3_F2_12_G_1_SplitPt_194_GenID_0'
p2924
(lp2925
(lp2926
I3
aI2
aI200
aa(lp2927
I23
aI199
aI500
aasS'f10_1'
p2928
(lp2929
(lp2930
I6
aI1
aI500
aasS'f10_0'
p2931
(lp2932
(lp2933
I6
aI1
aI500
aasS'ID_503_F1_18_F2_16_G_2_SplitPt_212_GenID_0'
p2934
(lp2935
(lp2936
I64
aI1
aI215
aa(lp2937
I14
aI180
aI499
aasS'f10_2'
p2938
(lp2939
(lp2940
I6
aI1
aI500
aasS'ID_154_F1_4_F2_16_G_4_SplitPt_82_GenID_0'
p2941
(lp2942
(lp2943
I21
aI1
aI83
aa(lp2944
I14
aI54
aI500
aasS'f10_4'
p2945
(lp2946
(lp2947
I6
aI1
aI500
aasS'f10_7'
p2948
(lp2949
(lp2950
I6
aI2
aI500
aasS'f14_12'
p2951
(lp2952
(lp2953
I2
aI1
aI498
aasS'f4_17'
p2954
(lp2955
(lp2956
I46
aI1
aI213
aa(lp2957
I19
aI57
aI500
aasS'f4_16'
p2958
(lp2959
(lp2960
I46
aI1
aI213
aa(lp2961
I19
aI105
aI500
aasS'f4_15'
p2962
(lp2963
(lp2964
I19
aI1
aI500
aasS'f4_14'
p2965
(lp2966
(lp2967
I19
aI1
aI500
aasS'ID_461_F1_12_F2_4_G_3_SplitPt_177_GenID_0'
p2968
(lp2969
(lp2970
I19
aI168
aI500
aa(lp2971
I23
aI1
aI177
aasS'f4_12'
p2972
(lp2973
(lp2974
I19
aI4
aI500
aasS'f4_11'
p2975
(lp2976
(lp2977
I19
aI1
aI500
aasS'f4_10'
p2978
(lp2979
(lp2980
I19
aI24
aI500
aasS'f12_7'
p2981
(lp2982
(lp2983
I106
aI4
aI104
aasS'f12_6'
p2984
(lp2985
(lp2986
I106
aI5
aI104
aasS'ID_129_F1_6_F2_0_G_1_SplitPt_200_GenID_0'
p2987
(lp2988
(lp2989
I27
aI35
aI192
aa(lp2990
I4
aI163
aI497
aasS'f12_4'
p2991
(lp2992
(lp2993
I23
aI1
aI500
aasS'f12_3'
p2994
(lp2995
(lp2996
I23
aI2
aI499
aasS'f12_2'
p2997
(lp2998
(lp2999
I23
aI1
aI500
aasS'f4_19'
p3000
(lp3001
(lp3002
I46
aI2
aI205
aa(lp3003
I19
aI50
aI500
aasS'f4_18'
p3004
(lp3005
(lp3006
I46
aI1
aI212
aa(lp3007
I19
aI42
aI500
aasS'ID_272_F1_2_F2_6_G_2_SplitPt_87_GenID_0'
p3008
(lp3009
(lp3010
I27
aI87
aI500
aa(lp3011
I26
aI1
aI181
aasS'f3_26'
p3012
(lp3013
(lp3014
I49
aI65
aI179
aasS'ID_281_F1_11_F2_12_G_4_SplitPt_131_GenID_0'
p3015
(lp3016
(lp3017
I55
aI134
aI207
aa(lp3018
I10
aI1
aI148
aasS'f3_24'
p3019
(lp3020
(lp3021
I3
aI1
aI498
aasS'f3_23'
p3022
(lp3023
(lp3024
I3
aI1
aI500
aasS'f3_22'
p3025
(lp3026
(lp3027
I3
aI1
aI500
aasS'f3_21'
p3028
(lp3029
(lp3030
I3
aI1
aI500
aasS'f3_20'
p3031
(lp3032
(lp3033
I3
aI1
aI499
aasS'ID_348_F1_12_F2_14_G_4_SplitPt_230_GenID_0'
p3034
(lp3035
(lp3036
I53
aI357
aI492
aa(lp3037
I55
aI144
aI215
aasS'ID_292_F1_4_F2_5_G_3_SplitPt_171_GenID_0'
p3038
(lp3039
(lp3040
I107
aI1
aI85
aa(lp3041
I16
aI163
aI499
aasS'f3_29'
p3042
(lp3043
(lp3044
I3
aI2
aI500
aasS'ID_506_F1_13_F2_16_G_3_SplitPt_66_GenID_0'
p3045
(lp3046
(lp3047
I116
aI1
aI72
aa(lp3048
I14
aI56
aI500
aasS'ID_134_F1_10_F2_9_G_2_SplitPt_122_GenID_0'
p3049
(lp3050
(lp3051
I28
aI66
aI500
aa(lp3052
I6
aI1
aI141
aasS'ID_427_F1_19_F2_16_G_3_SplitPt_139_GenID_0'
p3053
(lp3054
(lp3055
I1
aI1
aI142
aa(lp3056
I14
aI126
aI498
aasS'f12_16'
p3057
(lp3058
(lp3059
I23
aI5
aI500
aasS'ID_222_F1_14_F2_3_G_2_SplitPt_121_GenID_0'
p3060
(lp3061
(lp3062
I3
aI14
aI500
aa(lp3063
I2
aI1
aI163
aasS'ID_451_F1_2_F2_14_G_3_SplitPt_243_GenID_0'
p3064
(lp3065
(lp3066
I103
aI240
aI354
aa(lp3067
I26
aI1
aI301
aasS'ID_374_F1_12_F2_9_G_1_SplitPt_62_GenID_0'
p3068
(lp3069
(lp3070
I28
aI55
aI500
aasS'f6_19'
p3071
(lp3072
(lp3073
I86
aI112
aI247
aa(lp3074
I59
aI1
aI65
aasS'f6_18'
p3075
(lp3076
(lp3077
I59
aI1
aI65
aa(lp3078
I90
aI334
aI465
aasS'ID_163_F1_5_F2_12_G_1_SplitPt_100_GenID_0'
p3079
(lp3080
(lp3081
I23
aI93
aI500
aasS'f6_15'
p3082
(lp3083
(lp3084
I32
aI376
aI495
aasS'f6_14'
p3085
(lp3086
(lp3087
I32
aI363
aI493
aa(lp3088
I112
aI15
aI116
aasS'ID_36_F1_2_F2_0_G_3_SplitPt_208_GenID_0'
p3089
(lp3090
(lp3091
I128
aI2
aI212
aa(lp3092
I4
aI180
aI498
aasS'f6_16'
p3093
(lp3094
(lp3095
I27
aI1
aI497
aasS'f6_11'
p3096
(lp3097
(lp3098
I112
aI1
aI117
aa(lp3099
I27
aI5
aI491
aasS'ID_252_F1_15_F2_11_G_4_SplitPt_218_GenID_0'
p3100
(lp3101
(lp3102
I68
aI390
aI495
aa(lp3103
I6
aI1
aI269
aasS'f6_13'
p3104
(lp3105
(lp3106
I27
aI52
aI500
aasS'f6_12'
p3107
(lp3108
(lp3109
I27
aI11
aI500
aasS'ID_131_F1_3_F2_19_G_2_SplitPt_136_GenID_0'
p3110
(lp3111
(lp3112
I1
aI135
aI500
aa(lp3113
I3
aI1
aI168
aasS'ID_488_F1_13_F2_16_G_2_SplitPt_117_GenID_0'
p3114
(lp3115
(lp3116
I17
aI7
aI147
aa(lp3117
I14
aI107
aI500
aasS'ID_394_F1_11_F2_18_G_4_SplitPt_149_GenID_0'
p3118
(lp3119
(lp3120
I10
aI1
aI149
aa(lp3121
I18
aI150
aI500
aasS'f3_28'
p3122
(lp3123
(lp3124
I3
aI2
aI500
aasS'ID_321_F1_11_F2_14_G_1_SplitPt_112_GenID_0'
p3125
(lp3126
(lp3127
I2
aI86
aI500
aasS'ID_167_F1_14_F2_9_G_0_SplitPt_118_GenID_0'
p3128
(lp3129
(lp3130
I28
aI126
aI493
aasS'ID_298_F1_10_F2_2_G_1_SplitPt_198_GenID_0'
p3131
(lp3132
(lp3133
I35
aI88
aI159
aa(lp3134
I26
aI195
aI499
aasS'f12_14'
p3135
(lp3136
(lp3137
I23
aI1
aI500
aasS'ID_510_F1_13_F2_17_G_3_SplitPt_85_GenID_0'
p3138
(lp3139
(lp3140
I126
aI88
aI152
aa(lp3141
I17
aI1
aI85
aasS'ID_304_F1_3_F2_17_G_3_SplitPt_235_GenID_0'
p3142
(lp3143
(lp3144
I77
aI157
aI233
aa(lp3145
I9
aI234
aI499
aasS'ID_496_F1_9_F2_12_G_0_SplitPt_212_GenID_0'
p3146
(lp3147
(lp3148
I23
aI239
aI489
aasS'f10_31'
p3149
(lp3150
(lp3151
I6
aI1
aI500
aasS'ID_475_F1_7_F2_1_G_1_SplitPt_55_GenID_0'
p3152
(lp3153
(lp3154
I18
aI34
aI498
aasS'ID_80_F1_13_F2_16_G_1_SplitPt_71_GenID_0'
p3155
(lp3156
(lp3157
I14
aI66
aI499
aasS'ID_52_F1_18_F2_18_G_1_SplitPt_240_GenID_0'
p3158
(lp3159
(lp3160
I18
aI176
aI496
aasS'ID_386_F1_8_F2_3_G_4_SplitPt_204_GenID_0'
p3161
(lp3162
(lp3163
I127
aI147
aI204
aa(lp3164
I120
aI205
aI231
aasS'f15_8'
p3165
(lp3166
(lp3167
I6
aI1
aI500
aasS'ID_20_F1_15_F2_15_G_2_SplitPt_147_GenID_0'
p3168
(lp3169
(lp3170
I6
aI2
aI500
aasS'ID_82_F1_4_F2_10_G_0_SplitPt_119_GenID_0'
p3171
(lp3172
(lp3173
I6
aI130
aI472
aasS'ID_178_F1_11_F2_5_G_3_SplitPt_180_GenID_0'
p3174
(lp3175
(lp3176
I16
aI107
aI500
aa(lp3177
I10
aI1
aI211
aasS'f7_30'
p3178
(lp3179
(lp3180
I80
aI1
aI73
aasS'f7_31'
p3181
(lp3182
(lp3183
I80
aI1
aI73
aasS'ID_396_F1_14_F2_12_G_4_SplitPt_138_GenID_0'
p3184
(lp3185
(lp3186
I129
aI139
aI200
aasS'f12_17'
p3187
(lp3188
(lp3189
I23
aI1
aI500
aasS'ID_251_F1_7_F2_11_G_3_SplitPt_210_GenID_0'
p3190
(lp3191
(lp3192
I80
aI1
aI72
aa(lp3193
I10
aI187
aI500
aasS'f12_15'
p3194
(lp3195
(lp3196
I23
aI1
aI500
aasS'ID_25_F1_17_F2_17_G_2_SplitPt_96_GenID_0'
p3197
(lp3198
(lp3199
I9
aI1
aI500
aasS'f12_13'
p3200
(lp3201
(lp3202
I23
aI1
aI500
aasS'f12_12'
p3203
(lp3204
(lp3205
I23
aI2
aI500
aasS'f12_11'
p3206
(lp3207
(lp3208
I23
aI1
aI500
aasS'f12_10'
p3209
(lp3210
(lp3211
I23
aI2
aI500
aasS'ID_12_F1_0_F2_0_G_0_SplitPt_242_GenID_0'
p3212
(lp3213
(lp3214
I4
aI1
aI370
aasS'f8_25'
p3215
(lp3216
(lp3217
I5
aI3
aI494
aasS'f12_19'
p3218
(lp3219
(lp3220
I23
aI3
aI500
aasS'f12_18'
p3221
(lp3222
(lp3223
I23
aI19
aI500
aasS'f13_11'
p3224
(lp3225
(lp3226
I17
aI1
aI500
aasS'ID_88_F1_0_F2_1_G_4_SplitPt_132_GenID_0'
p3227
(lp3228
(lp3229
I4
aI1
aI169
aa(lp3230
I18
aI115
aI500
aasS'ID_70_F1_3_F2_15_G_3_SplitPt_188_GenID_0'
p3231
(lp3232
(lp3233
I117
aI380
aI495
aa(lp3234
I3
aI1
aI242
aasS'ID_132_F1_6_F2_16_G_2_SplitPt_246_GenID_0'
p3235
(lp3236
(lp3237
I27
aI4
aI255
aa(lp3238
I14
aI246
aI500
aasS'ID_484_F1_16_F2_2_G_4_SplitPt_213_GenID_0'
p3239
(lp3240
(lp3241
I26
aI213
aI500
aa(lp3242
I14
aI1
aI229
aasS'ID_397_F1_13_F2_16_G_4_SplitPt_182_GenID_0'
p3243
(lp3244
(lp3245
I17
aI1
aI317
aa(lp3246
I14
aI169
aI500
aasS'ID_165_F1_11_F2_17_G_3_SplitPt_81_GenID_0'
p3247
(lp3248
(lp3249
I9
aI43
aI500
aa(lp3250
I10
aI1
aI81
aasS'ID_150_F1_10_F2_11_G_3_SplitPt_216_GenID_0'
p3251
(lp3252
(lp3253
I10
aI52
aI500
aa(lp3254
I6
aI4
aI216
aasS'f11_30'
p3255
(lp3256
(lp3257
I10
aI1
aI499
aasS'ID_473_F1_15_F2_17_G_0_SplitPt_162_GenID_0'
p3258
(lp3259
(lp3260
I124
aI318
aI408
aasS'ID_499_F1_8_F2_8_G_2_SplitPt_156_GenID_0'
p3261
(lp3262
(lp3263
I5
aI1
aI500
aasS'ID_47_F1_17_F2_10_G_4_SplitPt_177_GenID_0'
p3264
(lp3265
(lp3266
I9
aI1
aI236
aa(lp3267
I6
aI178
aI500
aasS'ID_171_F1_18_F2_2_G_3_SplitPt_243_GenID_0'
p3268
(lp3269
(lp3270
I64
aI1
aI257
aa(lp3271
I26
aI242
aI500
aasS'ID_455_F1_1_F2_9_G_1_SplitPt_157_GenID_0'
p3272
(lp3273
(lp3274
I28
aI158
aI500
aa(lp3275
I18
aI5
aI183
aasS'ID_289_F1_1_F2_0_G_1_SplitPt_140_GenID_0'
p3276
(lp3277
(lp3278
I4
aI140
aI500
aasS'ID_76_F1_10_F2_13_G_2_SplitPt_147_GenID_0'
p3279
(lp3280
(lp3281
I17
aI114
aI500
aa(lp3282
I6
aI1
aI147
aasS'ID_310_F1_0_F2_11_G_0_SplitPt_57_GenID_0'
p3283
(lp3284
(lp3285
I10
aI67
aI499
aasS'ID_345_F1_8_F2_14_G_4_SplitPt_242_GenID_0'
p3286
(lp3287
(lp3288
I2
aI236
aI500
aa(lp3289
I5
aI1
aI260
aasS'ID_31_F1_15_F2_18_G_3_SplitPt_124_GenID_0'
p3290
(lp3291
(lp3292
I130
aI74
aI115
aa(lp3293
I18
aI122
aI500
aasS'ID_174_F1_7_F2_18_G_1_SplitPt_135_GenID_0'
p3294
(lp3295
(lp3296
I18
aI134
aI498
aasS'ID_325_F1_1_F2_1_G_1_SplitPt_115_GenID_0'
p3297
(lp3298
(lp3299
I18
aI32
aI500
aasS'f9_14'
p3300
(lp3301
(lp3302
I28
aI2
aI500
aasS'ID_372_F1_1_F2_5_G_4_SplitPt_135_GenID_0'
p3303
(lp3304
(lp3305
I16
aI19
aI500
aa(lp3306
I18
aI1
aI200
aasS'ID_145_F1_16_F2_1_G_3_SplitPt_51_GenID_0'
p3307
(lp3308
(lp3309
I8
aI1
aI53
aa(lp3310
I18
aI31
aI499
aasS'ID_393_F1_14_F2_10_G_2_SplitPt_197_GenID_0'
p3311
(lp3312
(lp3313
I2
aI1
aI200
aa(lp3314
I6
aI146
aI500
aasS'ID_193_F1_5_F2_16_G_1_SplitPt_133_GenID_0'
p3315
(lp3316
(lp3317
I14
aI48
aI499
aasS'f3_10'
p3318
(lp3319
(lp3320
I3
aI1
aI500
aasS'ID_6_F1_11_F2_10_G_4_SplitPt_121_GenID_0'
p3321
(lp3322
(lp3323
I29
aI119
aI175
aa(lp3324
I131
aI124
aI226
aa(lp3325
I10
aI1
aI142
aasS'ID_143_F1_15_F2_6_G_1_SplitPt_224_GenID_0'
p3326
(lp3327
(lp3328
I27
aI224
aI497
aa(lp3329
I6
aI39
aI223
aasS'f15_12'
p3330
(lp3331
(lp3332
I6
aI1
aI500
aasS'ID_144_F1_19_F2_13_G_2_SplitPt_126_GenID_0'
p3333
(lp3334
(lp3335
I17
aI89
aI500
aa(lp3336
I1
aI1
aI134
aasS'f0_18'
p3337
(lp3338
(lp3339
I4
aI2
aI500
aasS'ID_276_F1_9_F2_1_G_3_SplitPt_168_GenID_0'
p3340
(lp3341
(lp3342
I28
aI1
aI165
aa(lp3343
I18
aI132
aI500
aasS'ID_43_F1_4_F2_15_G_0_SplitPt_186_GenID_0'
p3344
(lp3345
(lp3346
I6
aI176
aI499
aasS'ID_408_F1_7_F2_15_G_4_SplitPt_73_GenID_0'
p3347
(lp3348
(lp3349
I130
aI74
aI115
aa(lp3350
I37
aI78
aI168
aa(lp3351
I47
aI1
aI76
aasS'ID_439_F1_8_F2_2_G_1_SplitPt_105_GenID_0'
p3352
(lp3353
(lp3354
I132
aI317
aI410
aa(lp3355
I133
aI113
aI255
aasS'ID_507_F1_16_F2_7_G_3_SplitPt_67_GenID_0'
p3356
(lp3357
(lp3358
I78
aI71
aI157
aa(lp3359
I8
aI2
aI67
aasS'f18_19'
p3360
(lp3361
(lp3362
I64
aI1
aI215
aa(lp3363
I18
aI65
aI499
aasS'f18_18'
p3364
(lp3365
(lp3366
I100
aI1
aI108
aa(lp3367
I18
aI116
aI499
aasS'ID_457_F1_14_F2_13_G_3_SplitPt_250_GenID_0'
p3368
(lp3369
(lp3370
I17
aI248
aI500
aa(lp3371
I2
aI1
aI291
aasS'f7_5'
p3372
(lp3373
(lp3374
I12
aI1
aI488
aasS'f18_11'
p3375
(lp3376
(lp3377
I18
aI2
aI500
aasS'f18_10'
p3378
(lp3379
(lp3380
I18
aI2
aI500
aasS'ID_106_F1_16_F2_0_G_4_SplitPt_169_GenID_0'
p3381
(lp3382
(lp3383
I4
aI125
aI500
aa(lp3384
I14
aI1
aI179
aasS'f18_12'
p3385
(lp3386
(lp3387
I18
aI5
aI500
aasS'ID_375_F1_8_F2_6_G_2_SplitPt_65_GenID_0'
p3388
(lp3389
(lp3390
I27
aI52
aI500
aasS'f18_14'
p3391
(lp3392
(lp3393
I98
aI299
aI382
aa(lp3394
I81
aI113
aI255
aasS'f18_17'
p3395
(lp3396
(lp3397
I110
aI119
aI244
aa(lp3398
I100
aI1
aI113
aasS'f18_16'
p3399
(lp3400
(lp3401
I64
aI1
aI254
aa(lp3402
I18
aI4
aI500
aasS'f12_26'
p3403
(lp3404
(lp3405
I108
aI1
aI83
aasS'ID_239_F1_2_F2_17_G_1_SplitPt_233_GenID_0'
p3406
(lp3407
(lp3408
I26
aI11
aI178
aa(lp3409
I9
aI205
aI499
aasS'ID_463_F1_11_F2_9_G_1_SplitPt_82_GenID_0'
p3410
(lp3411
(lp3412
I10
aI13
aI94
aa(lp3413
I28
aI83
aI500
aasS'ID_266_F1_19_F2_17_G_1_SplitPt_249_GenID_0'
p3414
(lp3415
(lp3416
I1
aI1
aI255
aa(lp3417
I9
aI241
aI500
aasS'f12_27'
p3418
(lp3419
(lp3420
I108
aI4
aI81
aasS'ID_110_F1_19_F2_13_G_3_SplitPt_185_GenID_0'
p3421
(lp3422
(lp3423
I101
aI2
aI78
aa(lp3424
I17
aI160
aI500
aasS'ID_136_F1_17_F2_1_G_3_SplitPt_144_GenID_0'
p3425
(lp3426
(lp3427
I9
aI1
aI148
aa(lp3428
I18
aI126
aI500
aasS'f0_11'
p3429
(lp3430
(lp3431
I134
aI98
aI149
aasS'ID_389_F1_2_F2_18_G_1_SplitPt_250_GenID_0'
p3432
(lp3433
(lp3434
I18
aI241
aI495
aasS'ID_286_F1_11_F2_18_G_4_SplitPt_177_GenID_0'
p3435
(lp3436
(lp3437
I10
aI1
aI243
aa(lp3438
I18
aI96
aI500
aasS'f14_28'
p3439
(lp3440
(lp3441
I93
aI415
aI492
aasS'ID_494_F1_12_F2_19_G_2_SplitPt_127_GenID_0'
p3442
(lp3443
(lp3444
I1
aI128
aI500
aa(lp3445
I23
aI1
aI152
aasS'f0_10'
p3446
(lp3447
(lp3448
I89
aI2
aI208
aa(lp3449
I4
aI37
aI499
aasS'f7_2'
p3450
(lp3451
(lp3452
I12
aI1
aI500
aasS'f1_30'
p3453
(lp3454
(lp3455
I18
aI1
aI499
aasS'f1_31'
p3456
(lp3457
(lp3458
I18
aI1
aI499
aasS'ID_157_F1_5_F2_15_G_3_SplitPt_207_GenID_0'
p3459
(lp3460
(lp3461
I16
aI1
aI218
aa(lp3462
I6
aI187
aI499
aasS'ID_431_F1_2_F2_8_G_3_SplitPt_175_GenID_0'
p3463
(lp3464
(lp3465
I26
aI2
aI183
aa(lp3466
I5
aI87
aI500
aasS'f14_22'
p3467
(lp3468
(lp3469
I2
aI1
aI500
aasS'f7_3'
p3470
(lp3471
(lp3472
I12
aI1
aI500
aasS'f19_30'
p3473
(lp3474
(lp3475
I1
aI3
aI493
aasS'f19_31'
p3476
(lp3477
(lp3478
I1
aI1
aI475
aasS'f14_26'
p3479
(lp3480
(lp3481
I2
aI1
aI500
aasS'f3_17'
p3482
(lp3483
(lp3484
I3
aI1
aI500
aasS'f2_28'
p3485
(lp3486
(lp3487
I15
aI3
aI60
aa(lp3488
I128
aI10
aI206
aa(lp3489
I26
aI36
aI500
aasS'f2_29'
p3490
(lp3491
(lp3492
I133
aI113
aI255
aa(lp3493
I15
aI2
aI59
aa(lp3494
I39
aI4
aI115
aa(lp3495
I128
aI15
aI209
aasS'f10_13'
p3496
(lp3497
(lp3498
I6
aI1
aI500
aasS'f10_12'
p3499
(lp3500
(lp3501
I6
aI1
aI500
aasS'ID_421_F1_7_F2_13_G_1_SplitPt_113_GenID_0'
p3502
(lp3503
(lp3504
I76
aI322
aI478
aasS'f3_14'
p3505
(lp3506
(lp3507
I3
aI1
aI500
aasS'ID_14_F1_1_F2_1_G_1_SplitPt_185_GenID_0'
p3508
(lp3509
(lp3510
I18
aI2
aI498
aasS'f10_16'
p3511
(lp3512
(lp3513
I6
aI1
aI500
aasS'f2_20'
p3514
(lp3515
(lp3516
I26
aI6
aI497
aasS'f2_21'
p3517
(lp3518
(lp3519
I26
aI4
aI497
aasS'f2_22'
p3520
(lp3521
(lp3522
I26
aI2
aI500
aasS'f2_23'
p3523
(lp3524
(lp3525
I132
aI317
aI408
aasS'f2_24'
p3526
(lp3527
(lp3528
I133
aI157
aI245
aasS'f2_25'
p3529
(lp3530
(lp3531
I26
aI1
aI500
aasS'f2_26'
p3532
(lp3533
(lp3534
I26
aI7
aI500
aasS'f2_27'
p3535
(lp3536
(lp3537
I26
aI1
aI497
aasS'ID_4_F1_2_F2_1_G_3_SplitPt_210_GenID_0'
p3538
(lp3539
(lp3540
I121
aI137
aI238
aa(lp3541
I18
aI155
aI500
aasS'ID_99_F1_12_F2_15_G_3_SplitPt_212_GenID_0'
p3542
(lp3543
(lp3544
I55
aI134
aI207
aa(lp3545
I6
aI187
aI500
aasS'f13_25'
p3546
(lp3547
(lp3548
I74
aI6
aI156
aa(lp3549
I17
aI29
aI500
aasS'f13_24'
p3550
(lp3551
(lp3552
I74
aI6
aI167
aasS'f13_27'
p3553
(lp3554
(lp3555
I74
aI13
aI177
aasS'f13_26'
p3556
(lp3557
(lp3558
I74
aI11
aI168
aa(lp3559
I17
aI14
aI488
aasS'f13_21'
p3560
(lp3561
(lp3562
I17
aI1
aI499
aasS'ID_390_F1_9_F2_2_G_3_SplitPt_239_GenID_0'
p3563
(lp3564
(lp3565
I125
aI164
aI240
aa(lp3566
I26
aI215
aI500
aasS'f13_23'
p3567
(lp3568
(lp3569
I17
aI1
aI497
aasS'f13_22'
p3570
(lp3571
(lp3572
I17
aI1
aI500
aasS'f13_29'
p3573
(lp3574
(lp3575
I72
aI2
aI83
aa(lp3576
I17
aI116
aI492
aasS'ID_261_F1_0_F2_10_G_4_SplitPt_186_GenID_0'
p3577
(lp3578
(lp3579
I134
aI98
aI149
aa(lp3580
I6
aI103
aI500
aasS'f18_8'
p3581
(lp3582
(lp3583
I18
aI1
aI500
aasS'ID_460_F1_6_F2_9_G_3_SplitPt_211_GenID_0'
p3584
(lp3585
(lp3586
I27
aI1
aI220
aa(lp3587
I28
aI164
aI500
aasS'ID_336_F1_12_F2_14_G_2_SplitPt_164_GenID_0'
p3588
(lp3589
(lp3590
I23
aI3
aI216
aa(lp3591
I2
aI147
aI500
aasS'ID_32_F1_2_F2_4_G_1_SplitPt_106_GenID_0'
p3592
(lp3593
(lp3594
I19
aI64
aI500
aasS'f15_23'
p3595
(lp3596
(lp3597
I6
aI86
aI500
aasS'ID_233_F1_2_F2_15_G_0_SplitPt_201_GenID_0'
p3598
(lp3599
(lp3600
I6
aI217
aI483
aasS'ID_161_F1_2_F2_8_G_2_SplitPt_50_GenID_0'
p3601
(lp3602
(lp3603
I5
aI39
aI500
aasS'ID_395_F1_6_F2_17_G_3_SplitPt_164_GenID_0'
p3604
(lp3605
(lp3606
I27
aI1
aI166
aa(lp3607
I9
aI123
aI500
aasS'ID_100_F1_6_F2_8_G_3_SplitPt_144_GenID_0'
p3608
(lp3609
(lp3610
I27
aI1
aI159
aa(lp3611
I5
aI77
aI500
aasS'ID_438_F1_17_F2_14_G_4_SplitPt_187_GenID_0'
p3612
(lp3613
(lp3614
I9
aI1
aI199
aa(lp3615
I2
aI159
aI500
aasS'ID_135_F1_3_F2_8_G_2_SplitPt_139_GenID_0'
p3616
(lp3617
(lp3618
I3
aI1
aI202
aa(lp3619
I5
aI97
aI500
aasS'ID_452_F1_10_F2_9_G_3_SplitPt_102_GenID_0'
p3620
(lp3621
(lp3622
I28
aI89
aI500
aa(lp3623
I6
aI1
aI194
aasS'f15_13'
p3624
(lp3625
(lp3626
I6
aI1
aI500
aasS'f14_3'
p3627
(lp3628
(lp3629
I2
aI1
aI498
aasS'ID_485_F1_0_F2_17_G_0_SplitPt_130_GenID_0'
p3630
(lp3631
(lp3632
I9
aI120
aI396
aasS'ID_318_F1_13_F2_17_G_4_SplitPt_187_GenID_0'
p3633
(lp3634
(lp3635
I17
aI1
aI266
aa(lp3636
I9
aI170
aI500
aasS'ID_347_F1_7_F2_5_G_0_SplitPt_238_GenID_0'
p3637
(lp3638
(lp3639
I12
aI71
aI209
aasS'f15_10'
p3640
(lp3641
(lp3642
I6
aI1
aI500
aasS'ID_365_F1_10_F2_18_G_1_SplitPt_201_GenID_0'
p3643
(lp3644
(lp3645
I18
aI32
aI500
aa(lp3646
I6
aI4
aI230
aasS'ID_209_F1_3_F2_2_G_4_SplitPt_117_GenID_0'
p3647
(lp3648
(lp3649
I26
aI55
aI500
aa(lp3650
I3
aI1
aI117
aasS'f17_12'
p3651
(lp3652
(lp3653
I9
aI1
aI500
aasS'f14_20'
p3654
(lp3655
(lp3656
I2
aI1
aI500
aasS'ID_468_F1_10_F2_18_G_3_SplitPt_180_GenID_0'
p3657
(lp3658
(lp3659
I18
aI151
aI500
aa(lp3660
I6
aI1
aI193
aasS'f17_13'
p3661
(lp3662
(lp3663
I9
aI2
aI500
aasS'ID_211_F1_14_F2_0_G_1_SplitPt_101_GenID_0'
p3664
(lp3665
(lp3666
I4
aI159
aI486
aasS'ID_459_F1_12_F2_4_G_4_SplitPt_199_GenID_0'
p3667
(lp3668
(lp3669
I129
aI139
aI200
aa(lp3670
I19
aI180
aI500
aasS'ID_315_F1_3_F2_9_G_4_SplitPt_102_GenID_0'
p3671
(lp3672
(lp3673
I3
aI1
aI145
aa(lp3674
I28
aI61
aI500
aasS'ID_217_F1_12_F2_10_G_0_SplitPt_155_GenID_0'
p3675
(lp3676
(lp3677
I6
aI151
aI496
aasS'ID_72_F1_6_F2_6_G_4_SplitPt_71_GenID_0'
p3678
(lp3679
(lp3680
I27
aI1
aI497
aasS'f5_17'
p3681
(lp3682
(lp3683
I16
aI3
aI500
aasS'ID_511_F1_12_F2_3_G_1_SplitPt_227_GenID_0'
p3684
(lp3685
(lp3686
I3
aI207
aI499
aa(lp3687
I23
aI1
aI239
aasS'ID_416_F1_18_F2_15_G_1_SplitPt_249_GenID_0'
p3688
(lp3689
(lp3690
I64
aI1
aI268
aa(lp3691
I6
aI246
aI498
aasS'ID_464_F1_15_F2_0_G_4_SplitPt_203_GenID_0'
p3692
(lp3693
(lp3694
I4
aI148
aI500
aa(lp3695
I6
aI1
aI236
aasS'ID_317_F1_4_F2_1_G_1_SplitPt_83_GenID_0'
p3696
(lp3697
(lp3698
I18
aI83
aI497
aasS'ID_332_F1_16_F2_5_G_1_SplitPt_133_GenID_0'
p3699
(lp3700
(lp3701
I14
aI7
aI113
aa(lp3702
I16
aI136
aI496
aasS'f16_31'
p3703
(lp3704
(lp3705
I8
aI1
aI59
aasS'f16_30'
p3706
(lp3707
(lp3708
I8
aI2
aI59
aasS'f19_10'
p3709
(lp3710
(lp3711
I1
aI1
aI500
aasS'ID_483_F1_4_F2_6_G_1_SplitPt_94_GenID_0'
p3712
(lp3713
(lp3714
I27
aI96
aI486
aasS'f0_19'
p3715
(lp3716
(lp3717
I4
aI2
aI497
aasS'ID_41_F1_7_F2_9_G_4_SplitPt_123_GenID_0'
p3718
(lp3719
(lp3720
I70
aI1
aI74
aa(lp3721
I28
aI27
aI500
aasS'ID_328_F1_10_F2_19_G_2_SplitPt_224_GenID_0'
p3722
(lp3723
(lp3724
I131
aI124
aI226
aa(lp3725
I1
aI221
aI500
aasS'f12_28'
p3726
(lp3727
(lp3728
I42
aI1
aI67
aa(lp3729
I23
aI2
aI499
aasS'f12_29'
p3730
(lp3731
(lp3732
I42
aI2
aI64
aasS'f0_13'
p3733
(lp3734
(lp3735
I89
aI1
aI226
aa(lp3736
I4
aI2
aI500
aasS'f0_12'
p3737
(lp3738
(lp3739
I89
aI1
aI226
aa(lp3740
I4
aI55
aI500
aasS'f12_24'
p3741
(lp3742
(lp3743
I108
aI1
aI81
aasS'f12_25'
p3744
(lp3745
(lp3746
I108
aI1
aI81
aasS'f0_17'
p3747
(lp3748
(lp3749
I4
aI2
aI500
aasS'f12_23'
p3750
(lp3751
(lp3752
I79
aI206
aI314
aasS'f0_15'
p3753
(lp3754
(lp3755
I89
aI2
aI227
aasS'f0_14'
p3756
(lp3757
(lp3758
I89
aI2
aI227
aa(lp3759
I4
aI9
aI493
aasS'ID_406_F1_0_F2_1_G_4_SplitPt_103_GenID_0'
p3760
(lp3761
(lp3762
I4
aI1
aI118
aa(lp3763
I5
aI104
aI225
aasS'f17_18'
p3764
(lp3765
(lp3766
I9
aI3
aI499
aasS'f17_19'
p3767
(lp3768
(lp3769
I135
aI119
aI230
aasS'ID_188_F1_4_F2_17_G_3_SplitPt_122_GenID_0'
p3770
(lp3771
(lp3772
I113
aI366
aI490
aa(lp3773
I21
aI1
aI152
aasS'f17_14'
p3774
(lp3775
(lp3776
I9
aI2
aI500
aasS'f17_15'
p3777
(lp3778
(lp3779
I123
aI399
aI493
aasS'f17_16'
p3780
(lp3781
(lp3782
I9
aI1
aI488
aasS'f17_17'
p3783
(lp3784
(lp3785
I9
aI1
aI490
aasS'f17_10'
p3786
(lp3787
(lp3788
I135
aI119
aI230
aasS'f17_11'
p3789
(lp3790
(lp3791
I9
aI6
aI500
aasS'ID_238_F1_17_F2_7_G_0_SplitPt_217_GenID_0'
p3792
(lp3793
(lp3794
I71
aI214
aI378
aa(lp3795
I12
aI301
aI500
aasS'ID_335_F1_0_F2_2_G_3_SplitPt_224_GenID_0'
p3796
(lp3797
(lp3798
I26
aI225
aI500
aa(lp3799
I4
aI2
aI365
aasS'ID_306_F1_11_F2_18_G_0_SplitPt_173_GenID_0'
p3800
(lp3801
(lp3802
I10
aI1
aI187
aa(lp3803
I18
aI293
aI473
aasS'ID_65_F1_7_F2_5_G_2_SplitPt_62_GenID_0'
p3804
(lp3805
(lp3806
I16
aI60
aI500
aasS'ID_182_F1_10_F2_1_G_0_SplitPt_124_GenID_0'
p3807
(lp3808
(lp3809
I18
aI219
aI428
aasS'ID_232_F1_2_F2_10_G_2_SplitPt_90_GenID_0'
p3810
(lp3811
(lp3812
I26
aI4
aI90
aa(lp3813
I6
aI73
aI500
aasS'ID_417_F1_15_F2_13_G_0_SplitPt_201_GenID_0'
p3814
(lp3815
(lp3816
I17
aI272
aI433
aa(lp3817
I6
aI13
aI201
aasS'ID_142_F1_7_F2_16_G_4_SplitPt_211_GenID_0'
p3818
(lp3819
(lp3820
I12
aI1
aI212
aa(lp3821
I14
aI189
aI500
aasS'f14_0'
p3822
(lp3823
(lp3824
I2
aI1
aI500
aasS'ID_205_F1_17_F2_7_G_2_SplitPt_183_GenID_0'
p3825
(lp3826
(lp3827
I12
aI56
aI500
aa(lp3828
I9
aI1
aI191
aasS'ID_319_F1_16_F2_2_G_1_SplitPt_114_GenID_0'
p3829
(lp3830
(lp3831
I26
aI99
aI500
aasS'ID_162_F1_6_F2_16_G_3_SplitPt_177_GenID_0'
p3832
(lp3833
(lp3834
I27
aI1
aI200
aa(lp3835
I14
aI152
aI500
aasS'ID_28_F1_0_F2_14_G_2_SplitPt_190_GenID_0'
p3836
(lp3837
(lp3838
I89
aI6
aI187
aa(lp3839
I2
aI163
aI500
aas.