(dp1
S'ID_3_F1_18_F2_1_G_1_SplitPt_97_GenID_0'
p2
(lp3
(lp4
I1
aI54
aI500
aasS'f6_30'
p5
(lp6
(lp7
I2
aI263
aI382
aasS'ID_143_F1_1_F2_7_G_4_SplitPt_111_GenID_0'
p8
(lp9
(lp10
I3
aI1
aI151
aa(lp11
I4
aI107
aI500
aasS'f18_8'
p12
(lp13
(lp14
I5
aI36
aI486
aasS'ID_141_F1_10_F2_11_G_2_SplitPt_175_GenID_0'
p15
(lp16
(lp17
I6
aI123
aI359
aa(lp18
I7
aI7
aI184
aa(lp19
I8
aI173
aI500
aasS'f15_29'
p20
(lp21
(lp22
I9
aI1
aI499
aasS'f15_28'
p23
(lp24
(lp25
I9
aI2
aI484
aasS'f15_27'
p26
(lp27
(lp28
I10
aI10
aI262
aa(lp29
I9
aI135
aI495
aasS'f15_26'
p30
(lp31
(lp32
I9
aI193
aI499
aasS'f15_25'
p33
(lp34
(lp35
I9
aI1
aI499
aasS'ID_92_F1_0_F2_14_G_2_SplitPt_136_GenID_0'
p36
(lp37
(lp38
I11
aI4
aI135
aa(lp39
I12
aI135
aI499
aasS'f15_23'
p40
(lp41
(lp42
I9
aI80
aI500
aasS'ID_102_F1_13_F2_7_G_4_SplitPt_57_GenID_0'
p43
(lp44
(lp45
I13
aI1
aI57
aa(lp46
I4
aI52
aI500
aasS'f15_21'
p47
(lp48
(lp49
I10
aI10
aI262
aa(lp50
I9
aI20
aI500
aasS'f15_20'
p51
(lp52
(lp53
I9
aI1
aI500
aasS'f0_3'
p54
(lp55
(lp56
I14
aI5
aI454
aasS'f14_2'
p57
(lp58
(lp59
I15
aI31
aI499
aasS'f3_30'
p60
(lp61
(lp62
I16
aI184
aI268
aasS'f3_31'
p63
(lp64
(lp65
I17
aI1
aI94
aasS'ID_186_F1_9_F2_6_G_4_SplitPt_96_GenID_0'
p66
(lp67
(lp68
I18
aI1
aI167
aa(lp69
I19
aI46
aI500
aasS'f19_29'
p70
(lp71
(lp72
I20
aI2
aI91
aa(lp73
I21
aI4
aI500
aasS'f6_0'
p74
(lp75
(lp76
I19
aI176
aI493
aasS'f15_15'
p77
(lp78
(lp79
I22
aI1
aI224
aa(lp80
I9
aI59
aI498
aasS'ID_32_F1_16_F2_0_G_3_SplitPt_90_GenID_0'
p81
(lp82
(lp83
I23
aI3
aI90
aa(lp84
I14
aI91
aI500
aasS'ID_111_F1_16_F2_3_G_2_SplitPt_170_GenID_0'
p85
(lp86
(lp87
I24
aI3
aI178
aa(lp88
I25
aI171
aI500
aasS'f17_8'
p89
(lp90
(lp91
I26
aI1
aI500
aasS'f2_11'
p92
(lp93
(lp94
I27
aI18
aI241
aa(lp95
I28
aI57
aI497
aasS'f2_10'
p96
(lp97
(lp98
I29
aI285
aI490
aa(lp99
I27
aI7
aI243
aa(lp100
I28
aI69
aI447
aasS'f2_13'
p101
(lp102
(lp103
I30
aI3
aI188
aa(lp104
I28
aI35
aI500
aasS'f2_12'
p105
(lp106
(lp107
I30
aI1
aI188
aasS'f2_15'
p108
(lp109
(lp110
I29
aI285
aI491
aasS'f2_14'
p111
(lp112
(lp113
I28
aI16
aI499
aasS'f2_17'
p114
(lp115
(lp116
I31
aI255
aI439
aasS'f2_16'
p117
(lp118
(lp119
I32
aI7
aI498
aasS'f2_19'
p120
(lp121
(lp122
I32
aI28
aI500
aasS'f2_18'
p123
(lp124
(lp125
I32
aI1
aI499
aasS'ID_228_F1_11_F2_7_G_2_SplitPt_55_GenID_0'
p126
(lp127
(lp128
I33
aI53
aI158
aa(lp129
I4
aI54
aI499
aasS'f19_20'
p130
(lp131
(lp132
I21
aI6
aI491
aasS'f4_5'
p133
(lp134
(lp135
I34
aI5
aI498
aasS'f12_22'
p136
(lp137
(lp138
I35
aI42
aI498
aasS'ID_43_F1_3_F2_13_G_3_SplitPt_197_GenID_0'
p139
(lp140
(lp141
I36
aI1
aI222
aa(lp142
I37
aI197
aI500
aasS'ID_44_F1_15_F2_9_G_3_SplitPt_73_GenID_0'
p143
(lp144
(lp145
I38
aI1
aI73
aa(lp146
I18
aI74
aI497
aasS'ID_48_F1_2_F2_18_G_3_SplitPt_188_GenID_0'
p147
(lp148
(lp149
I30
aI1
aI188
aa(lp150
I39
aI143
aI500
aasS'f19_25'
p151
(lp152
(lp153
I21
aI121
aI500
aasS'f19_24'
p154
(lp155
(lp156
I21
aI81
aI500
aasS'f17_0'
p157
(lp158
(lp159
I26
aI36
aI488
aasS'f17_1'
p160
(lp161
(lp162
I26
aI8
aI499
aasS'f8_31'
p163
(lp164
(lp165
I40
aI233
aI500
aasS'f8_30'
p166
(lp167
(lp168
I40
aI69
aI498
aasS'f0_15'
p169
(lp170
(lp171
I14
aI1
aI498
aasS'ID_15_F1_2_F2_11_G_1_SplitPt_75_GenID_0'
p172
(lp173
(lp174
I8
aI84
aI489
aasS'ID_7_F1_3_F2_19_G_2_SplitPt_174_GenID_0'
p175
(lp176
(lp177
I21
aI175
aI500
aa(lp178
I25
aI1
aI179
aasS'ID_87_F1_18_F2_11_G_1_SplitPt_68_GenID_0'
p179
(lp180
(lp181
I8
aI77
aI444
aasS'ID_226_F1_8_F2_3_G_4_SplitPt_209_GenID_0'
p182
(lp183
(lp184
I41
aI1
aI96
aa(lp185
I25
aI81
aI500
aasS'ID_233_F1_11_F2_4_G_2_SplitPt_104_GenID_0'
p186
(lp187
(lp188
I34
aI102
aI500
aa(lp189
I8
aI11
aI236
aasS'ID_14_F1_16_F2_1_G_1_SplitPt_54_GenID_0'
p190
(lp191
(lp192
I1
aI65
aI496
aasS'ID_191_F1_9_F2_0_G_3_SplitPt_206_GenID_0'
p193
(lp194
(lp195
I42
aI1
aI220
aa(lp196
I14
aI183
aI499
aasS'ID_234_F1_2_F2_6_G_2_SplitPt_192_GenID_0'
p197
(lp198
(lp199
I43
aI1
aI192
aa(lp200
I19
aI199
aI493
aasS'ID_203_F1_15_F2_3_G_4_SplitPt_221_GenID_0'
p201
(lp202
(lp203
I22
aI1
aI243
aa(lp204
I25
aI188
aI500
aasS'ID_97_F1_6_F2_15_G_3_SplitPt_175_GenID_0'
p205
(lp206
(lp207
I44
aI1
aI172
aa(lp208
I9
aI176
aI500
aasS'f11_23'
p209
(lp210
(lp211
I8
aI5
aI500
aasS'f11_22'
p212
(lp213
(lp214
I8
aI7
aI500
aasS'f11_21'
p215
(lp216
(lp217
I8
aI4
aI497
aasS'f11_20'
p218
(lp219
(lp220
I8
aI1
aI497
aasS'f11_27'
p221
(lp222
(lp223
I45
aI1
aI78
aa(lp224
I8
aI4
aI500
aasS'f11_26'
p225
(lp226
(lp227
I45
aI4
aI78
aasS'f11_25'
p228
(lp229
(lp230
I45
aI9
aI74
aasS'f11_24'
p231
(lp232
(lp233
I45
aI3
aI66
aa(lp234
I8
aI9
aI500
aasS'f11_29'
p235
(lp236
(lp237
I8
aI7
aI499
aasS'f10_23'
p238
(lp239
(lp240
I46
aI70
aI500
aasS'ID_40_F1_3_F2_11_G_2_SplitPt_60_GenID_0'
p241
(lp242
(lp243
I6
aI110
aI298
aasS'f4_31'
p244
(lp245
(lp246
I34
aI4
aI446
aasS'f4_30'
p247
(lp248
(lp249
I47
aI27
aI200
aasS'f15_9'
p250
(lp251
(lp252
I9
aI66
aI500
aasS'f19_3'
p253
(lp254
(lp255
I21
aI66
aI496
aasS'f15_22'
p256
(lp257
(lp258
I9
aI2
aI500
aasS'ID_144_F1_18_F2_13_G_2_SplitPt_234_GenID_0'
p259
(lp260
(lp261
I48
aI3
aI234
aa(lp262
I49
aI237
aI500
aasS'f7_18'
p263
(lp264
(lp265
I4
aI32
aI500
aasS'ID_56_F1_0_F2_8_G_3_SplitPt_100_GenID_0'
p266
(lp267
(lp268
I50
aI4
aI102
aa(lp269
I51
aI101
aI496
aasS'f19_19'
p270
(lp271
(lp272
I21
aI17
aI480
aasS'f7_22'
p273
(lp274
(lp275
I4
aI27
aI452
aasS'f19_4'
p276
(lp277
(lp278
I21
aI4
aI469
aasS'f7_21'
p279
(lp280
(lp281
I4
aI24
aI497
aasS'f16_22'
p282
(lp283
(lp284
I52
aI168
aI499
aasS'f7_20'
p285
(lp286
(lp287
I4
aI12
aI500
aasS'f7_19'
p288
(lp289
(lp290
I4
aI30
aI493
aasS'f8_3'
p291
(lp292
(lp293
I51
aI4
aI495
aasS'f16_20'
p294
(lp295
(lp296
I52
aI69
aI497
aasS'f7_26'
p297
(lp298
(lp299
I33
aI1
aI174
aa(lp300
I4
aI18
aI496
aasS'f3_0'
p301
(lp302
(lp303
I25
aI4
aI500
aasS'f16_21'
p304
(lp305
(lp306
I52
aI74
aI499
aasS'f8_1'
p307
(lp308
(lp309
I51
aI36
aI490
aasS'f3_1'
p310
(lp311
(lp312
I25
aI11
aI481
aasS'f14_1'
p313
(lp314
(lp315
I15
aI114
aI498
aasS'f19_5'
p316
(lp317
(lp318
I21
aI5
aI490
aasS'f8_0'
p319
(lp320
(lp321
I51
aI107
aI496
aasS'ID_64_F1_11_F2_18_G_2_SplitPt_166_GenID_0'
p322
(lp323
(lp324
I53
aI391
aI499
aa(lp325
I8
aI4
aI201
aasS'f3_2'
p326
(lp327
(lp328
I25
aI1
aI500
aasS'f14_0'
p329
(lp330
(lp331
I15
aI31
aI497
aasS'ID_242_F1_19_F2_3_G_2_SplitPt_178_GenID_0'
p332
(lp333
(lp334
I21
aI1
aI237
aa(lp335
I25
aI168
aI491
aasS'f3_3'
p336
(lp337
(lp338
I25
aI1
aI491
aasS'f14_3'
p339
(lp340
(lp341
I15
aI106
aI500
aasS'f14_31'
p342
(lp343
(lp344
I12
aI146
aI462
aasS'f14_30'
p345
(lp346
(lp347
I12
aI37
aI488
aasS'f8_22'
p348
(lp349
(lp350
I54
aI3
aI459
aa(lp351
I55
aI1
aI230
aasS'ID_114_F1_15_F2_14_G_1_SplitPt_158_GenID_0'
p352
(lp353
(lp354
I56
aI164
aI311
aasS'ID_106_F1_1_F2_16_G_4_SplitPt_166_GenID_0'
p355
(lp356
(lp357
I1
aI1
aI170
aa(lp358
I52
aI161
aI500
aasS'f3_5'
p359
(lp360
(lp361
I25
aI101
aI500
aasS'f15_16'
p362
(lp363
(lp364
I9
aI1
aI499
aasS'f15_17'
p365
(lp366
(lp367
I9
aI56
aI500
aasS'f15_14'
p368
(lp369
(lp370
I22
aI1
aI225
aasS'f19_28'
p371
(lp372
(lp373
I57
aI413
aI496
aa(lp374
I20
aI1
aI105
aa(lp375
I21
aI17
aI493
aasS'f15_12'
p376
(lp377
(lp378
I22
aI1
aI223
aa(lp379
I9
aI37
aI480
aasS'f15_13'
p380
(lp381
(lp382
I22
aI1
aI241
aa(lp383
I9
aI56
aI495
aasS'f15_10'
p384
(lp385
(lp386
I58
aI1
aI197
aasS'f15_11'
p387
(lp388
(lp389
I58
aI1
aI205
aa(lp390
I9
aI37
aI496
aasS'f19_23'
p391
(lp392
(lp393
I59
aI49
aI185
aasS'f19_22'
p394
(lp395
(lp396
I21
aI17
aI479
aasS'f19_21'
p397
(lp398
(lp399
I21
aI6
aI435
aasS'f8_21'
p400
(lp401
(lp402
I54
aI44
aI500
aa(lp403
I55
aI1
aI232
aasS'f19_27'
p404
(lp405
(lp406
I21
aI17
aI500
aasS'f19_26'
p407
(lp408
(lp409
I20
aI2
aI91
aa(lp410
I21
aI121
aI500
aasS'f15_18'
p411
(lp412
(lp413
I38
aI3
aI70
aa(lp414
I9
aI5
aI499
aasS'f15_19'
p415
(lp416
(lp417
I38
aI1
aI73
aa(lp418
I9
aI59
aI500
aasS'ID_46_F1_11_F2_17_G_2_SplitPt_232_GenID_0'
p419
(lp420
(lp421
I26
aI220
aI498
aa(lp422
I8
aI6
aI241
aasS'f10_28'
p423
(lp424
(lp425
I60
aI177
aI488
aa(lp426
I7
aI3
aI279
aasS'f10_29'
p427
(lp428
(lp429
I60
aI158
aI482
aasS'f10_24'
p430
(lp431
(lp432
I61
aI1
aI66
aasS'f10_25'
p433
(lp434
(lp435
I62
aI114
aI282
aa(lp436
I61
aI1
aI53
aa(lp437
I60
aI181
aI466
aasS'f10_26'
p438
(lp439
(lp440
I61
aI2
aI52
aa(lp441
I7
aI5
aI174
aasS'f10_27'
p442
(lp443
(lp444
I7
aI5
aI173
aa(lp445
I63
aI73
aI462
aasS'f10_20'
p446
(lp447
(lp448
I46
aI134
aI498
aasS'f10_21'
p449
(lp450
(lp451
I62
aI153
aI295
aa(lp452
I7
aI1
aI282
aasS'f10_22'
p453
(lp454
(lp455
I46
aI93
aI500
aasS'f13_15'
p456
(lp457
(lp458
I49
aI237
aI499
aasS'ID_37_F1_8_F2_17_G_4_SplitPt_78_GenID_0'
p459
(lp460
(lp461
I64
aI79
aI124
aa(lp462
I41
aI1
aI97
aasS'f16_5'
p463
(lp464
(lp465
I52
aI6
aI499
aasS'ID_104_F1_8_F2_4_G_2_SplitPt_81_GenID_0'
p466
(lp467
(lp468
I65
aI233
aI340
aasS'ID_188_F1_3_F2_4_G_2_SplitPt_192_GenID_0'
p469
(lp470
(lp471
I34
aI174
aI500
aa(lp472
I25
aI4
aI209
aasS'f16_4'
p473
(lp474
(lp475
I52
aI89
aI500
aasS'f13_10'
p476
(lp477
(lp478
I66
aI290
aI422
aa(lp479
I67
aI2
aI216
aasS'f13_11'
p480
(lp481
(lp482
I37
aI2
aI500
aasS'f13_12'
p483
(lp484
(lp485
I68
aI20
aI268
aa(lp486
I49
aI237
aI490
aasS'f13_13'
p487
(lp488
(lp489
I68
aI18
aI273
aa(lp490
I49
aI244
aI500
aasS'f13_14'
p491
(lp492
(lp493
I68
aI11
aI292
aa(lp494
I49
aI239
aI500
aa(lp495
I37
aI72
aI483
aasS'ID_198_F1_5_F2_12_G_2_SplitPt_182_GenID_0'
p496
(lp497
(lp498
I69
aI297
aI453
aa(lp499
I70
aI1
aI97
aasS'f13_16'
p500
(lp501
(lp502
I37
aI9
aI499
aasS'f13_17'
p503
(lp504
(lp505
I37
aI12
aI497
aasS'f13_18'
p506
(lp507
(lp508
I37
aI4
aI500
aasS'f13_19'
p509
(lp510
(lp511
I37
aI10
aI499
aasS'f16_9'
p512
(lp513
(lp514
I71
aI1
aI143
aa(lp515
I52
aI2
aI500
aasS'f5_26'
p516
(lp517
(lp518
I72
aI1
aI473
aasS'f0_25'
p519
(lp520
(lp521
I50
aI2
aI493
aasS'ID_67_F1_6_F2_16_G_4_SplitPt_205_GenID_0'
p522
(lp523
(lp524
I44
aI1
aI209
aa(lp525
I52
aI206
aI500
aasS'ID_166_F1_10_F2_2_G_4_SplitPt_55_GenID_0'
p526
(lp527
(lp528
I73
aI1
aI55
aa(lp529
I74
aI56
aI155
aasS'ID_77_F1_5_F2_13_G_4_SplitPt_189_GenID_0'
p530
(lp531
(lp532
I49
aI321
aI500
aa(lp533
I72
aI1
aI205
aasS'f18_25'
p534
(lp535
(lp536
I75
aI4
aI93
aa(lp537
I76
aI24
aI277
aa(lp538
I77
aI313
aI448
aasS'f18_26'
p539
(lp540
(lp541
I76
aI1
aI174
aa(lp542
I39
aI20
aI500
aasS'f18_27'
p543
(lp544
(lp545
I76
aI1
aI223
aa(lp546
I39
aI23
aI495
aasS'f18_20'
p547
(lp548
(lp549
I77
aI25
aI481
aasS'f18_21'
p550
(lp551
(lp552
I77
aI13
aI496
aasS'f18_22'
p553
(lp554
(lp555
I77
aI13
aI483
aasS'f18_23'
p556
(lp557
(lp558
I77
aI58
aI497
aasS'ID_74_F1_4_F2_7_G_1_SplitPt_126_GenID_0'
p559
(lp560
(lp561
I78
aI160
aI460
aasS'ID_159_F1_8_F2_17_G_2_SplitPt_52_GenID_0'
p562
(lp563
(lp564
I26
aI39
aI500
aasS'ID_197_F1_15_F2_0_G_4_SplitPt_137_GenID_0'
p565
(lp566
(lp567
I58
aI1
aI143
aa(lp568
I14
aI137
aI500
aasS'f18_29'
p569
(lp570
(lp571
I76
aI26
aI277
aa(lp572
I39
aI158
aI463
aasS'ID_215_F1_7_F2_4_G_1_SplitPt_230_GenID_0'
p573
(lp574
(lp575
I79
aI358
aI486
aasS'f16_23'
p576
(lp577
(lp578
I52
aI6
aI500
aasS'f11_18'
p579
(lp580
(lp581
I80
aI2
aI80
aasS'f11_19'
p582
(lp583
(lp584
I80
aI1
aI79
aa(lp585
I8
aI2
aI455
aasS'f11_12'
p586
(lp587
(lp588
I8
aI1
aI500
aasS'f11_13'
p589
(lp590
(lp591
I6
aI176
aI319
aasS'f11_10'
p592
(lp593
(lp594
I6
aI164
aI331
aasS'f11_11'
p595
(lp596
(lp597
I8
aI3
aI499
aasS'f11_16'
p598
(lp599
(lp600
I8
aI1
aI491
aasS'f11_17'
p601
(lp602
(lp603
I8
aI2
aI496
aasS'f11_14'
p604
(lp605
(lp606
I8
aI3
aI500
aasS'f11_15'
p607
(lp608
(lp609
I6
aI192
aI359
aasS'f9_14'
p610
(lp611
(lp612
I81
aI21
aI382
aa(lp613
I82
aI222
aI500
aasS'f9_15'
p614
(lp615
(lp616
I82
aI222
aI500
aa(lp617
I42
aI5
aI143
aasS'f9_16'
p618
(lp619
(lp620
I18
aI93
aI498
aasS'f9_17'
p621
(lp622
(lp623
I18
aI45
aI499
aasS'f9_10'
p624
(lp625
(lp626
I81
aI21
aI477
aa(lp627
I42
aI3
aI208
aasS'f9_11'
p628
(lp629
(lp630
I81
aI30
aI469
aa(lp631
I42
aI24
aI216
aasS'f9_12'
p632
(lp633
(lp634
I82
aI76
aI499
aa(lp635
I83
aI16
aI138
aasS'f9_13'
p636
(lp637
(lp638
I81
aI19
aI474
aa(lp639
I82
aI245
aI500
aasS'f9_18'
p640
(lp641
(lp642
I18
aI3
aI498
aasS'ID_222_F1_6_F2_11_G_2_SplitPt_249_GenID_0'
p643
(lp644
(lp645
I84
aI8
aI221
aa(lp646
I8
aI244
aI499
aasS'ID_137_F1_11_F2_14_G_4_SplitPt_155_GenID_0'
p647
(lp648
(lp649
I80
aI8
aI80
aa(lp650
I85
aI117
aI500
aasS'ID_39_F1_13_F2_11_G_1_SplitPt_82_GenID_0'
p651
(lp652
(lp653
I8
aI41
aI485
aasS'f5_18'
p654
(lp655
(lp656
I86
aI175
aI498
aasS'f5_19'
p657
(lp658
(lp659
I86
aI174
aI500
aasS'f7_14'
p660
(lp661
(lp662
I78
aI22
aI359
aasS'ID_118_F1_8_F2_6_G_4_SplitPt_213_GenID_0'
p663
(lp664
(lp665
I55
aI1
aI213
aa(lp666
I19
aI190
aI500
aasS'f7_12'
p667
(lp668
(lp669
I78
aI20
aI494
aasS'f7_13'
p670
(lp671
(lp672
I78
aI24
aI439
aasS'f7_10'
p673
(lp674
(lp675
I87
aI8
aI121
aa(lp676
I78
aI10
aI487
aasS'f7_11'
p677
(lp678
(lp679
I87
aI3
aI127
aa(lp680
I78
aI8
aI497
aasS'f5_10'
p681
(lp682
(lp683
I72
aI49
aI500
aasS'f5_11'
p684
(lp685
(lp686
I72
aI18
aI500
aasS'f5_12'
p687
(lp688
(lp689
I72
aI3
aI500
aasS'f5_13'
p690
(lp691
(lp692
I72
aI1
aI500
aasS'ID_53_F1_0_F2_10_G_4_SplitPt_185_GenID_0'
p693
(lp694
(lp695
I46
aI140
aI500
aa(lp696
I50
aI1
aI189
aasS'f5_15'
p697
(lp698
(lp699
I72
aI1
aI467
aasS'f5_16'
p700
(lp701
(lp702
I86
aI175
aI495
aasS'f5_17'
p703
(lp704
(lp705
I86
aI212
aI498
aasS'f0_14'
p706
(lp707
(lp708
I14
aI1
aI500
aasS'ID_103_F1_3_F2_7_G_2_SplitPt_104_GenID_0'
p709
(lp710
(lp711
I17
aI1
aI94
aa(lp712
I78
aI69
aI500
aasS'f12_31'
p713
(lp714
(lp715
I88
aI333
aI476
aa(lp716
I89
aI43
aI441
aasS'f12_30'
p717
(lp718
(lp719
I90
aI38
aI476
aasS'f18_24'
p720
(lp721
(lp722
I75
aI13
aI93
aa(lp723
I39
aI133
aI500
aasS'ID_199_F1_19_F2_14_G_3_SplitPt_81_GenID_0'
p724
(lp725
(lp726
I91
aI1
aI75
aa(lp727
I92
aI80
aI248
aasS'f18_13'
p728
(lp729
(lp730
I5
aI65
aI497
aasS'f13_6'
p731
(lp732
(lp733
I37
aI2
aI499
aasS'ID_225_F1_2_F2_15_G_1_SplitPt_158_GenID_0'
p734
(lp735
(lp736
I9
aI161
aI480
aasS'f13_7'
p737
(lp738
(lp739
I37
aI170
aI497
aasS'f18_15'
p740
(lp741
(lp742
I5
aI55
aI407
aasS'ID_84_F1_12_F2_8_G_4_SplitPt_81_GenID_0'
p743
(lp744
(lp745
I93
aI1
aI84
aa(lp746
I55
aI92
aI239
aasS'ID_58_F1_16_F2_18_G_3_SplitPt_142_GenID_0'
p747
(lp748
(lp749
I71
aI1
aI155
aa(lp750
I39
aI145
aI500
aasS'ID_211_F1_17_F2_0_G_3_SplitPt_156_GenID_0'
p751
(lp752
(lp753
I94
aI1
aI203
aa(lp754
I14
aI155
aI500
aasS'ID_213_F1_10_F2_2_G_3_SplitPt_65_GenID_0'
p755
(lp756
(lp757
I95
aI1
aI75
aa(lp758
I32
aI58
aI499
aasS'ID_117_F1_8_F2_18_G_2_SplitPt_244_GenID_0'
p759
(lp760
(lp761
I77
aI243
aI497
aa(lp762
I55
aI1
aI246
aasS'ID_133_F1_17_F2_16_G_4_SplitPt_183_GenID_0'
p763
(lp764
(lp765
I94
aI1
aI190
aa(lp766
I52
aI104
aI500
aasS'ID_243_F1_11_F2_17_G_2_SplitPt_160_GenID_0'
p767
(lp768
(lp769
I26
aI143
aI500
aa(lp770
I8
aI1
aI161
aasS'ID_187_F1_11_F2_6_G_3_SplitPt_169_GenID_0'
p771
(lp772
(lp773
I96
aI169
aI500
aa(lp774
I8
aI1
aI176
aasS'ID_126_F1_2_F2_7_G_1_SplitPt_208_GenID_0'
p775
(lp776
(lp777
I97
aI209
aI315
aa(lp778
I78
aI213
aI494
aasS'f3_14'
p779
(lp780
(lp781
I25
aI1
aI498
aasS'f18_28'
p782
(lp783
(lp784
I39
aI141
aI474
aasS'ID_66_F1_18_F2_10_G_1_SplitPt_102_GenID_0'
p785
(lp786
(lp787
I63
aI146
aI385
aasS'ID_60_F1_9_F2_9_G_4_SplitPt_244_GenID_0'
p788
(lp789
(lp790
I82
aI217
aI500
aa(lp791
I18
aI1
aI361
aasS'ID_194_F1_8_F2_11_G_3_SplitPt_136_GenID_0'
p792
(lp793
(lp794
I55
aI1
aI160
aa(lp795
I8
aI129
aI500
aasS'ID_237_F1_7_F2_16_G_2_SplitPt_81_GenID_0'
p796
(lp797
(lp798
I52
aI78
aI493
aasS'f7_4'
p799
(lp800
(lp801
I78
aI22
aI465
aasS'f7_5'
p802
(lp803
(lp804
I78
aI23
aI441
aasS'f7_6'
p805
(lp806
(lp807
I78
aI36
aI446
aasS'ID_216_F1_8_F2_2_G_3_SplitPt_163_GenID_0'
p808
(lp809
(lp810
I41
aI1
aI91
aa(lp811
I28
aI151
aI500
aasS'f7_0'
p812
(lp813
(lp814
I78
aI19
aI500
aasS'f7_1'
p815
(lp816
(lp817
I98
aI237
aI345
aasS'f7_2'
p818
(lp819
(lp820
I78
aI21
aI500
aasS'f7_3'
p821
(lp822
(lp823
I78
aI23
aI477
aasS'ID_52_F1_15_F2_2_G_2_SplitPt_90_GenID_0'
p824
(lp825
(lp826
I32
aI92
aI499
aasS'ID_253_F1_2_F2_15_G_1_SplitPt_191_GenID_0'
p827
(lp828
(lp829
I9
aI219
aI483
aasS'f7_8'
p830
(lp831
(lp832
I97
aI209
aI315
aasS'f7_9'
p833
(lp834
(lp835
I98
aI235
aI345
aasS'f2_4'
p836
(lp837
(lp838
I28
aI73
aI500
aasS'ID_182_F1_5_F2_17_G_1_SplitPt_92_GenID_0'
p839
(lp840
(lp841
I26
aI100
aI500
aasS'f13_8'
p842
(lp843
(lp844
I37
aI72
aI489
aasS'f13_9'
p845
(lp846
(lp847
I68
aI11
aI292
aa(lp848
I37
aI189
aI484
aasS'ID_29_F1_13_F2_5_G_4_SplitPt_236_GenID_0'
p849
(lp850
(lp851
I99
aI1
aI253
aa(lp852
I72
aI142
aI500
aasS'f19_12'
p853
(lp854
(lp855
I100
aI11
aI87
aa(lp856
I21
aI51
aI499
aasS'f19_13'
p857
(lp858
(lp859
I100
aI2
aI81
aa(lp860
I21
aI41
aI497
aasS'f5_8'
p861
(lp862
(lp863
I72
aI102
aI500
aasS'f5_9'
p864
(lp865
(lp866
I72
aI136
aI498
aasS'f19_16'
p867
(lp868
(lp869
I59
aI49
aI185
aa(lp870
I91
aI1
aI75
aasS'f19_17'
p871
(lp872
(lp873
I57
aI413
aI496
aa(lp874
I91
aI3
aI75
aa(lp875
I21
aI44
aI491
aasS'ID_80_F1_17_F2_5_G_4_SplitPt_138_GenID_0'
p876
(lp877
(lp878
I101
aI1
aI142
aa(lp879
I72
aI91
aI500
aasS'f19_15'
p880
(lp881
(lp882
I21
aI1
aI499
aasS'f5_2'
p883
(lp884
(lp885
I102
aI13
aI173
aa(lp886
I70
aI2
aI103
aa(lp887
I72
aI101
aI500
aasS'f5_3'
p888
(lp889
(lp890
I70
aI1
aI103
aa(lp891
I72
aI134
aI500
aasS'f6_31'
p892
(lp893
(lp894
I103
aI3
aI229
aa(lp895
I104
aI278
aI423
aasS'f5_1'
p896
(lp897
(lp898
I70
aI1
aI90
aa(lp899
I72
aI25
aI500
aasS'f5_6'
p900
(lp901
(lp902
I72
aI25
aI500
aasS'f5_7'
p903
(lp904
(lp905
I72
aI87
aI496
aasS'f5_4'
p906
(lp907
(lp908
I72
aI148
aI500
aasS'f5_5'
p909
(lp910
(lp911
I72
aI113
aI496
aasS'ID_127_F1_18_F2_16_G_3_SplitPt_172_GenID_0'
p912
(lp913
(lp914
I76
aI1
aI202
aa(lp915
I52
aI170
aI500
aasS'f15_0'
p916
(lp917
(lp918
I9
aI21
aI500
aasS'ID_165_F1_9_F2_17_G_1_SplitPt_129_GenID_0'
p919
(lp920
(lp921
I26
aI110
aI294
aasS'f15_2'
p922
(lp923
(lp924
I9
aI64
aI461
aasS'f9_19'
p925
(lp926
(lp927
I18
aI3
aI499
aasS'f0_8'
p928
(lp929
(lp930
I14
aI1
aI500
aasS'ID_129_F1_7_F2_3_G_1_SplitPt_66_GenID_0'
p931
(lp932
(lp933
I25
aI43
aI452
aasS'f15_24'
p934
(lp935
(lp936
I9
aI3
aI451
aasS'f8_26'
p937
(lp938
(lp939
I54
aI6
aI494
aasS'f8_27'
p940
(lp941
(lp942
I105
aI3
aI120
aa(lp943
I40
aI89
aI499
aasS'f8_24'
p944
(lp945
(lp946
I105
aI1
aI120
aa(lp947
I40
aI3
aI498
aasS'f8_25'
p948
(lp949
(lp950
I105
aI1
aI123
aa(lp951
I40
aI88
aI500
aasS'f3_4'
p952
(lp953
(lp954
I106
aI1
aI186
aasS'f8_23'
p955
(lp956
(lp957
I54
aI6
aI456
aa(lp958
I55
aI1
aI233
aasS'f3_6'
p959
(lp960
(lp961
I106
aI5
aI194
aa(lp962
I25
aI58
aI499
aasS'f3_7'
p963
(lp964
(lp965
I106
aI1
aI188
aa(lp966
I25
aI59
aI500
aasS'f3_8'
p967
(lp968
(lp969
I25
aI1
aI480
aasS'f3_9'
p970
(lp971
(lp972
I107
aI190
aI308
aasS'f8_28'
p973
(lp974
(lp975
I40
aI229
aI500
aasS'f8_29'
p976
(lp977
(lp978
I40
aI3
aI500
aasS'f1_6'
p979
(lp980
(lp981
I108
aI348
aI500
aa(lp982
I3
aI1
aI115
aasS'f1_7'
p983
(lp984
(lp985
I3
aI1
aI152
aa(lp986
I109
aI18
aI500
aasS'f1_4'
p987
(lp988
(lp989
I3
aI1
aI111
aa(lp990
I109
aI10
aI430
aasS'f1_5'
p991
(lp992
(lp993
I3
aI3
aI111
aa(lp994
I109
aI26
aI473
aasS'f1_2'
p995
(lp996
(lp997
I108
aI348
aI500
aa(lp998
I109
aI10
aI466
aasS'f1_3'
p999
(lp1000
(lp1001
I109
aI14
aI500
aasS'f1_0'
p1002
(lp1003
(lp1004
I109
aI2
aI500
aasS'f1_1'
p1005
(lp1006
(lp1007
I109
aI5
aI500
aasS'f1_8'
p1008
(lp1009
(lp1010
I109
aI108
aI496
aasS'f1_9'
p1011
(lp1012
(lp1013
I109
aI47
aI500
aasS'f9_8'
p1014
(lp1015
(lp1016
I81
aI19
aI413
aa(lp1017
I42
aI1
aI208
aasS'f9_9'
p1018
(lp1019
(lp1020
I42
aI1
aI208
aasS'f9_6'
p1021
(lp1022
(lp1023
I83
aI15
aI107
aasS'f9_7'
p1024
(lp1025
(lp1026
I110
aI24
aI195
aasS'f9_4'
p1027
(lp1028
(lp1029
I83
aI11
aI138
aasS'f9_5'
p1030
(lp1031
(lp1032
I83
aI6
aI138
aasS'f9_2'
p1033
(lp1034
(lp1035
I111
aI24
aI434
aa(lp1036
I83
aI6
aI138
aasS'f9_3'
p1037
(lp1038
(lp1039
I110
aI24
aI195
aa(lp1040
I83
aI15
aI107
aasS'f9_0'
p1041
(lp1042
(lp1043
I82
aI76
aI499
aasS'f14_25'
p1044
(lp1045
(lp1046
I56
aI169
aI264
aasS'f9_22'
p1047
(lp1048
(lp1049
I112
aI360
aI453
aasS'f17_9'
p1050
(lp1051
(lp1052
I26
aI2
aI498
aasS'f2_28'
p1053
(lp1054
(lp1055
I113
aI14
aI248
aasS'f9_29'
p1056
(lp1057
(lp1058
I18
aI2
aI437
aasS'f9_28'
p1059
(lp1060
(lp1061
I18
aI1
aI485
aasS'f2_29'
p1062
(lp1063
(lp1064
I113
aI2
aI174
aa(lp1065
I32
aI4
aI445
aasS'f9_25'
p1066
(lp1067
(lp1068
I18
aI29
aI497
aasS'f9_24'
p1069
(lp1070
(lp1071
I18
aI45
aI499
aasS'f9_27'
p1072
(lp1073
(lp1074
I18
aI33
aI489
aasS'f9_26'
p1075
(lp1076
(lp1077
I18
aI78
aI491
aasS'f9_21'
p1078
(lp1079
(lp1080
I18
aI2
aI482
aasS'f9_20'
p1081
(lp1082
(lp1083
I18
aI3
aI423
aasS'f9_23'
p1084
(lp1085
(lp1086
I18
aI4
aI498
aasS'ID_28_F1_12_F2_2_G_4_SplitPt_86_GenID_0'
p1087
(lp1088
(lp1089
I114
aI184
aI348
aa(lp1090
I115
aI1
aI86
aasS'f5_21'
p1091
(lp1092
(lp1093
I86
aI128
aI499
aasS'f5_20'
p1094
(lp1095
(lp1096
I86
aI164
aI495
aasS'f5_23'
p1097
(lp1098
(lp1099
I86
aI162
aI472
aasS'f5_22'
p1100
(lp1101
(lp1102
I86
aI162
aI485
aasS'f5_25'
p1103
(lp1104
(lp1105
I72
aI2
aI463
aasS'f5_24'
p1106
(lp1107
(lp1108
I72
aI22
aI412
aasS'f5_27'
p1109
(lp1110
(lp1111
I72
aI1
aI463
aasS'ID_47_F1_17_F2_13_G_4_SplitPt_192_GenID_0'
p1112
(lp1113
(lp1114
I66
aI290
aI422
aa(lp1115
I116
aI1
aI192
aasS'f5_29'
p1116
(lp1117
(lp1118
I72
aI2
aI489
aasS'f5_28'
p1119
(lp1120
(lp1121
I117
aI274
aI438
aasS'ID_25_F1_8_F2_4_G_3_SplitPt_198_GenID_0'
p1122
(lp1123
(lp1124
I118
aI4
aI99
aa(lp1125
I34
aI175
aI500
aasS'ID_136_F1_7_F2_13_G_1_SplitPt_99_GenID_0'
p1126
(lp1127
(lp1128
I37
aI102
aI496
aasS'f15_30'
p1129
(lp1130
(lp1131
I9
aI5
aI500
aasS'f4_28'
p1132
(lp1133
(lp1134
I34
aI19
aI470
aasS'f4_29'
p1135
(lp1136
(lp1137
I65
aI233
aI340
aasS'ID_83_F1_11_F2_15_G_4_SplitPt_79_GenID_0'
p1138
(lp1139
(lp1140
I80
aI1
aI80
aa(lp1141
I9
aI80
aI500
aasS'ID_138_F1_15_F2_10_G_3_SplitPt_54_GenID_0'
p1142
(lp1143
(lp1144
I119
aI244
aI482
aasS'f15_31'
p1145
(lp1146
(lp1147
I9
aI1
aI499
aasS'f4_22'
p1148
(lp1149
(lp1150
I34
aI199
aI500
aasS'ID_121_F1_3_F2_0_G_1_SplitPt_239_GenID_0'
p1151
(lp1152
(lp1153
I14
aI245
aI483
aasS'f4_20'
p1154
(lp1155
(lp1156
I34
aI32
aI498
aasS'f4_21'
p1157
(lp1158
(lp1159
I34
aI3
aI498
aasS'f4_26'
p1160
(lp1161
(lp1162
I120
aI3
aI149
aasS'f4_27'
p1163
(lp1164
(lp1165
I120
aI6
aI117
aa(lp1166
I34
aI19
aI500
aasS'f4_24'
p1167
(lp1168
(lp1169
I47
aI27
aI200
aa(lp1170
I120
aI1
aI118
aasS'f4_25'
p1171
(lp1172
(lp1173
I120
aI1
aI120
aa(lp1174
I34
aI2
aI499
aasS'f10_19'
p1175
(lp1176
(lp1177
I46
aI61
aI497
aasS'ID_20_F1_12_F2_1_G_4_SplitPt_239_GenID_0'
p1178
(lp1179
(lp1180
I121
aI1
aI241
aa(lp1181
I109
aI235
aI500
aasS'f10_18'
p1182
(lp1183
(lp1184
I46
aI86
aI498
aasS'ID_112_F1_10_F2_17_G_4_SplitPt_53_GenID_0'
p1185
(lp1186
(lp1187
I61
aI1
aI78
aa(lp1188
I26
aI54
aI500
aasS'f0_31'
p1189
(lp1190
(lp1191
I50
aI1
aI447
aasS'f0_30'
p1192
(lp1193
(lp1194
I50
aI4
aI447
aasS'f17_30'
p1195
(lp1196
(lp1197
I94
aI1
aI203
aa(lp1198
I26
aI148
aI499
aasS'f17_31'
p1199
(lp1200
(lp1201
I94
aI3
aI189
aa(lp1202
I26
aI113
aI499
aasS'ID_35_F1_13_F2_9_G_2_SplitPt_104_GenID_0'
p1203
(lp1204
(lp1205
I18
aI89
aI484
aasS'ID_150_F1_4_F2_13_G_1_SplitPt_193_GenID_0'
p1206
(lp1207
(lp1208
I37
aI181
aI473
aasS'ID_193_F1_15_F2_16_G_4_SplitPt_194_GenID_0'
p1209
(lp1210
(lp1211
I52
aI178
aI500
aa(lp1212
I9
aI1
aI281
aasS'ID_232_F1_0_F2_0_G_2_SplitPt_164_GenID_0'
p1213
(lp1214
(lp1215
I122
aI3
aI166
aa(lp1216
I50
aI156
aI500
aasS'ID_108_F1_12_F2_3_G_2_SplitPt_235_GenID_0'
p1217
(lp1218
(lp1219
I123
aI17
aI246
aa(lp1220
I25
aI193
aI500
aasS'ID_50_F1_4_F2_10_G_2_SplitPt_246_GenID_0'
p1221
(lp1222
(lp1223
I119
aI240
aI500
aa(lp1224
I34
aI1
aI245
aasS'ID_49_F1_6_F2_4_G_1_SplitPt_117_GenID_0'
p1225
(lp1226
(lp1227
I34
aI116
aI489
aasS'f7_16'
p1228
(lp1229
(lp1230
I4
aI14
aI499
aasS'f14_24'
p1231
(lp1232
(lp1233
I12
aI28
aI499
aasS'f1_18'
p1234
(lp1235
(lp1236
I1
aI1
aI491
aasS'f1_19'
p1237
(lp1238
(lp1239
I1
aI24
aI492
aasS'f7_17'
p1240
(lp1241
(lp1242
I4
aI24
aI500
aasS'ID_105_F1_0_F2_16_G_3_SplitPt_127_GenID_0'
p1243
(lp1244
(lp1245
I50
aI1
aI126
aa(lp1246
I52
aI126
aI500
aasS'f1_15'
p1247
(lp1248
(lp1249
I109
aI56
aI500
aasS'f1_16'
p1250
(lp1251
(lp1252
I1
aI76
aI499
aasS'ID_120_F1_10_F2_7_G_3_SplitPt_117_GenID_0'
p1253
(lp1254
(lp1255
I124
aI3
aI117
aa(lp1256
I4
aI117
aI500
aasS'f1_10'
p1257
(lp1258
(lp1259
I109
aI106
aI500
aasS'f1_11'
p1260
(lp1261
(lp1262
I109
aI159
aI499
aasS'f1_12'
p1263
(lp1264
(lp1265
I109
aI106
aI496
aasS'f1_13'
p1266
(lp1267
(lp1268
I109
aI62
aI500
aasS'f7_15'
p1269
(lp1270
(lp1271
I78
aI2
aI487
aasS'f4_23'
p1272
(lp1273
(lp1274
I34
aI5
aI500
aasS'f10_31'
p1275
(lp1276
(lp1277
I73
aI1
aI55
aa(lp1278
I60
aI158
aI409
aasS'f10_30'
p1279
(lp1280
(lp1281
I73
aI4
aI55
aa(lp1282
I60
aI122
aI451
aasS'ID_73_F1_0_F2_7_G_2_SplitPt_242_GenID_0'
p1283
(lp1284
(lp1285
I4
aI232
aI500
aa(lp1286
I14
aI1
aI257
aasS'ID_139_F1_8_F2_6_G_4_SplitPt_123_GenID_0'
p1287
(lp1288
(lp1289
I55
aI1
aI166
aa(lp1290
I19
aI100
aI500
aasS'f4_11'
p1291
(lp1292
(lp1293
I34
aI6
aI462
aasS'ID_6_F1_0_F2_17_G_3_SplitPt_204_GenID_0'
p1294
(lp1295
(lp1296
I14
aI1
aI212
aa(lp1297
I26
aI192
aI500
aasS'f19_8'
p1298
(lp1299
(lp1300
I21
aI2
aI499
aasS'f19_9'
p1301
(lp1302
(lp1303
I125
aI91
aI168
aasS'f3_18'
p1304
(lp1305
(lp1306
I36
aI1
aI200
aa(lp1307
I25
aI30
aI498
aasS'f3_19'
p1308
(lp1309
(lp1310
I36
aI1
aI196
aa(lp1311
I25
aI35
aI496
aasS'f1_29'
p1312
(lp1313
(lp1314
I1
aI53
aI500
aasS'f19_0'
p1315
(lp1316
(lp1317
I126
aI376
aI494
aasS'f19_1'
p1318
(lp1319
(lp1320
I21
aI18
aI498
aasS'f19_2'
p1321
(lp1322
(lp1323
I21
aI5
aI481
aasS'f3_11'
p1324
(lp1325
(lp1326
I127
aI220
aI331
aasS'f3_16'
p1327
(lp1328
(lp1329
I36
aI1
aI220
aa(lp1330
I25
aI4
aI500
aasS'f3_17'
p1331
(lp1332
(lp1333
I36
aI1
aI199
aasS'f19_6'
p1334
(lp1335
(lp1336
I126
aI376
aI494
aasS'f19_7'
p1337
(lp1338
(lp1339
I21
aI4
aI500
aasS'ID_5_F1_14_F2_5_G_3_SplitPt_124_GenID_0'
p1340
(lp1341
(lp1342
I128
aI1
aI122
aa(lp1343
I72
aI88
aI500
aasS'f5_14'
p1344
(lp1345
(lp1346
I72
aI1
aI500
aasS'f18_31'
p1347
(lp1348
(lp1349
I39
aI19
aI500
aasS'f18_30'
p1350
(lp1351
(lp1352
I39
aI191
aI500
aasS'ID_183_F1_17_F2_15_G_4_SplitPt_124_GenID_0'
p1353
(lp1354
(lp1355
I64
aI79
aI124
aa(lp1356
I9
aI86
aI500
aasS'f4_19'
p1357
(lp1358
(lp1359
I129
aI72
aI201
aa(lp1360
I79
aI390
aI486
aa(lp1361
I130
aI14
aI144
aasS'f12_0'
p1362
(lp1363
(lp1364
I115
aI2
aI85
aa(lp1365
I35
aI94
aI500
aasS'f6_9'
p1366
(lp1367
(lp1368
I131
aI1
aI60
aa(lp1369
I96
aI33
aI498
aasS'f6_8'
p1370
(lp1371
(lp1372
I131
aI2
aI56
aa(lp1373
I96
aI18
aI407
aasS'f6_5'
p1374
(lp1375
(lp1376
I19
aI189
aI493
aasS'f6_4'
p1377
(lp1378
(lp1379
I19
aI176
aI468
aasS'f6_7'
p1380
(lp1381
(lp1382
I19
aI273
aI464
aasS'f6_6'
p1383
(lp1384
(lp1385
I19
aI65
aI463
aasS'f6_1'
p1386
(lp1387
(lp1388
I19
aI247
aI469
aasS'ID_248_F1_4_F2_19_G_3_SplitPt_105_GenID_0'
p1389
(lp1390
(lp1391
I132
aI1
aI106
aa(lp1392
I21
aI89
aI498
aasS'f6_3'
p1393
(lp1394
(lp1395
I2
aI263
aI382
aasS'f6_2'
p1396
(lp1397
(lp1398
I19
aI11
aI500
aasS'f4_3'
p1399
(lp1400
(lp1401
I132
aI1
aI142
aa(lp1402
I34
aI70
aI500
aasS'f4_2'
p1403
(lp1404
(lp1405
I129
aI71
aI201
aa(lp1406
I133
aI249
aI464
aa(lp1407
I132
aI4
aI149
aasS'f4_1'
p1408
(lp1409
(lp1410
I132
aI11
aI149
aa(lp1411
I34
aI72
aI490
aasS'f4_0'
p1412
(lp1413
(lp1414
I132
aI2
aI141
aa(lp1415
I34
aI70
aI498
aasS'f4_7'
p1416
(lp1417
(lp1418
I34
aI10
aI500
aasS'f4_6'
p1419
(lp1420
(lp1421
I34
aI21
aI499
aasS'ID_131_F1_10_F2_13_G_2_SplitPt_175_GenID_0'
p1422
(lp1423
(lp1424
I7
aI1
aI209
aa(lp1425
I37
aI178
aI499
aasS'f4_4'
p1426
(lp1427
(lp1428
I34
aI1
aI500
aasS'f17_2'
p1429
(lp1430
(lp1431
I26
aI32
aI500
aasS'f17_3'
p1432
(lp1433
(lp1434
I26
aI1
aI474
aasS'f4_9'
p1435
(lp1436
(lp1437
I34
aI6
aI431
aasS'f4_8'
p1438
(lp1439
(lp1440
I133
aI249
aI464
aasS'f17_6'
p1441
(lp1442
(lp1443
I26
aI1
aI489
aasS'f17_7'
p1444
(lp1445
(lp1446
I26
aI1
aI490
aasS'f17_4'
p1447
(lp1448
(lp1449
I26
aI1
aI484
aasS'f17_5'
p1450
(lp1451
(lp1452
I26
aI1
aI483
aasS'ID_161_F1_0_F2_11_G_2_SplitPt_130_GenID_0'
p1453
(lp1454
(lp1455
I8
aI99
aI498
aasS'ID_224_F1_0_F2_14_G_3_SplitPt_146_GenID_0'
p1456
(lp1457
(lp1458
I12
aI136
aI500
aa(lp1459
I14
aI1
aI183
aasS'ID_229_F1_6_F2_13_G_3_SplitPt_191_GenID_0'
p1460
(lp1461
(lp1462
I44
aI1
aI195
aa(lp1463
I37
aI192
aI498
aasS'f8_7'
p1464
(lp1465
(lp1466
I134
aI4
aI175
aasS'f8_6'
p1467
(lp1468
(lp1469
I134
aI4
aI212
aasS'f8_5'
p1470
(lp1471
(lp1472
I134
aI4
aI197
aa(lp1473
I51
aI9
aI431
aasS'f8_4'
p1474
(lp1475
(lp1476
I134
aI1
aI202
aa(lp1477
I51
aI31
aI462
aasS'f7_27'
p1478
(lp1479
(lp1480
I33
aI1
aI169
aa(lp1481
I4
aI51
aI498
aasS'f8_2'
p1482
(lp1483
(lp1484
I118
aI4
aI99
aasS'f7_25'
p1485
(lp1486
(lp1487
I33
aI1
aI130
aa(lp1488
I4
aI114
aI500
aasS'f7_24'
p1489
(lp1490
(lp1491
I33
aI1
aI172
aa(lp1492
I4
aI3
aI500
aasS'f7_29'
p1493
(lp1494
(lp1495
I4
aI112
aI499
aasS'f7_28'
p1496
(lp1497
(lp1498
I33
aI9
aI125
aa(lp1499
I4
aI18
aI496
aasS'f8_9'
p1500
(lp1501
(lp1502
I135
aI334
aI492
aa(lp1503
I41
aI1
aI96
aasS'f8_8'
p1504
(lp1505
(lp1506
I41
aI1
aI78
aa(lp1507
I136
aI2
aI211
aa(lp1508
I51
aI105
aI495
aasS'ID_178_F1_18_F2_2_G_2_SplitPt_132_GenID_0'
p1509
(lp1510
(lp1511
I28
aI119
aI483
aasS'f11_0'
p1512
(lp1513
(lp1514
I8
aI92
aI497
aasS'f11_1'
p1515
(lp1516
(lp1517
I137
aI72
aI258
aa(lp1518
I8
aI84
aI500
aasS'f11_2'
p1519
(lp1520
(lp1521
I8
aI1
aI498
aasS'f11_3'
p1522
(lp1523
(lp1524
I8
aI10
aI498
aasS'f11_4'
p1525
(lp1526
(lp1527
I8
aI6
aI500
aasS'f11_5'
p1528
(lp1529
(lp1530
I8
aI7
aI500
aasS'f11_6'
p1531
(lp1532
(lp1533
I8
aI7
aI491
aasS'f11_7'
p1534
(lp1535
(lp1536
I8
aI7
aI499
aasS'f11_8'
p1537
(lp1538
(lp1539
I8
aI1
aI500
aasS'f11_9'
p1540
(lp1541
(lp1542
I8
aI1
aI496
aasS'f2_9'
p1543
(lp1544
(lp1545
I27
aI1
aI242
aa(lp1546
I28
aI59
aI500
aasS'f2_8'
p1547
(lp1548
(lp1549
I27
aI62
aI242
aasS'f13_4'
p1550
(lp1551
(lp1552
I37
aI2
aI499
aasS'f13_5'
p1553
(lp1554
(lp1555
I67
aI10
aI234
aasS'f13_2'
p1556
(lp1557
(lp1558
I67
aI2
aI231
aa(lp1559
I37
aI19
aI500
aasS'f13_3'
p1560
(lp1561
(lp1562
I67
aI53
aI215
aasS'f13_0'
p1563
(lp1564
(lp1565
I13
aI1
aI57
aa(lp1566
I37
aI2
aI500
aasS'f13_1'
p1567
(lp1568
(lp1569
I13
aI2
aI56
aa(lp1570
I67
aI10
aI234
aasS'f2_1'
p1571
(lp1572
(lp1573
I43
aI2
aI187
aa(lp1574
I28
aI70
aI500
aasS'f2_0'
p1575
(lp1576
(lp1577
I43
aI1
aI192
aa(lp1578
I28
aI48
aI500
aasS'f2_3'
p1579
(lp1580
(lp1581
I28
aI63
aI498
aasS'f2_2'
p1582
(lp1583
(lp1584
I114
aI189
aI349
aa(lp1585
I43
aI6
aI189
aasS'f2_5'
p1586
(lp1587
(lp1588
I28
aI82
aI500
aasS'f1_17'
p1589
(lp1590
(lp1591
I1
aI73
aI499
aasS'f2_7'
p1592
(lp1593
(lp1594
I28
aI88
aI499
aasS'f2_6'
p1595
(lp1596
(lp1597
I114
aI184
aI348
aasS'f15_4'
p1598
(lp1599
(lp1600
I9
aI1
aI461
aasS'f15_5'
p1601
(lp1602
(lp1603
I138
aI283
aI444
aasS'f15_6'
p1604
(lp1605
(lp1606
I9
aI11
aI500
aasS'f15_7'
p1607
(lp1608
(lp1609
I9
aI5
aI460
aasS'ID_168_F1_5_F2_13_G_1_SplitPt_230_GenID_0'
p1610
(lp1611
(lp1612
I72
aI3
aI98
aasS'f15_1'
p1613
(lp1614
(lp1615
I9
aI32
aI340
aasS'f0_9'
p1616
(lp1617
(lp1618
I14
aI6
aI500
aasS'f15_3'
p1619
(lp1620
(lp1621
I138
aI283
aI444
aasS'f0_7'
p1622
(lp1623
(lp1624
I14
aI1
aI500
aasS'f0_6'
p1625
(lp1626
(lp1627
I122
aI3
aI166
aasS'f0_5'
p1628
(lp1629
(lp1630
I14
aI5
aI500
aasS'f0_4'
p1631
(lp1632
(lp1633
I14
aI2
aI500
aasS'f15_8'
p1634
(lp1635
(lp1636
I58
aI4
aI185
aa(lp1637
I9
aI47
aI496
aasS'f0_2'
p1638
(lp1639
(lp1640
I14
aI4
aI429
aasS'f0_1'
p1641
(lp1642
(lp1643
I14
aI1
aI320
aasS'f0_0'
p1644
(lp1645
(lp1646
I14
aI2
aI437
aasS'f1_28'
p1647
(lp1648
(lp1649
I1
aI8
aI492
aasS'ID_204_F1_12_F2_14_G_2_SplitPt_118_GenID_0'
p1650
(lp1651
(lp1652
I15
aI93
aI499
aasS'ID_115_F1_13_F2_2_G_1_SplitPt_206_GenID_0'
p1653
(lp1654
(lp1655
I31
aI255
aI439
aasS'ID_152_F1_9_F2_2_G_3_SplitPt_159_GenID_0'
p1656
(lp1657
(lp1658
I42
aI3
aI173
aa(lp1659
I32
aI159
aI500
aasS'ID_36_F1_14_F2_1_G_3_SplitPt_83_GenID_0'
p1660
(lp1661
(lp1662
I139
aI1
aI89
aa(lp1663
I1
aI76
aI499
aasS'ID_57_F1_16_F2_1_G_0_SplitPt_249_GenID_0'
p1664
(lp1665
(lp1666
I1
aI274
aI494
aasS'ID_135_F1_18_F2_0_G_2_SplitPt_57_GenID_0'
p1667
(lp1668
(lp1669
I140
aI55
aI497
aasS'ID_185_F1_19_F2_10_G_4_SplitPt_92_GenID_0'
p1670
(lp1671
(lp1672
I62
aI114
aI295
aa(lp1673
I20
aI1
aI103
aasS'ID_172_F1_18_F2_1_G_4_SplitPt_242_GenID_0'
p1674
(lp1675
(lp1676
I48
aI1
aI246
aa(lp1677
I109
aI239
aI500
aasS'ID_10_F1_3_F2_7_G_3_SplitPt_190_GenID_0'
p1678
(lp1679
(lp1680
I106
aI1
aI194
aa(lp1681
I4
aI173
aI500
aasS'ID_180_F1_2_F2_16_G_1_SplitPt_116_GenID_0'
p1682
(lp1683
(lp1684
I52
aI120
aI499
aasS'ID_220_F1_6_F2_3_G_1_SplitPt_120_GenID_0'
p1685
(lp1686
(lp1687
I107
aI190
aI308
aasS'f16_13'
p1688
(lp1689
(lp1690
I52
aI65
aI500
aasS'f16_12'
p1691
(lp1692
(lp1693
I52
aI64
aI498
aasS'f16_11'
p1694
(lp1695
(lp1696
I52
aI166
aI486
aasS'f16_10'
p1697
(lp1698
(lp1699
I52
aI146
aI486
aasS'f16_17'
p1700
(lp1701
(lp1702
I52
aI6
aI500
aasS'f16_16'
p1703
(lp1704
(lp1705
I52
aI280
aI495
aasS'f16_15'
p1706
(lp1707
(lp1708
I52
aI78
aI498
aasS'f16_14'
p1709
(lp1710
(lp1711
I52
aI2
aI499
aasS'f16_19'
p1712
(lp1713
(lp1714
I52
aI21
aI496
aasS'f16_18'
p1715
(lp1716
(lp1717
I52
aI2
aI497
aasS'f3_15'
p1718
(lp1719
(lp1720
I25
aI1
aI499
aasS'ID_192_F1_19_F2_3_G_4_SplitPt_218_GenID_0'
p1721
(lp1722
(lp1723
I127
aI220
aI331
aa(lp1724
I21
aI1
aI258
aasS'f6_24'
p1725
(lp1726
(lp1727
I19
aI101
aI499
aasS'f6_25'
p1728
(lp1729
(lp1730
I141
aI3
aI155
aa(lp1731
I19
aI9
aI500
aasS'f6_26'
p1732
(lp1733
(lp1734
I19
aI61
aI496
aasS'f6_27'
p1735
(lp1736
(lp1737
I141
aI1
aI155
aa(lp1738
I19
aI9
aI495
aasS'ID_101_F1_17_F2_5_G_4_SplitPt_173_GenID_0'
p1739
(lp1740
(lp1741
I86
aI174
aI500
aa(lp1742
I26
aI1
aI190
aasS'f6_21'
p1743
(lp1744
(lp1745
I44
aI1
aI179
aa(lp1746
I19
aI89
aI499
aasS'f6_22'
p1747
(lp1748
(lp1749
I104
aI289
aI423
aasS'f6_23'
p1750
(lp1751
(lp1752
I19
aI9
aI500
aasS'f6_28'
p1753
(lp1754
(lp1755
I19
aI90
aI500
aasS'f6_29'
p1756
(lp1757
(lp1758
I19
aI58
aI500
aasS'f1_25'
p1759
(lp1760
(lp1761
I142
aI3
aI101
aa(lp1762
I1
aI39
aI492
aasS'f1_24'
p1763
(lp1764
(lp1765
I142
aI3
aI103
aasS'f1_27'
p1766
(lp1767
(lp1768
I142
aI4
aI102
aasS'f1_26'
p1769
(lp1770
(lp1771
I142
aI2
aI115
aa(lp1772
I1
aI5
aI435
aasS'f14_19'
p1773
(lp1774
(lp1775
I128
aI1
aI122
aa(lp1776
I85
aI126
aI494
aasS'f14_18'
p1777
(lp1778
(lp1779
I128
aI1
aI119
aa(lp1780
I85
aI15
aI500
aasS'f1_23'
p1781
(lp1782
(lp1783
I1
aI1
aI459
aasS'f1_22'
p1784
(lp1785
(lp1786
I1
aI1
aI446
aasS'f14_15'
p1787
(lp1788
(lp1789
I143
aI34
aI498
aasS'f14_14'
p1790
(lp1791
(lp1792
I143
aI6
aI498
aasS'f14_17'
p1793
(lp1794
(lp1795
I128
aI7
aI118
aa(lp1796
I85
aI18
aI497
aasS'f14_16'
p1797
(lp1798
(lp1799
I128
aI5
aI114
aa(lp1800
I85
aI6
aI500
aasS'f14_11'
p1801
(lp1802
(lp1803
I144
aI1
aI181
aa(lp1804
I143
aI35
aI488
aasS'f14_10'
p1805
(lp1806
(lp1807
I144
aI19
aI191
aa(lp1808
I143
aI32
aI488
aasS'f14_13'
p1809
(lp1810
(lp1811
I143
aI5
aI495
aasS'f14_12'
p1812
(lp1813
(lp1814
I143
aI27
aI496
aasS'ID_88_F1_12_F2_10_G_3_SplitPt_93_GenID_0'
p1815
(lp1816
(lp1817
I145
aI4
aI92
aa(lp1818
I63
aI94
aI499
aasS'f6_20'
p1819
(lp1820
(lp1821
I44
aI1
aI186
aa(lp1822
I19
aI47
aI496
aasS'f2_31'
p1823
(lp1824
(lp1825
I113
aI6
aI212
aasS'f2_30'
p1826
(lp1827
(lp1828
I113
aI1
aI198
aasS'ID_61_F1_6_F2_11_G_4_SplitPt_60_GenID_0'
p1829
(lp1830
(lp1831
I131
aI1
aI60
aa(lp1832
I8
aI59
aI500
aasS'ID_33_F1_7_F2_3_G_2_SplitPt_126_GenID_0'
p1833
(lp1834
(lp1835
I33
aI3
aI125
aa(lp1836
I25
aI141
aI500
aasS'f7_23'
p1837
(lp1838
(lp1839
I4
aI22
aI499
aasS'ID_249_F1_6_F2_5_G_1_SplitPt_239_GenID_0'
p1840
(lp1841
(lp1842
I117
aI274
aI438
aa(lp1843
I103
aI3
aI229
aasS'ID_169_F1_2_F2_19_G_1_SplitPt_66_GenID_0'
p1844
(lp1845
(lp1846
I21
aI93
aI489
aasS'ID_99_F1_18_F2_8_G_3_SplitPt_92_GenID_0'
p1847
(lp1848
(lp1849
I146
aI1
aI92
aa(lp1850
I51
aI64
aI500
aasS'f13_30'
p1851
(lp1852
(lp1853
I99
aI1
aI383
aa(lp1854
I37
aI229
aI498
aasS'f13_31'
p1855
(lp1856
(lp1857
I99
aI3
aI236
aa(lp1858
I37
aI59
aI500
aasS'ID_245_F1_6_F2_8_G_3_SplitPt_87_GenID_0'
p1859
(lp1860
(lp1861
I147
aI1
aI87
aa(lp1862
I40
aI88
aI499
aasS'ID_255_F1_0_F2_5_G_3_SplitPt_126_GenID_0'
p1863
(lp1864
(lp1865
I50
aI3
aI126
aa(lp1866
I72
aI128
aI489
aasS'f8_13'
p1867
(lp1868
(lp1869
I51
aI59
aI500
aasS'f8_12'
p1870
(lp1871
(lp1872
I51
aI75
aI500
aasS'f8_11'
p1873
(lp1874
(lp1875
I136
aI6
aI207
aa(lp1876
I51
aI60
aI500
aasS'f8_10'
p1877
(lp1878
(lp1879
I136
aI18
aI194
aa(lp1880
I51
aI59
aI500
aasS'f8_17'
p1881
(lp1882
(lp1883
I135
aI334
aI492
aa(lp1884
I55
aI1
aI246
aasS'f8_16'
p1885
(lp1886
(lp1887
I51
aI322
aI492
aasS'f8_15'
p1888
(lp1889
(lp1890
I51
aI96
aI496
aasS'f8_14'
p1891
(lp1892
(lp1893
I51
aI111
aI500
aasS'f8_19'
p1894
(lp1895
(lp1896
I54
aI3
aI500
aa(lp1897
I55
aI1
aI239
aasS'ID_109_F1_0_F2_7_G_2_SplitPt_191_GenID_0'
p1898
(lp1899
(lp1900
I148
aI4
aI223
aa(lp1901
I78
aI159
aI497
aasS'ID_4_F1_2_F2_5_G_3_SplitPt_157_GenID_0'
p1902
(lp1903
(lp1904
I74
aI1
aI155
aa(lp1905
I86
aI118
aI499
aasS'ID_95_F1_4_F2_15_G_3_SplitPt_149_GenID_0'
p1906
(lp1907
(lp1908
I132
aI4
aI149
aa(lp1909
I9
aI145
aI499
aasS'f18_1'
p1910
(lp1911
(lp1912
I146
aI8
aI92
aa(lp1913
I5
aI39
aI487
aasS'f8_20'
p1914
(lp1915
(lp1916
I54
aI33
aI479
aa(lp1917
I55
aI1
aI213
aasS'f18_3'
p1918
(lp1919
(lp1920
I146
aI1
aI92
aa(lp1921
I5
aI93
aI500
aasS'f18_2'
p1922
(lp1923
(lp1924
I5
aI31
aI475
aasS'f18_5'
p1925
(lp1926
(lp1927
I5
aI30
aI498
aasS'f18_4'
p1928
(lp1929
(lp1930
I53
aI391
aI499
aa(lp1931
I5
aI13
aI497
aasS'f18_7'
p1932
(lp1933
(lp1934
I5
aI24
aI493
aasS'f18_6'
p1935
(lp1936
(lp1937
I5
aI39
aI498
aasS'f18_9'
p1938
(lp1939
(lp1940
I5
aI36
aI497
aasS'f1_21'
p1941
(lp1942
(lp1943
I1
aI5
aI228
aasS'ID_41_F1_6_F2_10_G_2_SplitPt_156_GenID_0'
p1944
(lp1945
(lp1946
I141
aI1
aI155
aa(lp1947
I60
aI122
aI488
aasS'f1_20'
p1948
(lp1949
(lp1950
I1
aI1
aI418
aasS'f0_16'
p1951
(lp1952
(lp1953
I140
aI4
aI429
aa(lp1954
I50
aI1
aI186
aasS'ID_2_F1_17_F2_19_G_4_SplitPt_123_GenID_0'
p1955
(lp1956
(lp1957
I149
aI1
aI123
aa(lp1958
I21
aI70
aI500
aasS'f9_30'
p1959
(lp1960
(lp1961
I18
aI1
aI486
aasS'f9_31'
p1962
(lp1963
(lp1964
I18
aI1
aI499
aasS'ID_132_F1_1_F2_0_G_3_SplitPt_106_GenID_0'
p1965
(lp1966
(lp1967
I142
aI2
aI106
aa(lp1968
I14
aI64
aI500
aasS'f5_30'
p1969
(lp1970
(lp1971
I72
aI33
aI496
aasS'f5_31'
p1972
(lp1973
(lp1974
I72
aI2
aI489
aasS'ID_160_F1_10_F2_10_G_1_SplitPt_192_GenID_0'
p1975
(lp1976
(lp1977
I62
aI153
aI295
aasS'f19_11'
p1978
(lp1979
(lp1980
I21
aI1
aI500
aasS'ID_122_F1_5_F2_11_G_1_SplitPt_157_GenID_0'
p1981
(lp1982
(lp1983
I8
aI232
aI468
aasS'ID_94_F1_8_F2_5_G_3_SplitPt_123_GenID_0'
p1984
(lp1985
(lp1986
I105
aI1
aI123
aa(lp1987
I72
aI99
aI500
aasS'f1_14'
p1988
(lp1989
(lp1990
I109
aI47
aI500
aasS'f16_28'
p1991
(lp1992
(lp1993
I52
aI90
aI497
aasS'f16_29'
p1994
(lp1995
(lp1996
I52
aI60
aI500
aasS'f14_9'
p1997
(lp1998
(lp1999
I144
aI32
aI177
aasS'f14_8'
p2000
(lp2001
(lp2002
I144
aI24
aI176
aasS'f19_18'
p2003
(lp2004
(lp2005
I21
aI47
aI499
aasS'f14_5'
p2006
(lp2007
(lp2008
I139
aI4
aI118
aa(lp2009
I15
aI181
aI497
aasS'f14_4'
p2010
(lp2011
(lp2012
I139
aI1
aI118
aa(lp2013
I15
aI31
aI500
aasS'f14_7'
p2014
(lp2015
(lp2016
I143
aI34
aI497
aasS'f14_6'
p2017
(lp2018
(lp2019
I15
aI31
aI451
aasS'f16_26'
p2020
(lp2021
(lp2022
I24
aI5
aI146
aa(lp2023
I52
aI195
aI497
aasS'f16_27'
p2024
(lp2025
(lp2026
I24
aI66
aI164
aa(lp2027
I52
aI91
aI498
aasS'f16_24'
p2028
(lp2029
(lp2030
I24
aI3
aI190
aa(lp2031
I52
aI183
aI498
aasS'f16_25'
p2032
(lp2033
(lp2034
I24
aI14
aI165
aa(lp2035
I52
aI63
aI497
aasS'f16_3'
p2036
(lp2037
(lp2038
I52
aI6
aI500
aasS'f16_2'
p2039
(lp2040
(lp2041
I52
aI46
aI500
aasS'f16_1'
p2042
(lp2043
(lp2044
I23
aI3
aI90
aa(lp2045
I52
aI7
aI494
aasS'f16_0'
p2046
(lp2047
(lp2048
I150
aI1
aI164
aa(lp2049
I52
aI83
aI498
aasS'f16_7'
p2050
(lp2051
(lp2052
I52
aI8
aI499
aasS'f16_6'
p2053
(lp2054
(lp2055
I52
aI7
aI500
aasS'f0_28'
p2056
(lp2057
(lp2058
I50
aI15
aI493
aasS'f0_29'
p2059
(lp2060
(lp2061
I50
aI35
aI496
aasS'f0_26'
p2062
(lp2063
(lp2064
I50
aI1
aI498
aasS'f0_27'
p2065
(lp2066
(lp2067
I50
aI1
aI500
aasS'ID_76_F1_11_F2_2_G_4_SplitPt_70_GenID_0'
p2068
(lp2069
(lp2070
I30
aI68
aI188
aa(lp2071
I45
aI1
aI78
aasS'f16_8'
p2072
(lp2073
(lp2074
I71
aI1
aI155
aa(lp2075
I52
aI103
aI500
aasS'f0_22'
p2076
(lp2077
(lp2078
I148
aI4
aI219
aasS'f0_23'
p2079
(lp2080
(lp2081
I151
aI215
aI441
aa(lp2082
I148
aI15
aI180
aasS'f0_20'
p2083
(lp2084
(lp2085
I11
aI4
aI135
aa(lp2086
I140
aI70
aI492
aasS'f0_21'
p2087
(lp2088
(lp2089
I140
aI25
aI493
aasS'f17_21'
p2090
(lp2091
(lp2092
I101
aI1
aI103
aa(lp2093
I26
aI14
aI500
aasS'f17_20'
p2094
(lp2095
(lp2096
I101
aI1
aI133
aa(lp2097
I26
aI54
aI500
aasS'f17_23'
p2098
(lp2099
(lp2100
I101
aI1
aI142
aasS'f17_22'
p2101
(lp2102
(lp2103
I101
aI1
aI139
aasS'f17_25'
p2104
(lp2105
(lp2106
I116
aI1
aI192
aa(lp2107
I26
aI71
aI499
aasS'f17_24'
p2108
(lp2109
(lp2110
I116
aI3
aI192
aasS'f17_27'
p2111
(lp2112
(lp2113
I116
aI19
aI191
aa(lp2114
I26
aI203
aI488
aasS'f17_26'
p2115
(lp2116
(lp2117
I116
aI3
aI191
aa(lp2118
I26
aI75
aI488
aasS'f17_29'
p2119
(lp2120
(lp2121
I94
aI1
aI175
aa(lp2122
I26
aI101
aI499
aasS'f17_28'
p2123
(lp2124
(lp2125
I152
aI3
aI79
aa(lp2126
I26
aI73
aI500
aasS'ID_23_F1_14_F2_13_G_3_SplitPt_248_GenID_0'
p2127
(lp2128
(lp2129
I92
aI1
aI262
aa(lp2130
I37
aI232
aI500
aasS'f3_12'
p2131
(lp2132
(lp2133
I25
aI1
aI500
aasS'ID_157_F1_2_F2_13_G_4_SplitPt_196_GenID_0'
p2134
(lp2135
(lp2136
I113
aI1
aI219
aa(lp2137
I37
aI177
aI500
aasS'ID_239_F1_18_F2_19_G_3_SplitPt_93_GenID_0'
p2138
(lp2139
(lp2140
I75
aI4
aI93
aa(lp2141
I21
aI70
aI500
aasS'ID_51_F1_2_F2_11_G_3_SplitPt_243_GenID_0'
p2142
(lp2143
(lp2144
I27
aI1
aI246
aa(lp2145
I8
aI225
aI500
aasS'ID_175_F1_1_F2_18_G_3_SplitPt_215_GenID_0'
p2146
(lp2147
(lp2148
I5
aI164
aI498
aa(lp2149
I109
aI2
aI224
aasS'ID_176_F1_13_F2_13_G_1_SplitPt_85_GenID_0'
p2150
(lp2151
(lp2152
I99
aI27
aI238
aasS'f10_9'
p2153
(lp2154
(lp2155
I63
aI2
aI500
aasS'f10_8'
p2156
(lp2157
(lp2158
I153
aI134
aI281
aa(lp2159
I119
aI265
aI423
aasS'f11_28'
p2160
(lp2161
(lp2162
I8
aI232
aI499
aasS'f10_1'
p2163
(lp2164
(lp2165
I63
aI83
aI500
aasS'f10_0'
p2166
(lp2167
(lp2168
I153
aI136
aI281
aasS'f10_3'
p2169
(lp2170
(lp2171
I63
aI28
aI495
aasS'f10_2'
p2172
(lp2173
(lp2174
I63
aI131
aI496
aasS'f10_5'
p2175
(lp2176
(lp2177
I63
aI7
aI498
aasS'f10_4'
p2178
(lp2179
(lp2180
I95
aI1
aI78
aa(lp2181
I63
aI20
aI499
aasS'f10_7'
p2182
(lp2183
(lp2184
I63
aI50
aI498
aasS'f10_6'
p2185
(lp2186
(lp2187
I63
aI83
aI497
aasS'f4_17'
p2188
(lp2189
(lp2190
I130
aI1
aI151
aa(lp2191
I34
aI19
aI489
aasS'f4_16'
p2192
(lp2193
(lp2194
I130
aI1
aI151
aa(lp2195
I34
aI29
aI484
aasS'f4_15'
p2196
(lp2197
(lp2198
I34
aI54
aI457
aasS'f4_13'
p2199
(lp2200
(lp2201
I34
aI6
aI281
aasS'f4_12'
p2202
(lp2203
(lp2204
I34
aI30
aI487
aasS'f12_9'
p2205
(lp2206
(lp2207
I35
aI4
aI433
aasS'f12_8'
p2208
(lp2209
(lp2210
I35
aI48
aI492
aasS'f12_7'
p2211
(lp2212
(lp2213
I154
aI426
aI497
aa(lp2214
I155
aI2
aI154
aa(lp2215
I93
aI1
aI84
aasS'f12_6'
p2216
(lp2217
(lp2218
I35
aI8
aI497
aasS'f12_5'
p2219
(lp2220
(lp2221
I93
aI1
aI84
aa(lp2222
I35
aI7
aI497
aasS'f12_4'
p2223
(lp2224
(lp2225
I93
aI1
aI84
aa(lp2226
I35
aI2
aI498
aasS'f12_3'
p2227
(lp2228
(lp2229
I35
aI3
aI499
aasS'f12_2'
p2230
(lp2231
(lp2232
I35
aI63
aI498
aasS'f12_1'
p2233
(lp2234
(lp2235
I115
aI1
aI86
aa(lp2236
I35
aI21
aI499
aasS'f4_18'
p2237
(lp2238
(lp2239
I79
aI358
aI472
aasS'f3_27'
p2240
(lp2241
(lp2242
I25
aI1
aI500
aasS'f3_26'
p2243
(lp2244
(lp2245
I17
aI1
aI86
aasS'f3_25'
p2246
(lp2247
(lp2248
I17
aI4
aI89
aasS'f3_24'
p2249
(lp2250
(lp2251
I17
aI1
aI92
aa(lp2252
I25
aI2
aI491
aasS'f3_23'
p2253
(lp2254
(lp2255
I156
aI5
aI183
aasS'f3_22'
p2256
(lp2257
(lp2258
I156
aI4
aI121
aa(lp2259
I25
aI24
aI500
aasS'f3_21'
p2260
(lp2261
(lp2262
I156
aI5
aI181
aasS'f3_20'
p2263
(lp2264
(lp2265
I156
aI14
aI172
aasS'f3_29'
p2266
(lp2267
(lp2268
I157
aI349
aI483
aa(lp2269
I25
aI1
aI479
aasS'f3_28'
p2270
(lp2271
(lp2272
I25
aI1
aI479
aasS'ID_231_F1_9_F2_1_G_3_SplitPt_155_GenID_0'
p2273
(lp2274
(lp2275
I109
aI120
aI500
aa(lp2276
I18
aI1
aI164
aasS'ID_173_F1_2_F2_6_G_1_SplitPt_62_GenID_0'
p2277
(lp2278
(lp2279
I158
aI265
aI407
aasS'f6_19'
p2280
(lp2281
(lp2282
I44
aI1
aI206
aa(lp2283
I19
aI12
aI500
aasS'f6_18'
p2284
(lp2285
(lp2286
I44
aI1
aI205
aa(lp2287
I19
aI9
aI500
aasS'ID_195_F1_4_F2_19_G_4_SplitPt_119_GenID_0'
p2288
(lp2289
(lp2290
I159
aI122
aI181
aa(lp2291
I120
aI1
aI144
aasS'f6_15'
p2292
(lp2293
(lp2294
I96
aI33
aI478
aasS'f6_14'
p2295
(lp2296
(lp2297
I96
aI169
aI483
aasS'f6_17'
p2298
(lp2299
(lp2300
I44
aI5
aI209
aa(lp2301
I19
aI131
aI499
aasS'f6_16'
p2302
(lp2303
(lp2304
I158
aI265
aI409
aa(lp2305
I44
aI1
aI204
aasS'f6_11'
p2306
(lp2307
(lp2308
I147
aI2
aI87
aa(lp2309
I160
aI82
aI236
aa(lp2310
I96
aI157
aI488
aasS'f6_10'
p2311
(lp2312
(lp2313
I147
aI1
aI86
aa(lp2314
I104
aI278
aI421
aa(lp2315
I96
aI119
aI408
aasS'f6_13'
p2316
(lp2317
(lp2318
I96
aI18
aI500
aasS'f6_12'
p2319
(lp2320
(lp2321
I84
aI8
aI221
aa(lp2322
I96
aI65
aI500
aasS'ID_17_F1_16_F2_17_G_1_SplitPt_60_GenID_0'
p2323
(lp2324
(lp2325
I26
aI122
aI425
aasS'ID_31_F1_1_F2_8_G_4_SplitPt_228_GenID_0'
p2326
(lp2327
(lp2328
I40
aI199
aI500
aa(lp2329
I1
aI1
aI229
aasS'ID_27_F1_14_F2_2_G_3_SplitPt_118_GenID_0'
p2330
(lp2331
(lp2332
I139
aI1
aI118
aa(lp2333
I32
aI122
aI499
aasS'ID_158_F1_9_F2_10_G_1_SplitPt_157_GenID_0'
p2334
(lp2335
(lp2336
I46
aI267
aI494
aasS'f3_13'
p2337
(lp2338
(lp2339
I25
aI23
aI500
aasS'ID_171_F1_3_F2_11_G_4_SplitPt_182_GenID_0'
p2340
(lp2341
(lp2342
I25
aI1
aI182
aa(lp2343
I8
aI146
aI500
aasS'ID_72_F1_14_F2_9_G_2_SplitPt_103_GenID_0'
p2344
(lp2345
(lp2346
I18
aI77
aI492
aasS'ID_170_F1_16_F2_9_G_3_SplitPt_98_GenID_0'
p2347
(lp2348
(lp2349
I112
aI360
aI453
aa(lp2350
I161
aI1
aI96
aasS'ID_59_F1_7_F2_10_G_3_SplitPt_127_GenID_0'
p2351
(lp2352
(lp2353
I87
aI3
aI127
aa(lp2354
I63
aI114
aI499
aasS'ID_254_F1_12_F2_10_G_2_SplitPt_116_GenID_0'
p2355
(lp2356
(lp2357
I162
aI12
aI120
aa(lp2358
I63
aI120
aI500
aasS'ID_123_F1_3_F2_1_G_2_SplitPt_137_GenID_0'
p2359
(lp2360
(lp2361
I1
aI135
aI497
aa(lp2362
I25
aI1
aI179
aasS'ID_146_F1_0_F2_5_G_3_SplitPt_159_GenID_0'
p2363
(lp2364
(lp2365
I14
aI1
aI161
aa(lp2366
I72
aI155
aI500
aasS'ID_200_F1_0_F2_11_G_4_SplitPt_230_GenID_0'
p2367
(lp2368
(lp2369
I163
aI143
aI223
aa(lp2370
I8
aI218
aI500
aasS'f7_30'
p2371
(lp2372
(lp2373
I4
aI55
aI498
aasS'f7_31'
p2374
(lp2375
(lp2376
I33
aI3
aI107
aasS'f12_17'
p2377
(lp2378
(lp2379
I121
aI2
aI233
aasS'f12_16'
p2380
(lp2381
(lp2382
I121
aI2
aI237
aa(lp2383
I35
aI36
aI472
aasS'f12_15'
p2384
(lp2385
(lp2386
I35
aI2
aI429
aasS'f12_14'
p2387
(lp2388
(lp2389
I164
aI136
aI265
aasS'f12_13'
p2390
(lp2391
(lp2392
I35
aI2
aI442
aasS'f12_12'
p2393
(lp2394
(lp2395
I155
aI2
aI153
aasS'f12_11'
p2396
(lp2397
(lp2398
I164
aI136
aI265
aa(lp2399
I162
aI12
aI120
aasS'ID_252_F1_17_F2_15_G_4_SplitPt_135_GenID_0'
p2400
(lp2401
(lp2402
I152
aI3
aI79
aa(lp2403
I9
aI135
aI500
aasS'f12_19'
p2404
(lp2405
(lp2406
I69
aI297
aI453
aa(lp2407
I121
aI1
aI241
aasS'f12_18'
p2408
(lp2409
(lp2410
I121
aI1
aI322
aa(lp2411
I35
aI4
aI480
aasS'ID_206_F1_4_F2_2_G_3_SplitPt_148_GenID_0'
p2412
(lp2413
(lp2414
I130
aI1
aI151
aa(lp2415
I28
aI132
aI500
aasS'ID_214_F1_13_F2_17_G_3_SplitPt_200_GenID_0'
p2416
(lp2417
(lp2418
I99
aI1
aI213
aa(lp2419
I26
aI195
aI500
aasS'f11_30'
p2420
(lp2421
(lp2422
I8
aI1
aI440
aasS'f11_31'
p2423
(lp2424
(lp2425
I8
aI1
aI463
aasS'f12_10'
p2426
(lp2427
(lp2428
I35
aI3
aI500
aasS'ID_81_F1_3_F2_10_G_2_SplitPt_165_GenID_0'
p2429
(lp2430
(lp2431
I156
aI5
aI185
aa(lp2432
I63
aI165
aI493
aasS'ID_45_F1_11_F2_12_G_2_SplitPt_240_GenID_0'
p2433
(lp2434
(lp2435
I35
aI237
aI499
aa(lp2436
I8
aI1
aI241
aasS'f3_10'
p2437
(lp2438
(lp2439
I25
aI2
aI480
aasS'ID_246_F1_19_F2_17_G_3_SplitPt_181_GenID_0'
p2440
(lp2441
(lp2442
I125
aI91
aI168
aa(lp2443
I159
aI122
aI181
aa(lp2444
I26
aI162
aI500
aasS'ID_190_F1_10_F2_2_G_2_SplitPt_102_GenID_0'
p2445
(lp2446
(lp2447
I28
aI78
aI500
aasS'ID_19_F1_14_F2_10_G_2_SplitPt_178_GenID_0'
p2448
(lp2449
(lp2450
I144
aI1
aI191
aa(lp2451
I46
aI120
aI499
aasS'ID_240_F1_19_F2_18_G_3_SplitPt_87_GenID_0'
p2452
(lp2453
(lp2454
I100
aI1
aI87
aa(lp2455
I5
aI34
aI500
aasS'ID_82_F1_18_F2_6_G_2_SplitPt_89_GenID_0'
p2456
(lp2457
(lp2458
I19
aI90
aI500
aasS'ID_113_F1_7_F2_14_G_3_SplitPt_174_GenID_0'
p2459
(lp2460
(lp2461
I33
aI1
aI174
aa(lp2462
I143
aI176
aI498
aasS'ID_65_F1_19_F2_0_G_3_SplitPt_180_GenID_0'
p2463
(lp2464
(lp2465
I14
aI126
aI500
aa(lp2466
I21
aI2
aI223
aasS'f18_19'
p2467
(lp2468
(lp2469
I48
aI2
aI246
aa(lp2470
I77
aI62
aI441
aasS'f18_18'
p2471
(lp2472
(lp2473
I48
aI1
aI242
aa(lp2474
I77
aI128
aI497
aasS'f8_18'
p2475
(lp2476
(lp2477
I54
aI53
aI499
aa(lp2478
I55
aI1
aI232
aasS'ID_75_F1_15_F2_3_G_4_SplitPt_183_GenID_0'
p2479
(lp2480
(lp2481
I16
aI184
aI268
aa(lp2482
I157
aI349
aI483
aa(lp2483
I58
aI1
aI213
aasS'ID_100_F1_6_F2_1_G_0_SplitPt_242_GenID_0'
p2484
(lp2485
(lp2486
I109
aI282
aI471
aasS'f18_11'
p2487
(lp2488
(lp2489
I5
aI36
aI488
aasS'f18_10'
p2490
(lp2491
(lp2492
I5
aI17
aI500
aasS'ID_107_F1_8_F2_11_G_3_SplitPt_230_GenID_0'
p2493
(lp2494
(lp2495
I55
aI1
aI233
aa(lp2496
I8
aI234
aI497
aasS'f18_12'
p2497
(lp2498
(lp2499
I5
aI299
aI496
aasS'ID_202_F1_17_F2_5_G_3_SplitPt_85_GenID_0'
p2500
(lp2501
(lp2502
I152
aI3
aI79
aa(lp2503
I72
aI63
aI500
aasS'f18_14'
p2504
(lp2505
(lp2506
I5
aI36
aI414
aasS'f18_17'
p2507
(lp2508
(lp2509
I48
aI7
aI241
aa(lp2510
I77
aI17
aI452
aasS'f18_16'
p2511
(lp2512
(lp2513
I48
aI1
aI241
aa(lp2514
I77
aI13
aI439
aasS'f0_13'
p2515
(lp2516
(lp2517
I14
aI1
aI499
aasS'ID_71_F1_17_F2_6_G_4_SplitPt_245_GenID_0'
p2518
(lp2519
(lp2520
I19
aI206
aI500
aa(lp2521
I26
aI1
aI256
aasS'f7_7'
p2522
(lp2523
(lp2524
I78
aI19
aI498
aasS'f0_12'
p2525
(lp2526
(lp2527
I14
aI1
aI500
aasS'f0_11'
p2528
(lp2529
(lp2530
I14
aI1
aI500
aasS'f14_28'
p2531
(lp2532
(lp2533
I12
aI26
aI497
aasS'f14_29'
p2534
(lp2535
(lp2536
I92
aI11
aI263
aa(lp2537
I12
aI28
aI500
aasS'f0_10'
p2538
(lp2539
(lp2540
I14
aI1
aI495
aasS'ID_70_F1_13_F2_11_G_3_SplitPt_217_GenID_0'
p2541
(lp2542
(lp2543
I99
aI1
aI270
aa(lp2544
I8
aI218
aI500
aasS'f1_30'
p2545
(lp2546
(lp2547
I1
aI5
aI469
aasS'f14_20'
p2548
(lp2549
(lp2550
I92
aI1
aI261
aa(lp2551
I85
aI109
aI496
aasS'f14_21'
p2552
(lp2553
(lp2554
I92
aI123
aI249
aasS'f14_22'
p2555
(lp2556
(lp2557
I92
aI4
aI249
aa(lp2558
I85
aI80
aI499
aasS'f14_23'
p2559
(lp2560
(lp2561
I92
aI2
aI262
aa(lp2562
I85
aI18
aI500
aasS'f19_30'
p2563
(lp2564
(lp2565
I20
aI2
aI91
aa(lp2566
I21
aI77
aI481
aasS'f19_31'
p2567
(lp2568
(lp2569
I20
aI2
aI91
aa(lp2570
I21
aI47
aI481
aasS'f14_26'
p2571
(lp2572
(lp2573
I12
aI32
aI486
aasS'f14_27'
p2574
(lp2575
(lp2576
I56
aI175
aI311
aasS'f10_11'
p2577
(lp2578
(lp2579
I119
aI253
aI500
aa(lp2580
I63
aI1
aI497
aasS'f10_10'
p2581
(lp2582
(lp2583
I119
aI253
aI482
aasS'f10_13'
p2584
(lp2585
(lp2586
I124
aI3
aI111
aa(lp2587
I63
aI11
aI489
aasS'f10_12'
p2588
(lp2589
(lp2590
I124
aI4
aI117
aa(lp2591
I63
aI50
aI500
aasS'f10_15'
p2592
(lp2593
(lp2594
I63
aI26
aI489
aasS'f10_14'
p2595
(lp2596
(lp2597
I63
aI1
aI500
aasS'f10_17'
p2598
(lp2599
(lp2600
I46
aI137
aI492
aasS'f10_16'
p2601
(lp2602
(lp2603
I46
aI115
aI499
aasS'f2_20'
p2604
(lp2605
(lp2606
I74
aI1
aI155
aasS'f2_21'
p2607
(lp2608
(lp2609
I74
aI3
aI155
aa(lp2610
I32
aI7
aI500
aasS'f2_22'
p2611
(lp2612
(lp2613
I165
aI2
aI86
aa(lp2614
I74
aI23
aI155
aa(lp2615
I32
aI50
aI495
aasS'f2_23'
p2616
(lp2617
(lp2618
I165
aI3
aI67
aa(lp2619
I74
aI35
aI150
aa(lp2620
I32
aI39
aI500
aasS'f2_24'
p2621
(lp2622
(lp2623
I113
aI9
aI182
aasS'f2_25'
p2624
(lp2625
(lp2626
I113
aI4
aI198
aasS'f2_26'
p2627
(lp2628
(lp2629
I113
aI17
aI248
aasS'f2_27'
p2630
(lp2631
(lp2632
I113
aI34
aI175
aasS'ID_196_F1_4_F2_2_G_3_SplitPt_56_GenID_0'
p2633
(lp2634
(lp2635
I27
aI56
aI245
aa(lp2636
I28
aI57
aI498
aasS'ID_184_F1_9_F2_11_G_1_SplitPt_69_GenID_0'
p2637
(lp2638
(lp2639
I137
aI72
aI258
aa(lp2640
I8
aI75
aI442
aasS'f13_25'
p2641
(lp2642
(lp2643
I99
aI1
aI222
aa(lp2644
I37
aI59
aI496
aasS'f13_24'
p2645
(lp2646
(lp2647
I99
aI1
aI414
aa(lp2648
I37
aI198
aI497
aasS'f13_27'
p2649
(lp2650
(lp2651
I99
aI1
aI263
aa(lp2652
I37
aI192
aI447
aasS'f13_26'
p2653
(lp2654
(lp2655
I99
aI2
aI231
aa(lp2656
I37
aI12
aI500
aasS'f13_21'
p2657
(lp2658
(lp2659
I37
aI181
aI499
aasS'f13_20'
p2660
(lp2661
(lp2662
I37
aI2
aI500
aasS'f13_23'
p2663
(lp2664
(lp2665
I37
aI20
aI498
aasS'f13_22'
p2666
(lp2667
(lp2668
I37
aI198
aI499
aasS'f13_29'
p2669
(lp2670
(lp2671
I99
aI1
aI360
aa(lp2672
I37
aI158
aI496
aasS'f13_28'
p2673
(lp2674
(lp2675
I99
aI1
aI414
aa(lp2676
I37
aI250
aI500
aasS'f17_19'
p2677
(lp2678
(lp2679
I26
aI1
aI449
aasS'ID_151_F1_10_F2_6_G_4_SplitPt_223_GenID_0'
p2680
(lp2681
(lp2682
I63
aI1
aI276
aa(lp2683
I19
aI192
aI500
aasS'ID_189_F1_6_F2_16_G_3_SplitPt_236_GenID_0'
p2684
(lp2685
(lp2686
I160
aI1
aI242
aa(lp2687
I52
aI160
aI500
aasS'ID_11_F1_4_F2_12_G_1_SplitPt_136_GenID_0'
p2688
(lp2689
(lp2690
I35
aI146
aI453
aasS'f0_24'
p2691
(lp2692
(lp2693
I50
aI8
aI500
aasS'f17_17'
p2694
(lp2695
(lp2696
I26
aI1
aI482
aasS'ID_208_F1_15_F2_1_G_2_SplitPt_197_GenID_0'
p2697
(lp2698
(lp2699
I109
aI199
aI486
aasS'ID_22_F1_15_F2_11_G_2_SplitPt_59_GenID_0'
p2700
(lp2701
(lp2702
I8
aI39
aI500
aasS'f17_11'
p2703
(lp2704
(lp2705
I26
aI1
aI500
aasS'ID_8_F1_6_F2_19_G_2_SplitPt_56_GenID_0'
p2706
(lp2707
(lp2708
I21
aI51
aI499
aasS'ID_26_F1_7_F2_3_G_1_SplitPt_84_GenID_0'
p2709
(lp2710
(lp2711
I25
aI89
aI499
aasS'ID_223_F1_5_F2_19_G_4_SplitPt_105_GenID_0'
p2712
(lp2713
(lp2714
I72
aI1
aI105
aa(lp2715
I21
aI104
aI500
aasS'ID_241_F1_17_F2_11_G_2_SplitPt_226_GenID_0'
p2716
(lp2717
(lp2718
I26
aI1
aI240
aa(lp2719
I8
aI229
aI499
aasS'ID_134_F1_1_F2_12_G_2_SplitPt_79_GenID_0'
p2720
(lp2721
(lp2722
I121
aI79
aI322
aasS'ID_140_F1_5_F2_12_G_4_SplitPt_103_GenID_0'
p2723
(lp2724
(lp2725
I70
aI1
aI103
aa(lp2726
I35
aI104
aI500
aasS'ID_63_F1_17_F2_11_G_2_SplitPt_227_GenID_0'
p2727
(lp2728
(lp2729
I26
aI1
aI217
aa(lp2730
I8
aI203
aI499
aasS'f16_31'
p2731
(lp2732
(lp2733
I161
aI1
aI93
aa(lp2734
I52
aI2
aI499
aasS'f16_30'
p2735
(lp2736
(lp2737
I161
aI1
aI96
aa(lp2738
I52
aI61
aI495
aasS'f19_10'
p2739
(lp2740
(lp2741
I21
aI6
aI500
aasS'f0_19'
p2742
(lp2743
(lp2744
I151
aI215
aI441
aa(lp2745
I50
aI5
aI184
aasS'f0_18'
p2746
(lp2747
(lp2748
I140
aI45
aI497
aa(lp2749
I50
aI1
aI189
aasS'ID_142_F1_18_F2_14_G_2_SplitPt_240_GenID_0'
p2750
(lp2751
(lp2752
I76
aI1
aI225
aa(lp2753
I85
aI253
aI490
aasS'f12_28'
p2754
(lp2755
(lp2756
I89
aI40
aI455
aasS'f12_29'
p2757
(lp2758
(lp2759
I154
aI426
aI497
aa(lp2760
I166
aI308
aI491
aasS'f12_26'
p2761
(lp2762
(lp2763
I166
aI308
aI491
aa(lp2764
I145
aI4
aI87
aasS'f12_27'
p2765
(lp2766
(lp2767
I145
aI1
aI92
aa(lp2768
I123
aI43
aI252
aasS'f12_24'
p2769
(lp2770
(lp2771
I88
aI333
aI476
aasS'f12_25'
p2772
(lp2773
(lp2774
I123
aI17
aI233
aa(lp2775
I89
aI93
aI480
aasS'f0_17'
p2776
(lp2777
(lp2778
I140
aI69
aI488
aa(lp2779
I50
aI1
aI185
aasS'f12_23'
p2780
(lp2781
(lp2782
I121
aI13
aI241
aa(lp2783
I35
aI80
aI499
aasS'f12_20'
p2784
(lp2785
(lp2786
I35
aI34
aI497
aasS'f12_21'
p2787
(lp2788
(lp2789
I35
aI3
aI499
aasS'ID_179_F1_3_F2_14_G_3_SplitPt_123_GenID_0'
p2790
(lp2791
(lp2792
I156
aI4
aI121
aa(lp2793
I85
aI74
aI500
aasS'f17_18'
p2794
(lp2795
(lp2796
I26
aI31
aI469
aasS'f19_14'
p2797
(lp2798
(lp2799
I21
aI1
aI500
aasS'f18_0'
p2800
(lp2801
(lp2802
I5
aI24
aI500
aasS'f17_14'
p2803
(lp2804
(lp2805
I149
aI1
aI125
aa(lp2806
I26
aI54
aI494
aasS'f17_15'
p2807
(lp2808
(lp2809
I149
aI1
aI124
aa(lp2810
I26
aI54
aI500
aasS'f17_16'
p2811
(lp2812
(lp2813
I26
aI14
aI446
aasS'ID_30_F1_3_F2_16_G_1_SplitPt_176_GenID_0'
p2814
(lp2815
(lp2816
I52
aI166
aI498
aasS'f17_10'
p2817
(lp2818
(lp2819
I26
aI7
aI499
aasS'ID_163_F1_9_F2_13_G_1_SplitPt_196_GenID_0'
p2820
(lp2821
(lp2822
I37
aI225
aI498
aasS'f17_12'
p2823
(lp2824
(lp2825
I149
aI2
aI105
aasS'f17_13'
p2826
(lp2827
(lp2828
I149
aI1
aI104
aasS'ID_153_F1_4_F2_0_G_3_SplitPt_141_GenID_0'
p2829
(lp2830
(lp2831
I163
aI143
aI223
aa(lp2832
I132
aI2
aI141
aasS'ID_212_F1_11_F2_17_G_3_SplitPt_160_GenID_0'
p2833
(lp2834
(lp2835
I26
aI137
aI499
aa(lp2836
I8
aI1
aI160
aasS'ID_42_F1_0_F2_13_G_2_SplitPt_133_GenID_0'
p2837
(lp2838
(lp2839
I37
aI133
aI500
aasS'f5_0'
p2840
(lp2841
(lp2842
I70
aI1
aI94
aa(lp2843
I72
aI29
aI500
aasS'ID_13_F1_2_F2_2_G_3_SplitPt_70_GenID_0'
p2844
(lp2845
(lp2846
I165
aI2
aI87
aa(lp2847
I28
aI52
aI500
aas.