(dp1
S'f6_30'
p2
(lp3
(lp4
I1
aI86
aI498
aasS'ID_16_F1_4_F2_2_G_2_SplitPt_104_GenID_0'
p5
(lp6
(lp7
I2
aI118
aI488
aasS'ID_99_F1_3_F2_10_G_2_SplitPt_118_GenID_0'
p8
(lp9
(lp10
I3
aI158
aI293
aa(lp11
I4
aI159
aI482
aasS'ID_124_F1_7_F2_4_G_3_SplitPt_172_GenID_0'
p12
(lp13
(lp14
I5
aI173
aI500
aa(lp15
I6
aI8
aI186
aasS'f15_29'
p16
(lp17
(lp18
I7
aI110
aI398
aasS'f15_27'
p19
(lp20
(lp21
I7
aI1
aI498
aasS'f15_26'
p22
(lp23
(lp24
I7
aI12
aI442
aasS'f15_25'
p25
(lp26
(lp27
I7
aI40
aI483
aasS'f15_24'
p28
(lp29
(lp30
I7
aI12
aI498
aasS'f15_23'
p31
(lp32
(lp33
I8
aI40
aI213
aa(lp34
I9
aI101
aI496
aasS'f15_22'
p35
(lp36
(lp37
I10
aI345
aI496
aa(lp38
I8
aI40
aI274
aa(lp39
I9
aI42
aI483
aasS'f15_21'
p40
(lp41
(lp42
I8
aI5
aI214
aa(lp43
I9
aI41
aI466
aasS'f15_20'
p44
(lp45
(lp46
I8
aI5
aI214
aasS'f3_30'
p47
(lp48
(lp49
I11
aI14
aI459
aasS'f7_11'
p50
(lp51
(lp52
I12
aI1
aI142
aa(lp53
I13
aI23
aI463
aasS'ID_98_F1_4_F2_3_G_4_SplitPt_109_GenID_0'
p54
(lp55
(lp56
I14
aI1
aI144
aa(lp57
I15
aI98
aI500
aasS'f15_10'
p58
(lp59
(lp60
I16
aI83
aI497
aasS'f2_10'
p61
(lp62
(lp63
I17
aI227
aI402
aasS'f2_13'
p64
(lp65
(lp66
I18
aI78
aI467
aa(lp67
I19
aI1
aI132
aasS'f2_12'
p68
(lp69
(lp70
I20
aI76
aI192
aa(lp71
I19
aI1
aI111
aasS'f2_15'
p72
(lp73
(lp74
I21
aI99
aI321
aasS'f2_14'
p75
(lp76
(lp77
I19
aI12
aI137
aasS'f2_17'
p78
(lp79
(lp80
I22
aI179
aI293
aa(lp81
I23
aI200
aI500
aasS'f2_16'
p82
(lp83
(lp84
I23
aI224
aI500
aasS'f2_19'
p85
(lp86
(lp87
I2
aI15
aI460
aasS'f2_18'
p88
(lp89
(lp90
I2
aI3
aI418
aasS'ID_105_F1_4_F2_7_G_3_SplitPt_112_GenID_0'
p91
(lp92
(lp93
I14
aI1
aI107
aa(lp94
I24
aI112
aI499
aasS'f15_18'
p95
(lp96
(lp97
I8
aI31
aI192
aa(lp98
I9
aI41
aI486
aasS'ID_62_F1_3_F2_18_G_3_SplitPt_168_GenID_0'
p99
(lp100
(lp101
I25
aI6
aI173
aa(lp102
I26
aI163
aI498
aasS'f17_0'
p103
(lp104
(lp105
I27
aI84
aI500
aasS'ID_65_F1_2_F2_4_G_4_SplitPt_105_GenID_0'
p106
(lp107
(lp108
I19
aI1
aI138
aa(lp109
I28
aI96
aI500
aasS'ID_97_F1_14_F2_12_G_4_SplitPt_50_GenID_0'
p110
(lp111
(lp112
I29
aI1
aI50
aa(lp113
I30
aI51
aI500
aasS'f8_30'
p114
(lp115
(lp116
I31
aI25
aI415
aasS'ID_53_F1_10_F2_6_G_4_SplitPt_149_GenID_0'
p117
(lp118
(lp119
I32
aI1
aI151
aa(lp120
I1
aI150
aI500
aasS'ID_64_F1_11_F2_14_G_4_SplitPt_66_GenID_0'
p121
(lp122
(lp123
I33
aI2
aI122
aa(lp124
I34
aI1
aI66
aa(lp125
I35
aI62
aI499
aasS'f11_23'
p126
(lp127
(lp128
I36
aI136
aI470
aasS'f11_22'
p129
(lp130
(lp131
I37
aI1
aI242
aa(lp132
I36
aI144
aI500
aasS'f11_27'
p133
(lp134
(lp135
I38
aI10
aI144
aasS'f11_26'
p136
(lp137
(lp138
I38
aI4
aI153
aasS'f11_25'
p139
(lp140
(lp141
I39
aI172
aI497
aasS'f11_24'
p142
(lp143
(lp144
I39
aI201
aI497
aasS'f11_29'
p145
(lp146
(lp147
I40
aI25
aI330
aa(lp148
I34
aI1
aI66
aa(lp149
I39
aI201
aI498
aasS'f11_28'
p150
(lp151
(lp152
I33
aI2
aI110
aa(lp153
I37
aI3
aI329
aa(lp154
I39
aI172
aI466
aasS'ID_34_F1_1_F2_1_G_4_SplitPt_230_GenID_0'
p155
(lp156
(lp157
I41
aI182
aI500
aa(lp158
I42
aI1
aI87
aasS'f4_31'
p159
(lp160
(lp161
I43
aI149
aI499
aasS'ID_21_F1_3_F2_1_G_4_SplitPt_142_GenID_0'
p162
(lp163
(lp164
I44
aI1
aI155
aa(lp165
I45
aI137
aI500
aasS'ID_103_F1_10_F2_10_G_4_SplitPt_65_GenID_0'
p166
(lp167
(lp168
I46
aI1
aI70
aa(lp169
I47
aI59
aI500
aasS'ID_17_F1_14_F2_2_G_4_SplitPt_193_GenID_0'
p170
(lp171
(lp172
I48
aI220
aI367
aa(lp173
I49
aI1
aI226
aasS'f8_7'
p174
(lp175
(lp176
I50
aI6
aI500
aasS'ID_58_F1_5_F2_2_G_4_SplitPt_168_GenID_0'
p177
(lp178
(lp179
I51
aI1
aI240
aa(lp180
I52
aI166
aI500
aasS'f8_6'
p181
(lp182
(lp183
I50
aI4
aI500
aasS'ID_29_F1_3_F2_14_G_2_SplitPt_108_GenID_0'
p184
(lp185
(lp186
I35
aI107
aI500
aasS'f14_5'
p187
(lp188
(lp189
I35
aI176
aI491
aasS'f8_4'
p190
(lp191
(lp192
I50
aI1
aI456
aasS'f8_3'
p193
(lp194
(lp195
I50
aI4
aI346
aasS'f8_2'
p196
(lp197
(lp198
I50
aI3
aI437
aasS'f3_0'
p199
(lp200
(lp201
I15
aI13
aI461
aasS'f14_6'
p202
(lp203
(lp204
I53
aI247
aI443
aa(lp205
I35
aI15
aI324
aasS'f8_1'
p206
(lp207
(lp208
I50
aI3
aI437
aasS'f3_1'
p209
(lp210
(lp211
I15
aI4
aI478
aasS'f7_24'
p212
(lp213
(lp214
I54
aI1
aI187
aa(lp215
I24
aI5
aI488
aasS'f3_2'
p216
(lp217
(lp218
I15
aI4
aI456
aasS'f16_24'
p219
(lp220
(lp221
I55
aI332
aI467
aasS'f14_31'
p222
(lp223
(lp224
I56
aI1
aI412
aasS'f8_22'
p225
(lp226
(lp227
I57
aI61
aI499
aasS'f16_25'
p228
(lp229
(lp230
I58
aI2
aI415
aasS'f3_5'
p231
(lp232
(lp233
I25
aI22
aI167
aasS'f15_16'
p234
(lp235
(lp236
I59
aI1
aI76
aa(lp237
I60
aI15
aI215
aasS'f15_17'
p238
(lp239
(lp240
I10
aI345
aI496
aa(lp241
I59
aI1
aI76
aa(lp242
I60
aI4
aI237
aasS'f19_29'
p243
(lp244
(lp245
I61
aI49
aI492
aasS'f15_12'
p246
(lp247
(lp248
I16
aI159
aI494
aasS'f15_13'
p249
(lp250
(lp251
I62
aI285
aI395
aasS'ID_25_F1_9_F2_15_G_4_SplitPt_88_GenID_0'
p252
(lp253
(lp254
I63
aI1
aI89
aa(lp255
I16
aI79
aI500
aasS'f15_11'
p256
(lp257
(lp258
I16
aI89
aI500
aasS'f19_22'
p259
(lp260
(lp261
I64
aI129
aI352
aasS'f8_21'
p262
(lp263
(lp264
I57
aI61
aI499
aasS'f19_25'
p265
(lp266
(lp267
I65
aI78
aI217
aasS'f0_15'
p268
(lp269
(lp270
I66
aI78
aI465
aasS'f10_25'
p271
(lp272
(lp273
I67
aI51
aI499
aasS'f10_26'
p274
(lp275
(lp276
I67
aI51
aI499
aasS'f10_20'
p277
(lp278
(lp279
I32
aI2
aI151
aasS'f10_21'
p280
(lp281
(lp282
I32
aI2
aI151
aasS'f10_22'
p283
(lp284
(lp285
I68
aI7
aI358
aa(lp286
I32
aI1
aI151
aasS'f10_23'
p287
(lp288
(lp289
I69
aI207
aI340
aa(lp290
I32
aI1
aI151
aasS'f13_10'
p291
(lp292
(lp293
I70
aI153
aI500
aasS'f13_12'
p294
(lp295
(lp296
I70
aI105
aI481
aasS'f13_13'
p297
(lp298
(lp299
I70
aI89
aI493
aasS'f13_14'
p300
(lp301
(lp302
I70
aI89
aI470
aasS'f13_15'
p303
(lp304
(lp305
I70
aI93
aI493
aasS'f13_16'
p306
(lp307
(lp308
I71
aI109
aI351
aasS'f13_17'
p309
(lp310
(lp311
I72
aI109
aI500
aasS'f13_19'
p312
(lp313
(lp314
I72
aI109
aI500
aasS'f8_29'
p315
(lp316
(lp317
I31
aI25
aI415
aasS'f0_24'
p318
(lp319
(lp320
I73
aI202
aI490
aasS'ID_84_F1_8_F2_7_G_3_SplitPt_230_GenID_0'
p321
(lp322
(lp323
I74
aI229
aI500
aa(lp324
I50
aI1
aI227
aasS'f18_24'
p325
(lp326
(lp327
I75
aI1
aI414
aasS'f18_25'
p328
(lp329
(lp330
I75
aI1
aI430
aasS'f18_26'
p331
(lp332
(lp333
I75
aI1
aI430
aasS'f18_27'
p334
(lp335
(lp336
I75
aI1
aI429
aasS'f18_20'
p337
(lp338
(lp339
I76
aI6
aI198
aasS'f18_21'
p340
(lp341
(lp342
I76
aI6
aI191
aasS'f18_22'
p343
(lp344
(lp345
I76
aI1
aI196
aa(lp346
I26
aI65
aI497
aasS'f18_23'
p347
(lp348
(lp349
I76
aI1
aI198
aa(lp350
I26
aI203
aI499
aasS'f11_18'
p351
(lp352
(lp353
I77
aI140
aI492
aasS'f11_19'
p354
(lp355
(lp356
I77
aI142
aI500
aasS'f11_12'
p357
(lp358
(lp359
I77
aI239
aI439
aasS'f11_13'
p360
(lp361
(lp362
I77
aI148
aI490
aasS'f11_10'
p363
(lp364
(lp365
I78
aI189
aI368
aasS'f11_11'
p366
(lp367
(lp368
I77
aI89
aI499
aasS'f11_16'
p369
(lp370
(lp371
I37
aI1
aI329
aa(lp372
I77
aI115
aI500
aasS'f11_17'
p373
(lp374
(lp375
I77
aI115
aI499
aasS'f11_14'
p376
(lp377
(lp378
I77
aI108
aI493
aasS'f11_15'
p379
(lp380
(lp381
I77
aI98
aI490
aasS'f9_14'
p382
(lp383
(lp384
I79
aI338
aI450
aa(lp385
I80
aI1
aI140
aa(lp386
I81
aI163
aI383
aasS'f9_15'
p387
(lp388
(lp389
I82
aI2
aI226
aasS'f9_10'
p390
(lp391
(lp392
I83
aI3
aI451
aasS'f9_11'
p393
(lp394
(lp395
I83
aI1
aI448
aasS'f9_12'
p396
(lp397
(lp398
I83
aI2
aI437
aasS'f9_13'
p399
(lp400
(lp401
I80
aI6
aI135
aasS'f5_18'
p402
(lp403
(lp404
I84
aI30
aI475
aasS'f7_17'
p405
(lp406
(lp407
I74
aI40
aI399
aa(lp408
I6
aI17
aI218
aasS'f7_14'
p409
(lp410
(lp411
I13
aI23
aI500
aasS'f7_15'
p412
(lp413
(lp414
I13
aI219
aI497
aasS'f7_12'
p415
(lp416
(lp417
I13
aI215
aI500
aasS'ID_39_F1_3_F2_9_G_2_SplitPt_84_GenID_0'
p418
(lp419
(lp420
I81
aI229
aI440
aa(lp421
I83
aI109
aI388
aasS'f7_10'
p422
(lp423
(lp424
I12
aI5
aI124
aa(lp425
I13
aI37
aI483
aasS'ID_101_F1_15_F2_17_G_3_SplitPt_77_GenID_0'
p426
(lp427
(lp428
I59
aI1
aI76
aa(lp429
I27
aI73
aI498
aasS'f5_10'
p430
(lp431
(lp432
I85
aI1
aI443
aasS'f5_11'
p433
(lp434
(lp435
I85
aI7
aI475
aasS'f5_15'
p436
(lp437
(lp438
I85
aI1
aI433
aasS'f7_18'
p439
(lp440
(lp441
I74
aI156
aI382
aa(lp442
I6
aI1
aI216
aasS'f7_19'
p443
(lp444
(lp445
I6
aI1
aI328
aasS'ID_66_F1_15_F2_1_G_3_SplitPt_220_GenID_0'
p446
(lp447
(lp448
I8
aI5
aI272
aa(lp449
I86
aI212
aI500
aasS'ID_3_F1_15_F2_2_G_3_SplitPt_200_GenID_0'
p450
(lp451
(lp452
I23
aI200
aI500
aa(lp453
I7
aI2
aI201
aasS'ID_72_F1_7_F2_7_G_4_SplitPt_216_GenID_0'
p454
(lp455
(lp456
I13
aI215
aI500
aa(lp457
I6
aI1
aI318
aasS'ID_122_F1_19_F2_2_G_2_SplitPt_78_GenID_0'
p458
(lp459
(lp460
I2
aI64
aI498
aasS'ID_48_F1_12_F2_6_G_2_SplitPt_107_GenID_0'
p461
(lp462
(lp463
I87
aI1
aI106
aa(lp464
I1
aI95
aI498
aasS'f3_16'
p465
(lp466
(lp467
I88
aI23
aI200
aasS'f9_7'
p468
(lp469
(lp470
I83
aI4
aI351
aasS'ID_106_F1_1_F2_17_G_2_SplitPt_240_GenID_0'
p471
(lp472
(lp473
I89
aI245
aI487
aa(lp474
I45
aI1
aI276
aasS'f3_14'
p475
(lp476
(lp477
I15
aI4
aI500
aasS'ID_123_F1_8_F2_13_G_4_SplitPt_166_GenID_0'
p478
(lp479
(lp480
I90
aI180
aI360
aa(lp481
I91
aI1
aI177
aasS'ID_114_F1_11_F2_8_G_3_SplitPt_144_GenID_0'
p482
(lp483
(lp484
I38
aI4
aI153
aa(lp485
I50
aI101
aI500
aasS'ID_26_F1_18_F2_7_G_4_SplitPt_198_GenID_0'
p486
(lp487
(lp488
I76
aI1
aI203
aa(lp489
I24
aI172
aI500
aasS'f3_15'
p490
(lp491
(lp492
I92
aI132
aI226
aasS'f7_3'
p493
(lp494
(lp495
I93
aI111
aI500
aasS'f2_7'
p496
(lp497
(lp498
I52
aI13
aI500
aasS'f19_12'
p499
(lp500
(lp501
I94
aI174
aI472
aasS'f19_13'
p502
(lp503
(lp504
I94
aI193
aI499
aa(lp505
I95
aI6
aI434
aasS'f5_8'
p506
(lp507
(lp508
I85
aI59
aI475
aasS'f5_9'
p509
(lp510
(lp511
I85
aI7
aI453
aasS'f19_16'
p512
(lp513
(lp514
I64
aI52
aI499
aasS'f19_17'
p515
(lp516
(lp517
I64
aI63
aI488
aasS'f19_14'
p518
(lp519
(lp520
I94
aI243
aI483
aasS'f19_15'
p521
(lp522
(lp523
I94
aI222
aI483
aa(lp524
I95
aI6
aI439
aasS'f5_2'
p525
(lp526
(lp527
I96
aI16
aI361
aasS'f5_0'
p528
(lp529
(lp530
I97
aI2
aI126
aa(lp531
I96
aI55
aI353
aasS'f19_19'
p532
(lp533
(lp534
I65
aI79
aI217
aa(lp535
I98
aI2
aI166
aasS'f5_6'
p536
(lp537
(lp538
I96
aI55
aI488
aasS'f5_7'
p539
(lp540
(lp541
I51
aI1
aI240
aasS'f5_4'
p542
(lp543
(lp544
I51
aI1
aI168
aasS'f5_5'
p545
(lp546
(lp547
I51
aI1
aI172
aa(lp548
I96
aI16
aI488
aasS'ID_88_F1_14_F2_8_G_3_SplitPt_236_GenID_0'
p549
(lp550
(lp551
I99
aI170
aI497
aa(lp552
I100
aI1
aI236
aasS'ID_54_F1_10_F2_1_G_2_SplitPt_246_GenID_0'
p553
(lp554
(lp555
I101
aI73
aI257
aasS'ID_20_F1_14_F2_6_G_4_SplitPt_229_GenID_0'
p556
(lp557
(lp558
I56
aI1
aI230
aa(lp559
I1
aI217
aI500
aasS'f15_2'
p560
(lp561
(lp562
I102
aI87
aI491
aasS'f15_3'
p563
(lp564
(lp565
I102
aI50
aI496
aasS'ID_22_F1_7_F2_17_G_4_SplitPt_187_GenID_0'
p566
(lp567
(lp568
I54
aI1
aI187
aa(lp569
I27
aI187
aI500
aasS'f8_26'
p570
(lp571
(lp572
I103
aI222
aI496
aasS'f8_27'
p573
(lp574
(lp575
I103
aI90
aI452
aasS'f8_24'
p576
(lp577
(lp578
I103
aI198
aI489
aasS'f3_3'
p579
(lp580
(lp581
I15
aI4
aI442
aasS'f3_4'
p582
(lp583
(lp584
I25
aI6
aI168
aa(lp585
I15
aI20
aI478
aasS'f8_23'
p586
(lp587
(lp588
I57
aI61
aI498
aasS'f8_20'
p589
(lp590
(lp591
I57
aI120
aI500
aasS'f3_7'
p592
(lp593
(lp594
I25
aI32
aI173
aa(lp595
I15
aI64
aI456
aasS'f3_8'
p596
(lp597
(lp598
I15
aI69
aI500
aasS'f15_8'
p599
(lp600
(lp601
I16
aI83
aI495
aasS'f15_9'
p602
(lp603
(lp604
I62
aI285
aI395
aasS'f1_6'
p605
(lp606
(lp607
I104
aI1
aI396
aasS'f1_4'
p608
(lp609
(lp610
I104
aI1
aI396
aasS'f1_5'
p611
(lp612
(lp613
I104
aI5
aI445
aasS'f1_2'
p614
(lp615
(lp616
I104
aI52
aI394
aasS'f1_0'
p617
(lp618
(lp619
I104
aI12
aI445
aasS'f1_8'
p620
(lp621
(lp622
I86
aI215
aI498
aasS'f1_9'
p623
(lp624
(lp625
I86
aI49
aI500
aasS'f9_8'
p626
(lp627
(lp628
I83
aI1
aI495
aasS'f9_9'
p629
(lp630
(lp631
I79
aI302
aI428
aasS'f9_6'
p632
(lp633
(lp634
I83
aI71
aI495
aasS'f14_24'
p635
(lp636
(lp637
I56
aI21
aI454
aasS'f9_4'
p638
(lp639
(lp640
I83
aI6
aI497
aasS'f9_5'
p641
(lp642
(lp643
I81
aI163
aI440
aa(lp644
I83
aI4
aI351
aasS'f9_2'
p645
(lp646
(lp647
I81
aI222
aI407
aa(lp648
I83
aI6
aI404
aasS'f9_3'
p649
(lp650
(lp651
I80
aI5
aI147
aasS'f9_0'
p652
(lp653
(lp654
I83
aI3
aI390
aasS'f9_20'
p655
(lp656
(lp657
I63
aI5
aI87
aasS'f14_27'
p658
(lp659
(lp660
I56
aI160
aI447
aasS'f2_28'
p661
(lp662
(lp663
I2
aI3
aI393
aasS'f9_21'
p664
(lp665
(lp666
I105
aI6
aI455
aa(lp667
I63
aI1
aI89
aasS'ID_79_F1_1_F2_4_G_3_SplitPt_106_GenID_0'
p668
(lp669
(lp670
I106
aI2
aI108
aa(lp671
I28
aI70
aI500
aasS'f9_22'
p672
(lp673
(lp674
I83
aI38
aI286
aasS'f5_23'
p675
(lp676
(lp677
I84
aI30
aI475
aasS'f5_25'
p678
(lp679
(lp680
I107
aI123
aI478
aasS'f5_29'
p681
(lp682
(lp683
I107
aI259
aI496
aasS'f5_28'
p684
(lp685
(lp686
I108
aI27
aI429
aa(lp687
I107
aI242
aI434
aasS'f10_8'
p688
(lp689
(lp690
I47
aI114
aI500
aasS'f4_22'
p691
(lp692
(lp693
I109
aI1
aI63
aa(lp694
I110
aI112
aI498
aasS'f4_23'
p695
(lp696
(lp697
I109
aI1
aI63
aa(lp698
I110
aI115
aI498
aasS'f4_20'
p699
(lp700
(lp701
I111
aI8
aI235
aa(lp702
I110
aI32
aI497
aasS'f4_21'
p703
(lp704
(lp705
I110
aI9
aI500
aasS'f4_27'
p706
(lp707
(lp708
I110
aI56
aI499
aasS'f4_24'
p709
(lp710
(lp711
I110
aI32
aI499
aasS'f4_25'
p712
(lp713
(lp714
I110
aI32
aI452
aasS'f2_20'
p715
(lp716
(lp717
I2
aI15
aI496
aasS'f10_18'
p718
(lp719
(lp720
I69
aI207
aI340
aa(lp721
I46
aI1
aI67
aasS'f0_30'
p722
(lp723
(lp724
I112
aI73
aI500
aasS'f17_30'
p725
(lp726
(lp727
I113
aI1
aI126
aasS'f17_31'
p728
(lp729
(lp730
I113
aI1
aI129
aasS'ID_117_F1_8_F2_15_G_2_SplitPt_163_GenID_0'
p731
(lp732
(lp733
I102
aI159
aI496
aasS'f8_5'
p734
(lp735
(lp736
I50
aI1
aI455
aasS'ID_31_F1_8_F2_1_G_2_SplitPt_211_GenID_0'
p737
(lp738
(lp739
I86
aI217
aI450
aasS'f1_18'
p740
(lp741
(lp742
I45
aI1
aI242
aasS'f1_19'
p743
(lp744
(lp745
I45
aI1
aI432
aasS'ID_80_F1_4_F2_14_G_2_SplitPt_52_GenID_0'
p746
(lp747
(lp748
I56
aI53
aI474
aasS'f1_14'
p749
(lp750
(lp751
I106
aI2
aI108
aa(lp752
I86
aI164
aI434
aasS'f1_15'
p753
(lp754
(lp755
I106
aI7
aI106
aa(lp756
I86
aI24
aI460
aasS'f1_16'
p757
(lp758
(lp759
I45
aI16
aI408
aasS'f1_17'
p760
(lp761
(lp762
I45
aI3
aI385
aasS'f1_10'
p763
(lp764
(lp765
I86
aI220
aI388
aasS'f1_11'
p766
(lp767
(lp768
I86
aI267
aI450
aasS'f1_12'
p769
(lp770
(lp771
I86
aI17
aI460
aasS'f7_13'
p772
(lp773
(lp774
I13
aI79
aI500
aasS'ID_67_F1_14_F2_17_G_2_SplitPt_55_GenID_0'
p775
(lp776
(lp777
I114
aI60
aI500
aasS'ID_13_F1_12_F2_4_G_2_SplitPt_178_GenID_0'
p778
(lp779
(lp780
I110
aI181
aI498
aasS'f4_10'
p781
(lp782
(lp783
I115
aI72
aI495
aa(lp784
I116
aI2
aI172
aasS'f19_8'
p785
(lp786
(lp787
I95
aI50
aI481
aasS'f19_9'
p788
(lp789
(lp790
I95
aI50
aI485
aasS'f3_19'
p791
(lp792
(lp793
I117
aI94
aI494
aasS'ID_11_F1_0_F2_18_G_3_SplitPt_167_GenID_0'
p794
(lp795
(lp796
I118
aI167
aI500
aa(lp797
I66
aI7
aI217
aasS'f3_12'
p798
(lp799
(lp800
I15
aI101
aI499
aasS'f19_1'
p801
(lp802
(lp803
I119
aI5
aI451
aasS'f19_2'
p804
(lp805
(lp806
I120
aI35
aI492
aasS'f3_11'
p807
(lp808
(lp809
I44
aI1
aI142
aa(lp810
I15
aI13
aI479
aasS'f19_4'
p811
(lp812
(lp813
I120
aI35
aI484
aasS'f19_5'
p814
(lp815
(lp816
I119
aI5
aI451
aasS'f19_6'
p817
(lp818
(lp819
I120
aI38
aI475
aasS'f19_7'
p820
(lp821
(lp822
I120
aI65
aI492
aasS'f1_28'
p823
(lp824
(lp825
I45
aI15
aI500
aasS'f6_9'
p826
(lp827
(lp828
I121
aI16
aI437
aasS'ID_35_F1_15_F2_11_G_2_SplitPt_66_GenID_0'
p829
(lp830
(lp831
I78
aI189
aI369
aasS'f6_4'
p832
(lp833
(lp834
I122
aI38
aI477
aasS'f6_7'
p835
(lp836
(lp837
I122
aI38
aI471
aasS'f6_6'
p838
(lp839
(lp840
I122
aI40
aI477
aasS'f6_2'
p841
(lp842
(lp843
I122
aI40
aI328
aasS'f17_1'
p844
(lp845
(lp846
I27
aI73
aI499
aasS'f17_8'
p847
(lp848
(lp849
I114
aI74
aI500
aasS'f4_0'
p850
(lp851
(lp852
I5
aI121
aI382
aasS'f4_7'
p853
(lp854
(lp855
I5
aI14
aI500
aasS'f4_6'
p856
(lp857
(lp858
I5
aI173
aI479
aasS'f4_5'
p859
(lp860
(lp861
I5
aI14
aI455
aasS'f17_2'
p862
(lp863
(lp864
I27
aI149
aI500
aasS'f17_3'
p865
(lp866
(lp867
I27
aI190
aI500
aasS'f4_9'
p868
(lp869
(lp870
I115
aI72
aI481
aa(lp871
I116
aI1
aI177
aasS'f4_8'
p872
(lp873
(lp874
I123
aI286
aI492
aa(lp875
I116
aI1
aI176
aasS'f17_4'
p876
(lp877
(lp878
I27
aI185
aI477
aasS'ID_5_F1_12_F2_6_G_4_SplitPt_95_GenID_0'
p879
(lp880
(lp881
I124
aI1
aI98
aa(lp882
I1
aI69
aI500
aasS'f7_23'
p883
(lp884
(lp885
I74
aI49
aI397
aasS'f7_22'
p886
(lp887
(lp888
I74
aI132
aI440
aasS'f7_21'
p889
(lp890
(lp891
I74
aI135
aI500
aasS'f7_20'
p892
(lp893
(lp894
I74
aI1
aI499
aasS'f7_27'
p895
(lp896
(lp897
I54
aI5
aI168
aasS'f7_26'
p898
(lp899
(lp900
I54
aI5
aI168
aasS'f7_25'
p901
(lp902
(lp903
I54
aI1
aI187
aa(lp904
I24
aI4
aI444
aasS'f8_0'
p905
(lp906
(lp907
I125
aI284
aI377
aasS'f7_29'
p908
(lp909
(lp910
I24
aI47
aI489
aasS'f7_28'
p911
(lp912
(lp913
I24
aI85
aI499
aasS'f8_9'
p914
(lp915
(lp916
I50
aI3
aI386
aasS'f11_0'
p917
(lp918
(lp919
I126
aI171
aI500
aasS'f11_1'
p920
(lp921
(lp922
I127
aI256
aI424
aasS'f11_2'
p923
(lp924
(lp925
I126
aI170
aI482
aasS'f11_3'
p926
(lp927
(lp928
I126
aI170
aI478
aasS'f11_5'
p929
(lp930
(lp931
I128
aI55
aI489
aasS'f11_7'
p932
(lp933
(lp934
I127
aI256
aI424
aasS'f11_8'
p935
(lp936
(lp937
I77
aI81
aI492
aasS'f11_9'
p938
(lp939
(lp940
I40
aI25
aI330
aa(lp941
I77
aI240
aI495
aasS'f2_9'
p942
(lp943
(lp944
I20
aI76
aI192
aa(lp945
I21
aI99
aI321
aasS'f13_7'
p946
(lp947
(lp948
I129
aI1
aI424
aasS'f13_4'
p949
(lp950
(lp951
I129
aI1
aI424
aasS'f13_5'
p952
(lp953
(lp954
I129
aI1
aI356
aasS'f2_1'
p955
(lp956
(lp957
I52
aI166
aI500
aasS'f2_0'
p958
(lp959
(lp960
I52
aI6
aI500
aasS'f2_3'
p961
(lp962
(lp963
I52
aI30
aI500
aasS'f2_2'
p964
(lp965
(lp966
I52
aI17
aI499
aasS'f2_5'
p967
(lp968
(lp969
I48
aI220
aI367
aasS'f2_4'
p970
(lp971
(lp972
I52
aI33
aI500
aasS'f13_8'
p973
(lp974
(lp975
I70
aI148
aI500
aasS'f2_6'
p976
(lp977
(lp978
I52
aI28
aI499
aasS'f15_4'
p979
(lp980
(lp981
I130
aI98
aI244
aasS'f15_5'
p982
(lp983
(lp984
I131
aI31
aI177
aa(lp985
I102
aI54
aI416
aasS'ID_30_F1_17_F2_4_G_3_SplitPt_117_GenID_0'
p986
(lp987
(lp988
I113
aI1
aI129
aa(lp989
I110
aI112
aI500
aasS'f15_7'
p990
(lp991
(lp992
I102
aI18
aI442
aasS'f15_0'
p993
(lp994
(lp995
I131
aI31
aI177
aa(lp996
I130
aI98
aI246
aasS'f15_1'
p997
(lp998
(lp999
I102
aI38
aI496
aasS'f0_9'
p1000
(lp1001
(lp1002
I66
aI1
aI449
aasS'f0_8'
p1003
(lp1004
(lp1005
I66
aI12
aI427
aasS'f0_7'
p1006
(lp1007
(lp1008
I132
aI126
aI430
aasS'f0_6'
p1009
(lp1010
(lp1011
I73
aI75
aI490
aasS'f0_5'
p1012
(lp1013
(lp1014
I133
aI185
aI404
aasS'f0_4'
p1015
(lp1016
(lp1017
I133
aI186
aI353
aasS'f0_3'
p1018
(lp1019
(lp1020
I132
aI89
aI500
aasS'f0_2'
p1021
(lp1022
(lp1023
I132
aI127
aI499
aasS'f0_1'
p1024
(lp1025
(lp1026
I73
aI75
aI485
aasS'f0_0'
p1027
(lp1028
(lp1029
I132
aI89
aI500
aasS'ID_94_F1_1_F2_0_G_3_SplitPt_83_GenID_0'
p1030
(lp1031
(lp1032
I42
aI1
aI87
aa(lp1033
I134
aI79
aI498
aasS'ID_74_F1_18_F2_2_G_4_SplitPt_70_GenID_0'
p1034
(lp1035
(lp1036
I135
aI1
aI70
aa(lp1037
I2
aI53
aI500
aasS'ID_86_F1_10_F2_11_G_3_SplitPt_113_GenID_0'
p1038
(lp1039
(lp1040
I136
aI1
aI111
aa(lp1041
I77
aI115
aI500
aasS'f16_12'
p1042
(lp1043
(lp1044
I137
aI225
aI403
aasS'f16_11'
p1045
(lp1046
(lp1047
I138
aI38
aI467
aasS'f16_10'
p1048
(lp1049
(lp1050
I138
aI13
aI463
aasS'f16_17'
p1051
(lp1052
(lp1053
I58
aI2
aI415
aasS'f16_16'
p1054
(lp1055
(lp1056
I139
aI329
aI446
aasS'f16_15'
p1057
(lp1058
(lp1059
I140
aI5
aI441
aasS'f16_14'
p1060
(lp1061
(lp1062
I140
aI35
aI442
aasS'f16_19'
p1063
(lp1064
(lp1065
I141
aI229
aI378
aa(lp1066
I142
aI8
aI208
aasS'f6_24'
p1067
(lp1068
(lp1069
I1
aI95
aI500
aasS'f6_25'
p1070
(lp1071
(lp1072
I1
aI58
aI500
aasS'f6_26'
p1073
(lp1074
(lp1075
I1
aI46
aI500
aasS'f6_27'
p1076
(lp1077
(lp1078
I1
aI41
aI500
aasS'f6_20'
p1079
(lp1080
(lp1081
I1
aI233
aI500
aasS'f6_21'
p1082
(lp1083
(lp1084
I1
aI25
aI500
aasS'f6_22'
p1085
(lp1086
(lp1087
I1
aI11
aI498
aasS'ID_92_F1_3_F2_10_G_3_SplitPt_224_GenID_0'
p1088
(lp1089
(lp1090
I4
aI180
aI500
aa(lp1091
I15
aI3
aI226
aasS'ID_45_F1_14_F2_19_G_4_SplitPt_58_GenID_0'
p1092
(lp1093
(lp1094
I143
aI1
aI62
aa(lp1095
I95
aI50
aI500
aasS'f6_28'
p1096
(lp1097
(lp1098
I144
aI1
aI105
aa(lp1099
I1
aI41
aI491
aasS'f6_29'
p1100
(lp1101
(lp1102
I144
aI2
aI88
aa(lp1103
I1
aI75
aI498
aasS'ID_42_F1_8_F2_7_G_2_SplitPt_86_GenID_0'
p1104
(lp1105
(lp1106
I93
aI111
aI500
aasS'f1_24'
p1107
(lp1108
(lp1109
I41
aI182
aI500
aasS'f1_27'
p1110
(lp1111
(lp1112
I45
aI5
aI342
aasS'f1_26'
p1113
(lp1114
(lp1115
I45
aI5
aI429
aasS'f14_19'
p1116
(lp1117
(lp1118
I143
aI1
aI55
aa(lp1119
I56
aI151
aI500
aasS'f14_18'
p1120
(lp1121
(lp1122
I143
aI1
aI62
aa(lp1123
I56
aI34
aI500
aasS'f1_23'
p1124
(lp1125
(lp1126
I45
aI4
aI421
aasS'f1_22'
p1127
(lp1128
(lp1129
I45
aI1
aI377
aasS'f14_15'
p1130
(lp1131
(lp1132
I35
aI15
aI493
aasS'f14_14'
p1133
(lp1134
(lp1135
I35
aI59
aI499
aasS'f14_17'
p1136
(lp1137
(lp1138
I143
aI2
aI52
aa(lp1139
I56
aI21
aI500
aasS'f14_16'
p1140
(lp1141
(lp1142
I56
aI31
aI459
aasS'f14_11'
p1143
(lp1144
(lp1145
I100
aI2
aI231
aasS'f14_10'
p1146
(lp1147
(lp1148
I100
aI1
aI236
aasS'f14_13'
p1149
(lp1150
(lp1151
I35
aI123
aI490
aasS'f14_12'
p1152
(lp1153
(lp1154
I100
aI25
aI203
aa(lp1155
I35
aI67
aI500
aasS'ID_96_F1_6_F2_8_G_2_SplitPt_89_GenID_0'
p1156
(lp1157
(lp1158
I103
aI90
aI496
aasS'ID_118_F1_17_F2_11_G_4_SplitPt_88_GenID_0'
p1159
(lp1160
(lp1161
I145
aI1
aI98
aa(lp1162
I78
aI189
aI369
aasS'ID_60_F1_15_F2_17_G_3_SplitPt_228_GenID_0'
p1163
(lp1164
(lp1165
I60
aI4
aI237
aa(lp1166
I146
aI219
aI500
aasS'f2_31'
p1167
(lp1168
(lp1169
I2
aI239
aI488
aasS'f2_30'
p1170
(lp1171
(lp1172
I2
aI3
aI393
aasS'ID_85_F1_0_F2_18_G_3_SplitPt_231_GenID_0'
p1173
(lp1174
(lp1175
I147
aI225
aI496
aa(lp1176
I148
aI12
aI230
aasS'f6_23'
p1177
(lp1178
(lp1179
I1
aI120
aI500
aasS'f0_11'
p1180
(lp1181
(lp1182
I66
aI8
aI334
aasS'ID_82_F1_13_F2_2_G_3_SplitPt_169_GenID_0'
p1183
(lp1184
(lp1185
I129
aI2
aI165
aa(lp1186
I52
aI95
aI500
aasS'f13_30'
p1187
(lp1188
(lp1189
I149
aI45
aI500
aasS'f8_11'
p1190
(lp1191
(lp1192
I50
aI3
aI429
aasS'f8_10'
p1193
(lp1194
(lp1195
I150
aI15
aI435
aasS'f8_17'
p1196
(lp1197
(lp1198
I99
aI241
aI495
aasS'f8_16'
p1199
(lp1200
(lp1201
I99
aI153
aI495
aasS'f8_15'
p1202
(lp1203
(lp1204
I91
aI2
aI166
aasS'f8_14'
p1205
(lp1206
(lp1207
I125
aI285
aI377
aa(lp1208
I91
aI1
aI183
aasS'f8_18'
p1209
(lp1210
(lp1211
I99
aI247
aI497
aasS'ID_108_F1_18_F2_14_G_3_SplitPt_175_GenID_0'
p1212
(lp1213
(lp1214
I53
aI177
aI500
aa(lp1215
I151
aI1
aI176
aasS'f1_25'
p1216
(lp1217
(lp1218
I45
aI5
aI455
aasS'f15_6'
p1219
(lp1220
(lp1221
I102
aI18
aI457
aasS'ID_12_F1_13_F2_5_G_2_SplitPt_239_GenID_0'
p1222
(lp1223
(lp1224
I107
aI210
aI497
aa(lp1225
I129
aI1
aI234
aasS'f0_17'
p1226
(lp1227
(lp1228
I134
aI81
aI498
aasS'f18_1'
p1229
(lp1230
(lp1231
I152
aI2
aI148
aa(lp1232
I153
aI141
aI500
aasS'f18_0'
p1233
(lp1234
(lp1235
I152
aI1
aI154
aa(lp1236
I153
aI144
aI496
aasS'f18_3'
p1237
(lp1238
(lp1239
I152
aI4
aI148
aa(lp1240
I153
aI153
aI492
aasS'f18_5'
p1241
(lp1242
(lp1243
I154
aI350
aI499
aasS'f18_4'
p1244
(lp1245
(lp1246
I151
aI70
aI272
aasS'f18_7'
p1247
(lp1248
(lp1249
I155
aI41
aI463
aa(lp1250
I147
aI225
aI496
aasS'f18_6'
p1251
(lp1252
(lp1253
I154
aI349
aI499
aa(lp1254
I147
aI229
aI496
aasS'f18_9'
p1255
(lp1256
(lp1257
I151
aI1
aI187
aasS'f18_8'
p1258
(lp1259
(lp1260
I151
aI3
aI445
aasS'f1_20'
p1261
(lp1262
(lp1263
I45
aI1
aI421
aasS'ID_8_F1_8_F2_8_G_2_SplitPt_135_GenID_0'
p1264
(lp1265
(lp1266
I57
aI155
aI500
aasS'f5_30'
p1267
(lp1268
(lp1269
I107
aI123
aI497
aasS'f5_31'
p1270
(lp1271
(lp1272
I108
aI27
aI429
aa(lp1273
I107
aI230
aI490
aasS'ID_38_F1_8_F2_9_G_1_SplitPt_99_GenID_0'
p1274
(lp1275
(lp1276
I83
aI228
aI493
aasS'f16_29'
p1277
(lp1278
(lp1279
I55
aI332
aI467
aasS'f14_9'
p1280
(lp1281
(lp1282
I100
aI25
aI174
aasS'f19_18'
p1283
(lp1284
(lp1285
I64
aI49
aI372
aasS'f16_22'
p1286
(lp1287
(lp1288
I141
aI231
aI378
aasS'f1_29'
p1289
(lp1290
(lp1291
I45
aI15
aI500
aasS'f16_21'
p1292
(lp1293
(lp1294
I142
aI1
aI208
aasS'f14_1'
p1295
(lp1296
(lp1297
I29
aI1
aI50
aa(lp1298
I53
aI223
aI475
aasS'f14_0'
p1299
(lp1300
(lp1301
I156
aI35
aI440
aa(lp1302
I157
aI1
aI156
aa(lp1303
I53
aI212
aI471
aasS'f14_3'
p1304
(lp1305
(lp1306
I53
aI204
aI500
aasS'f14_2'
p1307
(lp1308
(lp1309
I158
aI101
aI313
aa(lp1310
I53
aI177
aI495
aasS'f16_7'
p1311
(lp1312
(lp1313
I159
aI77
aI499
aasS'f16_5'
p1314
(lp1315
(lp1316
I159
aI77
aI499
aasS'f0_29'
p1317
(lp1318
(lp1319
I112
aI73
aI500
aasS'f0_26'
p1320
(lp1321
(lp1322
I148
aI12
aI230
aasS'f0_27'
p1323
(lp1324
(lp1325
I148
aI12
aI221
aasS'f16_9'
p1326
(lp1327
(lp1328
I138
aI44
aI463
aasS'f16_8'
p1329
(lp1330
(lp1331
I137
aI225
aI403
aa(lp1332
I139
aI329
aI446
aasS'f0_22'
p1333
(lp1334
(lp1335
I134
aI2
aI434
aasS'f0_23'
p1336
(lp1337
(lp1338
I134
aI29
aI470
aasS'f0_20'
p1339
(lp1340
(lp1341
I134
aI2
aI470
aasS'f0_21'
p1342
(lp1343
(lp1344
I134
aI2
aI400
aasS'f17_21'
p1345
(lp1346
(lp1347
I160
aI1
aI434
aasS'f17_20'
p1348
(lp1349
(lp1350
I161
aI210
aI357
aasS'f17_22'
p1351
(lp1352
(lp1353
I160
aI1
aI434
aasS'f17_25'
p1354
(lp1355
(lp1356
I89
aI279
aI495
aasS'f17_24'
p1357
(lp1358
(lp1359
I89
aI283
aI487
aasS'f17_27'
p1360
(lp1361
(lp1362
I89
aI297
aI487
aasS'f17_26'
p1363
(lp1364
(lp1365
I89
aI238
aI478
aasS'f17_28'
p1366
(lp1367
(lp1368
I89
aI279
aI495
aasS'ID_93_F1_6_F2_19_G_3_SplitPt_193_GenID_0'
p1369
(lp1370
(lp1371
I162
aI1
aI186
aa(lp1372
I94
aI186
aI499
aasS'ID_116_F1_18_F2_11_G_4_SplitPt_142_GenID_0'
p1373
(lp1374
(lp1375
I152
aI1
aI154
aa(lp1376
I77
aI140
aI500
aasS'f10_9'
p1377
(lp1378
(lp1379
I47
aI12
aI447
aasS'f15_31'
p1380
(lp1381
(lp1382
I7
aI1
aI313
aasS'f10_1'
p1383
(lp1384
(lp1385
I47
aI56
aI500
aasS'f10_0'
p1386
(lp1387
(lp1388
I47
aI8
aI460
aasS'f10_3'
p1389
(lp1390
(lp1391
I47
aI8
aI454
aasS'f10_2'
p1392
(lp1393
(lp1394
I47
aI8
aI477
aasS'f10_5'
p1395
(lp1396
(lp1397
I163
aI17
aI424
aa(lp1398
I136
aI1
aI105
aasS'f10_4'
p1399
(lp1400
(lp1401
I163
aI29
aI468
aa(lp1402
I136
aI4
aI117
aasS'f10_7'
p1403
(lp1404
(lp1405
I47
aI193
aI449
aasS'f10_6'
p1406
(lp1407
(lp1408
I101
aI73
aI267
aasS'f4_17'
p1409
(lp1410
(lp1411
I111
aI8
aI235
aasS'f4_15'
p1412
(lp1413
(lp1414
I28
aI70
aI497
aa(lp1415
I14
aI1
aI83
aasS'f4_14'
p1416
(lp1417
(lp1418
I28
aI95
aI500
aa(lp1419
I14
aI2
aI102
aasS'f4_13'
p1420
(lp1421
(lp1422
I28
aI106
aI500
aa(lp1423
I14
aI1
aI129
aasS'f4_12'
p1424
(lp1425
(lp1426
I123
aI286
aI494
aa(lp1427
I14
aI1
aI151
aasS'f4_11'
p1428
(lp1429
(lp1430
I116
aI1
aI172
aasS'f12_8'
p1431
(lp1432
(lp1433
I30
aI59
aI500
aasS'f12_7'
p1434
(lp1435
(lp1436
I124
aI1
aI88
aa(lp1437
I164
aI64
aI495
aasS'f12_6'
p1438
(lp1439
(lp1440
I124
aI1
aI98
aa(lp1441
I164
aI54
aI499
aasS'f12_5'
p1442
(lp1443
(lp1444
I164
aI54
aI500
aasS'f12_4'
p1445
(lp1446
(lp1447
I164
aI59
aI500
aasS'f12_3'
p1448
(lp1449
(lp1450
I87
aI1
aI101
aasS'f12_2'
p1451
(lp1452
(lp1453
I87
aI2
aI106
aasS'f4_19'
p1454
(lp1455
(lp1456
I110
aI1
aI445
aasS'f4_18'
p1457
(lp1458
(lp1459
I110
aI1
aI439
aasS'f3_27'
p1460
(lp1461
(lp1462
I15
aI1
aI419
aasS'f3_26'
p1463
(lp1464
(lp1465
I15
aI3
aI423
aasS'f3_25'
p1466
(lp1467
(lp1468
I165
aI285
aI496
aa(lp1469
I15
aI4
aI415
aasS'f3_24'
p1470
(lp1471
(lp1472
I15
aI1
aI423
aasS'f3_23'
p1473
(lp1474
(lp1475
I117
aI89
aI494
aasS'f3_20'
p1476
(lp1477
(lp1478
I166
aI125
aI459
aasS'f3_29'
p1479
(lp1480
(lp1481
I11
aI13
aI459
aasS'f3_28'
p1482
(lp1483
(lp1484
I165
aI287
aI496
aa(lp1485
I15
aI38
aI387
aasS'ID_32_F1_4_F2_11_G_4_SplitPt_170_GenID_0'
p1486
(lp1487
(lp1488
I126
aI162
aI500
aa(lp1489
I116
aI1
aI177
aasS'f6_19'
p1490
(lp1491
(lp1492
I1
aI26
aI425
aasS'f6_18'
p1493
(lp1494
(lp1495
I1
aI25
aI438
aasS'f6_15'
p1496
(lp1497
(lp1498
I162
aI1
aI186
aa(lp1499
I121
aI53
aI346
aasS'f6_14'
p1500
(lp1501
(lp1502
I167
aI47
aI489
aa(lp1503
I162
aI1
aI181
aasS'f6_17'
p1504
(lp1505
(lp1506
I1
aI65
aI411
aasS'f6_16'
p1507
(lp1508
(lp1509
I1
aI11
aI392
aasS'f6_10'
p1510
(lp1511
(lp1512
I121
aI16
aI437
aasS'f6_13'
p1513
(lp1514
(lp1515
I167
aI47
aI489
aasS'f1_21'
p1516
(lp1517
(lp1518
I45
aI8
aI385
aasS'f7_30'
p1519
(lp1520
(lp1521
I24
aI86
aI500
aasS'f7_31'
p1522
(lp1523
(lp1524
I54
aI17
aI161
aa(lp1525
I24
aI176
aI499
aasS'f12_11'
p1526
(lp1527
(lp1528
I30
aI56
aI499
aasS'f12_10'
p1529
(lp1530
(lp1531
I30
aI51
aI500
aasS'f11_31'
p1532
(lp1533
(lp1534
I39
aI230
aI493
aasS'ID_125_F1_18_F2_0_G_2_SplitPt_180_GenID_0'
p1535
(lp1536
(lp1537
I133
aI185
aI404
aa(lp1538
I151
aI1
aI197
aasS'ID_109_F1_7_F2_11_G_3_SplitPt_135_GenID_0'
p1539
(lp1540
(lp1541
I36
aI136
aI500
aa(lp1542
I6
aI3
aI171
aasS'f3_6'
p1543
(lp1544
(lp1545
I15
aI56
aI450
aasS'ID_111_F1_6_F2_2_G_4_SplitPt_92_GenID_0'
p1546
(lp1547
(lp1548
I17
aI227
aI402
aa(lp1549
I144
aI1
aI101
aasS'f0_18'
p1550
(lp1551
(lp1552
I134
aI81
aI495
aasS'ID_73_F1_4_F2_4_G_2_SplitPt_171_GenID_0'
p1553
(lp1554
(lp1555
I43
aI148
aI499
aasS'f18_19'
p1556
(lp1557
(lp1558
I26
aI124
aI499
aasS'f18_18'
p1559
(lp1560
(lp1561
I26
aI62
aI496
aasS'f18_11'
p1562
(lp1563
(lp1564
I151
aI1
aI445
aasS'f18_10'
p1565
(lp1566
(lp1567
I151
aI1
aI175
aasS'f18_13'
p1568
(lp1569
(lp1570
I135
aI1
aI70
aa(lp1571
I118
aI201
aI490
aasS'f18_12'
p1572
(lp1573
(lp1574
I135
aI1
aI70
aa(lp1575
I118
aI56
aI499
aa(lp1576
I151
aI5
aI311
aasS'f18_15'
p1577
(lp1578
(lp1579
I118
aI168
aI500
aasS'f18_14'
p1580
(lp1581
(lp1582
I118
aI58
aI500
aasS'f18_17'
p1583
(lp1584
(lp1585
I76
aI1
aI200
aa(lp1586
I26
aI174
aI493
aasS'f18_16'
p1587
(lp1588
(lp1589
I26
aI63
aI498
aasS'f0_13'
p1590
(lp1591
(lp1592
I66
aI66
aI394
aasS'ID_6_F1_7_F2_0_G_3_SplitPt_126_GenID_0'
p1593
(lp1594
(lp1595
I12
aI1
aI139
aa(lp1596
I132
aI126
aI499
aasS'f3_13'
p1597
(lp1598
(lp1599
I15
aI88
aI500
aasS'f3_10'
p1600
(lp1601
(lp1602
I92
aI125
aI226
aa(lp1603
I44
aI1
aI155
aasS'f14_28'
p1604
(lp1605
(lp1606
I56
aI2
aI412
aasS'f14_29'
p1607
(lp1608
(lp1609
I56
aI1
aI384
aasS'f0_10'
p1610
(lp1611
(lp1612
I66
aI1
aI465
aasS'f1_30'
p1613
(lp1614
(lp1615
I42
aI1
aI87
aasS'f1_31'
p1616
(lp1617
(lp1618
I42
aI1
aI83
aasS'f14_20'
p1619
(lp1620
(lp1621
I49
aI5
aI216
aasS'f14_21'
p1622
(lp1623
(lp1624
I49
aI4
aI192
aasS'f14_22'
p1625
(lp1626
(lp1627
I158
aI101
aI313
aa(lp1628
I49
aI1
aI195
aasS'f14_23'
p1629
(lp1630
(lp1631
I49
aI1
aI195
aa(lp1632
I56
aI34
aI500
aasS'f19_30'
p1633
(lp1634
(lp1635
I61
aI51
aI492
aa(lp1636
I98
aI2
aI166
aasS'f14_25'
p1637
(lp1638
(lp1639
I56
aI151
aI500
aasS'f14_26'
p1640
(lp1641
(lp1642
I56
aI1
aI220
aasS'f3_17'
p1643
(lp1644
(lp1645
I166
aI125
aI459
aasS'f10_11'
p1646
(lp1647
(lp1648
I47
aI36
aI500
aasS'f10_10'
p1649
(lp1650
(lp1651
I47
aI12
aI497
aasS'f10_13'
p1652
(lp1653
(lp1654
I4
aI39
aI500
aasS'f10_12'
p1655
(lp1656
(lp1657
I3
aI158
aI293
aasS'f10_15'
p1658
(lp1659
(lp1660
I4
aI39
aI500
aasS'f10_14'
p1661
(lp1662
(lp1663
I4
aI58
aI500
aasS'f10_17'
p1664
(lp1665
(lp1666
I168
aI92
aI495
aasS'f10_16'
p1667
(lp1668
(lp1669
I68
aI7
aI358
aasS'f10_19'
p1670
(lp1671
(lp1672
I168
aI92
aI495
aa(lp1673
I46
aI2
aI70
aasS'f2_21'
p1674
(lp1675
(lp1676
I169
aI157
aI375
aasS'f2_22'
p1677
(lp1678
(lp1679
I2
aI32
aI480
aasS'f2_23'
p1680
(lp1681
(lp1682
I22
aI179
aI293
aasS'f2_24'
p1683
(lp1684
(lp1685
I2
aI13
aI500
aasS'f2_25'
p1686
(lp1687
(lp1688
I2
aI2
aI500
aasS'f2_26'
p1689
(lp1690
(lp1691
I2
aI2
aI431
aasS'f2_27'
p1692
(lp1693
(lp1694
I2
aI24
aI496
aasS'f13_25'
p1695
(lp1696
(lp1697
I149
aI5
aI500
aasS'f13_24'
p1698
(lp1699
(lp1700
I149
aI94
aI500
aasS'f13_27'
p1701
(lp1702
(lp1703
I149
aI103
aI497
aasS'f13_26'
p1704
(lp1705
(lp1706
I149
aI94
aI500
aasS'f13_20'
p1707
(lp1708
(lp1709
I71
aI109
aI351
aasS'ID_107_F1_19_F2_9_G_2_SplitPt_215_GenID_0'
p1710
(lp1711
(lp1712
I79
aI311
aI448
aasS'f13_29'
p1713
(lp1714
(lp1715
I90
aI180
aI360
aasS'f13_28'
p1716
(lp1717
(lp1718
I149
aI5
aI500
aasS'f7_16'
p1719
(lp1720
(lp1721
I6
aI4
aI218
aasS'ID_115_F1_4_F2_12_G_4_SplitPt_63_GenID_0'
p1722
(lp1723
(lp1724
I109
aI1
aI63
aa(lp1725
I164
aI61
aI500
aasS'f16_31'
p1726
(lp1727
(lp1728
I170
aI192
aI491
aasS'f19_10'
p1729
(lp1730
(lp1731
I95
aI35
aI500
aasS'f0_19'
p1732
(lp1733
(lp1734
I134
aI79
aI491
aasS'f19_11'
p1735
(lp1736
(lp1737
I95
aI50
aI500
aasS'f12_28'
p1738
(lp1739
(lp1740
I171
aI105
aI339
aasS'f12_29'
p1741
(lp1742
(lp1743
I172
aI170
aI482
aa(lp1744
I171
aI120
aI344
aasS'f12_26'
p1745
(lp1746
(lp1747
I172
aI39
aI489
aasS'f0_12'
p1748
(lp1749
(lp1750
I66
aI35
aI479
aasS'f12_24'
p1751
(lp1752
(lp1753
I171
aI105
aI337
aasS'f12_25'
p1754
(lp1755
(lp1756
I171
aI131
aI344
aasS'f12_22'
p1757
(lp1758
(lp1759
I173
aI6
aI446
aasS'f0_16'
p1760
(lp1761
(lp1762
I134
aI53
aI498
aasS'f12_20'
p1763
(lp1764
(lp1765
I173
aI6
aI446
aasS'f0_14'
p1766
(lp1767
(lp1768
I66
aI6
aI480
aasS'ID_89_F1_3_F2_2_G_2_SplitPt_207_GenID_0'
p1769
(lp1770
(lp1771
I88
aI23
aI201
aasS'f17_18'
p1772
(lp1773
(lp1774
I146
aI227
aI499
aasS'f17_19'
p1775
(lp1776
(lp1777
I146
aI55
aI500
aasS'ID_119_F1_9_F2_18_G_4_SplitPt_140_GenID_0'
p1778
(lp1779
(lp1780
I82
aI2
aI251
aa(lp1781
I80
aI1
aI151
aa(lp1782
I153
aI141
aI500
aasS'f17_15'
p1783
(lp1784
(lp1785
I174
aI16
aI461
aasS'f17_16'
p1786
(lp1787
(lp1788
I146
aI55
aI490
aasS'f17_17'
p1789
(lp1790
(lp1791
I161
aI210
aI357
aasS'f17_10'
p1792
(lp1793
(lp1794
I145
aI1
aI87
aa(lp1795
I114
aI217
aI499
aasS'f17_11'
p1796
(lp1797
(lp1798
I145
aI1
aI98
aa(lp1799
I114
aI60
aI500
aasS'f17_13'
p1800
(lp1801
(lp1802
I174
aI16
aI461
aasS'ID_104_F1_1_F2_2_G_3_SplitPt_148_GenID_0'
p1803
(lp1804
(lp1805
I52
aI149
aI495
aa(lp1806
I45
aI1
aI198
aasS'ID_49_F1_5_F2_14_G_1_SplitPt_124_GenID_0'
p1807
(lp1808
(lp1809
I97
aI2
aI126
aasS'f6_31'
p1810
(lp1811
(lp1812
I144
aI20
aI91
aa(lp1813
I1
aI46
aI496
aas.