(dp1
S'f6_30'
p2
(lp3
(lp4
I1
aI32
aI490
aasS'ID_44_F1_7_F2_4_G_4_SplitPt_142_GenID_0'
p5
(lp6
(lp7
I2
aI129
aI216
aa(lp8
I3
aI1
aI154
aasS'ID_129_F1_6_F2_6_G_2_SplitPt_72_GenID_0'
p9
(lp10
(lp11
I4
aI78
aI255
aa(lp12
I5
aI108
aI364
aasS'ID_8_F1_14_F2_19_G_2_SplitPt_218_GenID_0'
p13
(lp14
(lp15
I6
aI225
aI498
aasS'f5_5'
p16
(lp17
(lp18
I7
aI11
aI500
aasS'f15_29'
p19
(lp20
(lp21
I8
aI1
aI55
aa(lp22
I9
aI65
aI493
aasS'f15_28'
p23
(lp24
(lp25
I8
aI1
aI55
aa(lp26
I10
aI3
aI278
aa(lp27
I9
aI68
aI499
aasS'f15_27'
p28
(lp29
(lp30
I10
aI5
aI278
aa(lp31
I9
aI52
aI500
aasS'f15_26'
p32
(lp33
(lp34
I10
aI3
aI215
aa(lp35
I9
aI14
aI454
aasS'f15_25'
p36
(lp37
(lp38
I11
aI10
aI96
aa(lp39
I9
aI14
aI500
aasS'f15_24'
p40
(lp41
(lp42
I11
aI1
aI99
aa(lp43
I9
aI105
aI478
aasS'f15_23'
p44
(lp45
(lp46
I12
aI34
aI493
aasS'f15_22'
p47
(lp48
(lp49
I12
aI87
aI493
aasS'f15_21'
p50
(lp51
(lp52
I12
aI85
aI497
aasS'f15_20'
p53
(lp54
(lp55
I12
aI106
aI490
aasS'f6_4'
p56
(lp57
(lp58
I5
aI108
aI500
aasS'f3_30'
p59
(lp60
(lp61
I13
aI4
aI438
aasS'ID_156_F1_7_F2_8_G_3_SplitPt_91_GenID_0'
p62
(lp63
(lp64
I14
aI2
aI92
aa(lp65
I15
aI85
aI496
aasS'ID_147_F1_8_F2_17_G_4_SplitPt_98_GenID_0'
p66
(lp67
(lp68
I16
aI1
aI99
aa(lp69
I17
aI47
aI500
aasS'f8_20'
p70
(lp71
(lp72
I15
aI11
aI476
aasS'f19_29'
p73
(lp74
(lp75
I18
aI7
aI411
aasS'f2_20'
p76
(lp77
(lp78
I19
aI282
aI469
aasS'f15_12'
p79
(lp80
(lp81
I20
aI2
aI127
aasS'f8_29'
p82
(lp83
(lp84
I15
aI72
aI500
aasS'ID_69_F1_9_F2_15_G_3_SplitPt_162_GenID_0'
p85
(lp86
(lp87
I21
aI163
aI340
aa(lp88
I22
aI1
aI164
aasS'f4_1'
p89
(lp90
(lp91
I23
aI4
aI122
aa(lp92
I24
aI23
aI500
aasS'f2_11'
p93
(lp94
(lp95
I25
aI3
aI447
aasS'f2_10'
p96
(lp97
(lp98
I25
aI3
aI421
aasS'f2_13'
p99
(lp100
(lp101
I26
aI121
aI253
aasS'f4_0'
p102
(lp103
(lp104
I23
aI4
aI91
aa(lp105
I24
aI117
aI500
aasS'f2_15'
p106
(lp107
(lp108
I25
aI113
aI495
aasS'ID_60_F1_10_F2_16_G_3_SplitPt_208_GenID_0'
p109
(lp110
(lp111
I27
aI3
aI206
aa(lp112
I28
aI202
aI498
aasS'f2_17'
p113
(lp114
(lp115
I19
aI52
aI500
aasS'f2_16'
p116
(lp117
(lp118
I19
aI1
aI500
aasS'f2_19'
p119
(lp120
(lp121
I19
aI52
aI498
aasS'f2_18'
p122
(lp123
(lp124
I19
aI191
aI500
aasS'ID_178_F1_10_F2_4_G_2_SplitPt_71_GenID_0'
p125
(lp126
(lp127
I29
aI74
aI484
aasS'f12_22'
p128
(lp129
(lp130
I30
aI32
aI500
aasS'f19_25'
p131
(lp132
(lp133
I18
aI14
aI499
aasS'ID_175_F1_1_F2_13_G_3_SplitPt_226_GenID_0'
p134
(lp135
(lp136
I31
aI5
aI230
aa(lp137
I32
aI236
aI499
aasS'f19_24'
p138
(lp139
(lp140
I18
aI66
aI500
aasS'f17_0'
p141
(lp142
(lp143
I33
aI2
aI234
aa(lp144
I34
aI24
aI470
aasS'f4_8'
p145
(lp146
(lp147
I35
aI53
aI500
aasS'f8_31'
p148
(lp149
(lp150
I15
aI94
aI496
aasS'f8_30'
p151
(lp152
(lp153
I15
aI24
aI496
aasS'ID_133_F1_15_F2_11_G_4_SplitPt_177_GenID_0'
p154
(lp155
(lp156
I36
aI162
aI500
aa(lp157
I37
aI1
aI247
aasS'ID_89_F1_7_F2_12_G_3_SplitPt_50_GenID_0'
p158
(lp159
(lp160
I38
aI60
aI209
aasS'f12_23'
p161
(lp162
(lp163
I30
aI18
aI499
aasS'ID_70_F1_11_F2_2_G_3_SplitPt_201_GenID_0'
p164
(lp165
(lp166
I39
aI5
aI208
aa(lp167
I40
aI198
aI500
aasS'f15_31'
p168
(lp169
(lp170
I9
aI132
aI499
aasS'f0_15'
p171
(lp172
(lp173
I41
aI1
aI497
aasS'ID_221_F1_1_F2_13_G_2_SplitPt_100_GenID_0'
p174
(lp175
(lp176
I32
aI137
aI499
aasS'ID_78_F1_16_F2_10_G_3_SplitPt_231_GenID_0'
p177
(lp178
(lp179
I42
aI146
aI499
aa(lp180
I43
aI1
aI223
aasS'f17_5'
p181
(lp182
(lp183
I34
aI2
aI477
aasS'ID_27_F1_5_F2_2_G_2_SplitPt_231_GenID_0'
p184
(lp185
(lp186
I25
aI180
aI495
aasS'ID_61_F1_17_F2_6_G_3_SplitPt_84_GenID_0'
p187
(lp188
(lp189
I44
aI1
aI99
aa(lp190
I5
aI88
aI499
aasS'ID_62_F1_10_F2_7_G_2_SplitPt_155_GenID_0'
p191
(lp192
(lp193
I45
aI144
aI500
aasS'ID_65_F1_18_F2_8_G_3_SplitPt_97_GenID_0'
p194
(lp195
(lp196
I46
aI11
aI96
aa(lp197
I47
aI100
aI500
aasS'f8_21'
p198
(lp199
(lp200
I15
aI5
aI492
aasS'ID_143_F1_18_F2_12_G_2_SplitPt_129_GenID_0'
p201
(lp202
(lp203
I48
aI113
aI498
aasS'ID_83_F1_18_F2_10_G_3_SplitPt_209_GenID_0'
p204
(lp205
(lp206
I49
aI192
aI498
aa(lp207
I50
aI3
aI218
aasS'ID_170_F1_5_F2_9_G_4_SplitPt_168_GenID_0'
p208
(lp209
(lp210
I51
aI93
aI169
aa(lp211
I52
aI140
aI500
aasS'ID_1_F1_15_F2_8_G_1_SplitPt_200_GenID_0'
p212
(lp213
(lp214
I15
aI204
aI414
aasS'f11_22'
p215
(lp216
(lp217
I53
aI107
aI415
aasS'ID_179_F1_6_F2_15_G_4_SplitPt_57_GenID_0'
p218
(lp219
(lp220
I54
aI1
aI60
aa(lp221
I9
aI52
aI500
aasS'f11_27'
p222
(lp223
(lp224
I55
aI34
aI232
aa(lp225
I56
aI114
aI500
aasS'f11_26'
p226
(lp227
(lp228
I55
aI41
aI244
aa(lp229
I56
aI181
aI500
aasS'f11_25'
p230
(lp231
(lp232
I55
aI5
aI224
aa(lp233
I56
aI114
aI500
aasS'f11_24'
p234
(lp235
(lp236
I57
aI193
aI342
aa(lp237
I55
aI1
aI244
aasS'f11_29'
p238
(lp239
(lp240
I39
aI2
aI241
aa(lp241
I36
aI3
aI482
aasS'f11_28'
p242
(lp243
(lp244
I57
aI192
aI342
aa(lp245
I39
aI1
aI246
aasS'f4_31'
p246
(lp247
(lp248
I58
aI1
aI240
aa(lp249
I29
aI122
aI456
aasS'f4_30'
p250
(lp251
(lp252
I58
aI1
aI239
aa(lp253
I29
aI44
aI484
aasS'ID_242_F1_9_F2_2_G_3_SplitPt_143_GenID_0'
p254
(lp255
(lp256
I59
aI4
aI145
aa(lp257
I60
aI144
aI500
aasS'f16_22'
p258
(lp259
(lp260
I43
aI1
aI447
aasS'f16_23'
p261
(lp262
(lp263
I43
aI1
aI492
aasS'f8_3'
p264
(lp265
(lp266
I47
aI1
aI500
aasS'f16_20'
p267
(lp268
(lp269
I43
aI2
aI500
aasS'f8_2'
p270
(lp271
(lp272
I47
aI1
aI500
aasS'ID_205_F1_15_F2_11_G_2_SplitPt_183_GenID_0'
p273
(lp274
(lp275
I36
aI180
aI482
aasS'f16_21'
p276
(lp277
(lp278
I43
aI1
aI498
aasS'f8_1'
p279
(lp280
(lp281
I47
aI7
aI497
aasS'f8_27'
p282
(lp283
(lp284
I15
aI16
aI500
aasS'f14_1'
p285
(lp286
(lp287
I61
aI35
aI500
aasS'f8_0'
p288
(lp289
(lp290
I47
aI7
aI500
aasS'ID_252_F1_16_F2_12_G_4_SplitPt_78_GenID_0'
p291
(lp292
(lp293
I62
aI1
aI78
aa(lp294
I30
aI56
aI500
aasS'f8_24'
p295
(lp296
(lp297
I15
aI6
aI500
aasS'f16_27'
p298
(lp299
(lp300
I43
aI65
aI485
aasS'f8_25'
p301
(lp302
(lp303
I15
aI52
aI500
aasS'f3_4'
p304
(lp305
(lp306
I63
aI111
aI500
aasS'ID_228_F1_7_F2_7_G_4_SplitPt_178_GenID_0'
p307
(lp308
(lp309
I3
aI1
aI213
aa(lp310
I45
aI118
aI500
aasS'f3_5'
p311
(lp312
(lp313
I63
aI12
aI500
aasS'f15_16'
p314
(lp315
(lp316
I12
aI34
aI500
aasS'f15_17'
p317
(lp318
(lp319
I12
aI34
aI500
aasS'f15_14'
p320
(lp321
(lp322
I64
aI271
aI499
aasS'ID_119_F1_2_F2_8_G_4_SplitPt_192_GenID_0'
p323
(lp324
(lp325
I65
aI175
aI500
aa(lp326
I66
aI1
aI205
aasS'f15_13'
p327
(lp328
(lp329
I64
aI271
aI499
aa(lp330
I20
aI2
aI125
aasS'f15_10'
p331
(lp332
(lp333
I67
aI76
aI489
aasS'f15_11'
p334
(lp335
(lp336
I68
aI95
aI315
aasS'f19_21'
p337
(lp338
(lp339
I69
aI266
aI450
aa(lp340
I70
aI1
aI101
aasS'f19_20'
p341
(lp342
(lp343
I70
aI1
aI126
aasS'f19_27'
p344
(lp345
(lp346
I18
aI7
aI431
aasS'f19_26'
p347
(lp348
(lp349
I18
aI15
aI457
aasS'f15_18'
p350
(lp351
(lp352
I71
aI1
aI186
aa(lp353
I12
aI170
aI498
aasS'f15_19'
p354
(lp355
(lp356
I71
aI1
aI158
aa(lp357
I12
aI138
aI495
aasS'f10_28'
p358
(lp359
(lp360
I72
aI14
aI231
aa(lp361
I73
aI2
aI130
aa(lp362
I74
aI232
aI458
aasS'f10_29'
p363
(lp364
(lp365
I73
aI3
aI133
aasS'f10_24'
p366
(lp367
(lp368
I75
aI1
aI447
aa(lp369
I74
aI204
aI500
aasS'f10_25'
p370
(lp371
(lp372
I75
aI16
aI458
aa(lp373
I74
aI203
aI500
aasS'f10_26'
p374
(lp375
(lp376
I74
aI203
aI488
aasS'f10_27'
p377
(lp378
(lp379
I74
aI188
aI500
aasS'f10_20'
p380
(lp381
(lp382
I76
aI1
aI81
aa(lp383
I42
aI117
aI499
aasS'f10_21'
p384
(lp385
(lp386
I76
aI1
aI79
aa(lp387
I42
aI149
aI499
aasS'f10_22'
p388
(lp389
(lp390
I42
aI138
aI500
aasS'f10_23'
p391
(lp392
(lp393
I42
aI111
aI500
aasS'ID_149_F1_15_F2_16_G_3_SplitPt_191_GenID_0'
p394
(lp395
(lp396
I77
aI176
aI497
aa(lp397
I71
aI1
aI186
aasS'ID_42_F1_11_F2_1_G_2_SplitPt_84_GenID_0'
p398
(lp399
(lp400
I78
aI87
aI497
aasS'f0_29'
p401
(lp402
(lp403
I79
aI1
aI500
aasS'ID_82_F1_6_F2_8_G_4_SplitPt_169_GenID_0'
p404
(lp405
(lp406
I80
aI1
aI200
aa(lp407
I47
aI129
aI500
aasS'f13_10'
p408
(lp409
(lp410
I81
aI61
aI499
aasS'ID_87_F1_11_F2_7_G_3_SplitPt_171_GenID_0'
p411
(lp412
(lp413
I82
aI2
aI211
aa(lp414
I83
aI173
aI490
aasS'f13_13'
p415
(lp416
(lp417
I84
aI226
aI372
aasS'f13_14'
p418
(lp419
(lp420
I85
aI1
aI174
aa(lp421
I86
aI272
aI482
aasS'f13_15'
p422
(lp423
(lp424
I85
aI2
aI174
aa(lp425
I81
aI64
aI410
aasS'f13_16'
p426
(lp427
(lp428
I87
aI1
aI246
aa(lp429
I81
aI164
aI500
aasS'f13_17'
p430
(lp431
(lp432
I87
aI1
aI244
aa(lp433
I81
aI217
aI500
aasS'f13_18'
p434
(lp435
(lp436
I87
aI1
aI239
aa(lp437
I81
aI218
aI500
aasS'f13_19'
p438
(lp439
(lp440
I87
aI1
aI240
aa(lp441
I81
aI61
aI500
aasS'ID_86_F1_18_F2_7_G_1_SplitPt_140_GenID_0'
p442
(lp443
(lp444
I45
aI231
aI484
aasS'f0_24'
p445
(lp446
(lp447
I79
aI55
aI498
aasS'ID_144_F1_17_F2_16_G_4_SplitPt_124_GenID_0'
p448
(lp449
(lp450
I88
aI1
aI135
aa(lp451
I28
aI116
aI500
aasS'f16_8'
p452
(lp453
(lp454
I28
aI192
aI500
aasS'ID_250_F1_7_F2_1_G_4_SplitPt_208_GenID_0'
p455
(lp456
(lp457
I89
aI1
aI208
aa(lp458
I90
aI209
aI500
aasS'f18_24'
p459
(lp460
(lp461
I91
aI58
aI500
aasS'f18_25'
p462
(lp463
(lp464
I91
aI59
aI494
aasS'f18_20'
p465
(lp466
(lp467
I92
aI92
aI500
aasS'f18_21'
p468
(lp469
(lp470
I92
aI29
aI500
aasS'f18_22'
p471
(lp472
(lp473
I92
aI80
aI500
aasS'f18_23'
p474
(lp475
(lp476
I92
aI10
aI500
aasS'ID_253_F1_7_F2_1_G_3_SplitPt_69_GenID_0'
p477
(lp478
(lp479
I93
aI3
aI73
aa(lp480
I94
aI70
aI500
aasS'ID_9_F1_3_F2_16_G_4_SplitPt_204_GenID_0'
p481
(lp482
(lp483
I95
aI1
aI204
aa(lp484
I43
aI121
aI500
aasS'f18_28'
p485
(lp486
(lp487
I46
aI2
aI141
aasS'f18_29'
p488
(lp489
(lp490
I96
aI168
aI309
aa(lp491
I46
aI1
aI128
aasS'f11_18'
p492
(lp493
(lp494
I97
aI3
aI237
aasS'f11_19'
p495
(lp496
(lp497
I97
aI3
aI237
aasS'ID_101_F1_10_F2_5_G_2_SplitPt_174_GenID_0'
p498
(lp499
(lp500
I98
aI183
aI478
aasS'f11_13'
p501
(lp502
(lp503
I99
aI19
aI454
aasS'f11_10'
p504
(lp505
(lp506
I99
aI69
aI498
aasS'f11_11'
p507
(lp508
(lp509
I99
aI43
aI499
aasS'f11_16'
p510
(lp511
(lp512
I82
aI2
aI205
aasS'f11_17'
p513
(lp514
(lp515
I82
aI2
aI174
aasS'f11_14'
p516
(lp517
(lp518
I100
aI1
aI216
aa(lp519
I99
aI19
aI454
aasS'f11_15'
p520
(lp521
(lp522
I100
aI1
aI195
aasS'f9_14'
p523
(lp524
(lp525
I101
aI4
aI197
aa(lp526
I102
aI6
aI494
aasS'f9_15'
p527
(lp528
(lp529
I102
aI73
aI493
aasS'ID_199_F1_13_F2_10_G_2_SplitPt_75_GenID_0'
p530
(lp531
(lp532
I103
aI92
aI498
aasS'f9_17'
p533
(lp534
(lp535
I104
aI7
aI500
aasS'f9_10'
p536
(lp537
(lp538
I102
aI73
aI493
aasS'f9_11'
p539
(lp540
(lp541
I102
aI6
aI500
aasS'f9_12'
p542
(lp543
(lp544
I101
aI1
aI126
aa(lp545
I52
aI200
aI479
aasS'f9_13'
p546
(lp547
(lp548
I101
aI1
aI138
aa(lp549
I102
aI80
aI381
aa(lp550
I52
aI235
aI479
aasS'ID_185_F1_11_F2_8_G_4_SplitPt_242_GenID_0'
p551
(lp552
(lp553
I105
aI273
aI409
aa(lp554
I39
aI1
aI246
aasS'f9_18'
p555
(lp556
(lp557
I22
aI84
aI238
aa(lp558
I104
aI186
aI500
aasS'f9_19'
p559
(lp560
(lp561
I104
aI7
aI500
aasS'f7_16'
p562
(lp563
(lp564
I106
aI9
aI444
aasS'f5_19'
p565
(lp566
(lp567
I107
aI40
aI139
aa(lp568
I108
aI107
aI498
aasS'f7_14'
p569
(lp570
(lp571
I109
aI1
aI98
aa(lp572
I110
aI4
aI425
aasS'f7_15'
p573
(lp574
(lp575
I109
aI1
aI109
aasS'f7_12'
p576
(lp577
(lp578
I111
aI395
aI494
aa(lp579
I112
aI2
aI60
aasS'f7_13'
p580
(lp581
(lp582
I112
aI1
aI59
aa(lp583
I110
aI4
aI500
aasS'f7_10'
p584
(lp585
(lp586
I111
aI395
aI494
aasS'f7_11'
p587
(lp588
(lp589
I113
aI58
aI500
aasS'f5_10'
p590
(lp591
(lp592
I7
aI149
aI492
aasS'f5_11'
p593
(lp594
(lp595
I114
aI302
aI493
aasS'f5_14'
p596
(lp597
(lp598
I114
aI302
aI493
aa(lp599
I7
aI158
aI486
aasS'f5_16'
p600
(lp601
(lp602
I115
aI1
aI92
aa(lp603
I108
aI219
aI499
aasS'f7_19'
p604
(lp605
(lp606
I106
aI9
aI444
aasS'ID_54_F1_8_F2_11_G_2_SplitPt_179_GenID_0'
p607
(lp608
(lp609
I116
aI4
aI180
aa(lp610
I56
aI174
aI500
aasS'ID_106_F1_8_F2_2_G_4_SplitPt_213_GenID_0'
p611
(lp612
(lp613
I40
aI202
aI500
aa(lp614
I47
aI1
aI230
aasS'ID_141_F1_13_F2_17_G_4_SplitPt_174_GenID_0'
p615
(lp616
(lp617
I85
aI1
aI174
aa(lp618
I117
aI149
aI500
aasS'f16_26'
p619
(lp620
(lp621
I43
aI43
aI463
aasS'f12_30'
p622
(lp623
(lp624
I38
aI14
aI211
aa(lp625
I48
aI65
aI482
aasS'ID_153_F1_15_F2_8_G_3_SplitPt_135_GenID_0'
p626
(lp627
(lp628
I20
aI2
aI127
aa(lp629
I118
aI136
aI495
aasS'ID_77_F1_10_F2_12_G_4_SplitPt_146_GenID_0'
p630
(lp631
(lp632
I119
aI1
aI167
aa(lp633
I30
aI121
aI500
aasS'f5_9'
p634
(lp635
(lp636
I7
aI78
aI496
aasS'f5_0'
p637
(lp638
(lp639
I7
aI1
aI500
aasS'f13_6'
p640
(lp641
(lp642
I120
aI273
aI497
aasS'ID_30_F1_12_F2_3_G_2_SplitPt_155_GenID_0'
p643
(lp644
(lp645
I121
aI146
aI500
aasS'f13_7'
p646
(lp647
(lp648
I120
aI296
aI497
aa(lp649
I122
aI1
aI464
aasS'f3_17'
p650
(lp651
(lp652
I123
aI29
aI465
aasS'f9_0'
p653
(lp654
(lp655
I124
aI84
aI273
aa(lp656
I52
aI167
aI500
aasS'ID_167_F1_8_F2_5_G_4_SplitPt_104_GenID_0'
p657
(lp658
(lp659
I51
aI93
aI169
aa(lp660
I116
aI1
aI105
aasS'f9_1'
p661
(lp662
(lp663
I52
aI84
aI500
aasS'ID_97_F1_17_F2_2_G_3_SplitPt_50_GenID_0'
p664
(lp665
(lp666
I19
aI51
aI500
aasS'ID_29_F1_11_F2_6_G_4_SplitPt_242_GenID_0'
p667
(lp668
(lp669
I125
aI1
aI242
aa(lp670
I5
aI213
aI500
aasS'ID_92_F1_5_F2_9_G_3_SplitPt_163_GenID_0'
p671
(lp672
(lp673
I107
aI1
aI161
aa(lp674
I52
aI188
aI499
aasS'f9_26'
p675
(lp676
(lp677
I22
aI1
aI238
aasS'ID_177_F1_0_F2_1_G_2_SplitPt_97_GenID_0'
p678
(lp679
(lp680
I78
aI85
aI435
aasS'ID_41_F1_13_F2_10_G_4_SplitPt_204_GenID_0'
p681
(lp682
(lp683
I126
aI1
aI214
aa(lp684
I74
aI188
aI500
aasS'ID_7_F1_9_F2_7_G_2_SplitPt_191_GenID_0'
p685
(lp686
(lp687
I127
aI335
aI495
aa(lp688
I101
aI5
aI197
aasS'ID_146_F1_5_F2_2_G_4_SplitPt_143_GenID_0'
p689
(lp690
(lp691
I60
aI139
aI500
aa(lp692
I7
aI1
aI152
aasS'f7_4'
p693
(lp694
(lp695
I128
aI3
aI426
aasS'f7_6'
p696
(lp697
(lp698
I128
aI3
aI426
aasS'f7_0'
p699
(lp700
(lp701
I89
aI1
aI166
aasS'f7_1'
p702
(lp703
(lp704
I93
aI3
aI73
aasS'f7_2'
p705
(lp706
(lp707
I89
aI3
aI207
aasS'f7_3'
p708
(lp709
(lp710
I89
aI1
aI208
aa(lp711
I113
aI99
aI442
aasS'ID_105_F1_9_F2_6_G_4_SplitPt_224_GenID_0'
p712
(lp713
(lp714
I22
aI1
aI228
aa(lp715
I1
aI207
aI500
aasS'ID_249_F1_7_F2_15_G_4_SplitPt_166_GenID_0'
p716
(lp717
(lp718
I89
aI1
aI166
aa(lp719
I12
aI124
aI500
aasS'f7_8'
p720
(lp721
(lp722
I113
aI58
aI500
aasS'f7_9'
p723
(lp724
(lp725
I113
aI105
aI494
aasS'f13_8'
p726
(lp727
(lp728
I86
aI272
aI482
aasS'f2_6'
p729
(lp730
(lp731
I60
aI60
aI491
aasS'f12_0'
p732
(lp733
(lp734
I38
aI1
aI226
aa(lp735
I48
aI60
aI500
aasS'f19_10'
p736
(lp737
(lp738
I129
aI43
aI489
aa(lp739
I130
aI17
aI95
aasS'f19_11'
p740
(lp741
(lp742
I131
aI83
aI413
aa(lp743
I130
aI20
aI95
aasS'f19_16'
p744
(lp745
(lp746
I132
aI26
aI444
aasS'f19_14'
p747
(lp748
(lp749
I129
aI51
aI444
aasS'f19_15'
p750
(lp751
(lp752
I133
aI56
aI210
aasS'f5_2'
p753
(lp754
(lp755
I7
aI1
aI445
aasS'f5_3'
p756
(lp757
(lp758
I7
aI6
aI497
aasS'f19_18'
p759
(lp760
(lp761
I132
aI26
aI444
aasS'f19_19'
p762
(lp763
(lp764
I69
aI266
aI450
aa(lp765
I134
aI11
aI175
aasS'f5_6'
p766
(lp767
(lp768
I7
aI91
aI500
aasS'f5_7'
p769
(lp770
(lp771
I7
aI28
aI500
aasS'f5_4'
p772
(lp773
(lp774
I7
aI24
aI500
aasS'ID_32_F1_5_F2_9_G_4_SplitPt_185_GenID_0'
p775
(lp776
(lp777
I135
aI1
aI192
aa(lp778
I104
aI184
aI500
aasS'ID_245_F1_2_F2_0_G_3_SplitPt_219_GenID_0'
p779
(lp780
(lp781
I66
aI1
aI250
aa(lp782
I41
aI210
aI499
aasS'ID_209_F1_12_F2_4_G_2_SplitPt_86_GenID_0'
p783
(lp784
(lp785
I35
aI80
aI499
aasS'f2_14'
p786
(lp787
(lp788
I25
aI137
aI495
aasS'ID_190_F1_0_F2_7_G_4_SplitPt_126_GenID_0'
p789
(lp790
(lp791
I136
aI95
aI500
aa(lp792
I137
aI1
aI135
aasS'f0_9'
p793
(lp794
(lp795
I41
aI2
aI500
aasS'ID_229_F1_10_F2_15_G_2_SplitPt_103_GenID_0'
p796
(lp797
(lp798
I9
aI79
aI498
aasS'ID_137_F1_11_F2_18_G_3_SplitPt_55_GenID_0'
p799
(lp800
(lp801
I138
aI57
aI500
aasS'f5_1'
p802
(lp803
(lp804
I7
aI1
aI500
aasS'f9_29'
p805
(lp806
(lp807
I59
aI1
aI197
aasS'f3_0'
p808
(lp809
(lp810
I139
aI178
aI450
aa(lp811
I95
aI1
aI185
aasS'f3_1'
p812
(lp813
(lp814
I95
aI1
aI185
aasS'f3_2'
p815
(lp816
(lp817
I95
aI1
aI204
aasS'f3_3'
p818
(lp819
(lp820
I95
aI2
aI204
aasS'f8_22'
p821
(lp822
(lp823
I16
aI1
aI99
aa(lp824
I15
aI8
aI434
aasS'f8_23'
p825
(lp826
(lp827
I16
aI1
aI99
aa(lp828
I15
aI11
aI435
aasS'f3_6'
p829
(lp830
(lp831
I139
aI261
aI436
aasS'f3_7'
p832
(lp833
(lp834
I139
aI178
aI440
aasS'f3_8'
p835
(lp836
(lp837
I121
aI251
aI498
aasS'f3_9'
p838
(lp839
(lp840
I121
aI123
aI500
aasS'f1_10'
p841
(lp842
(lp843
I90
aI3
aI467
aasS'f9_16'
p844
(lp845
(lp846
I104
aI90
aI495
aasS'f8_28'
p847
(lp848
(lp849
I140
aI154
aI311
aasS'f15_9'
p850
(lp851
(lp852
I141
aI24
aI184
aa(lp853
I67
aI76
aI500
aasS'f1_6'
p854
(lp855
(lp856
I31
aI6
aI230
aa(lp857
I78
aI119
aI500
aasS'f1_7'
p858
(lp859
(lp860
I31
aI5
aI230
aa(lp861
I78
aI88
aI472
aasS'f1_4'
p862
(lp863
(lp864
I142
aI3
aI163
aa(lp865
I78
aI101
aI500
aasS'f1_5'
p866
(lp867
(lp868
I142
aI3
aI212
aa(lp869
I78
aI84
aI481
aasS'f1_3'
p870
(lp871
(lp872
I142
aI27
aI212
aasS'f1_1'
p873
(lp874
(lp875
I78
aI225
aI500
aasS'f10_12'
p876
(lp877
(lp878
I42
aI117
aI500
aasS'ID_38_F1_10_F2_16_G_2_SplitPt_80_GenID_0'
p879
(lp880
(lp881
I43
aI46
aI485
aasS'f1_8'
p882
(lp883
(lp884
I90
aI3
aI459
aasS'f1_9'
p885
(lp886
(lp887
I90
aI161
aI482
aasS'f17_8'
p888
(lp889
(lp890
I88
aI1
aI135
aa(lp891
I117
aI4
aI430
aasS'ID_53_F1_10_F2_15_G_4_SplitPt_130_GenID_0'
p892
(lp893
(lp894
I73
aI1
aI133
aa(lp895
I9
aI131
aI500
aasS'f9_8'
p896
(lp897
(lp898
I102
aI88
aI500
aasS'f9_9'
p899
(lp900
(lp901
I102
aI88
aI492
aasS'f9_6'
p902
(lp903
(lp904
I52
aI197
aI499
aasS'f9_7'
p905
(lp906
(lp907
I52
aI188
aI489
aasS'f9_4'
p908
(lp909
(lp910
I124
aI84
aI275
aasS'f9_5'
p911
(lp912
(lp913
I52
aI144
aI499
aasS'f9_2'
p914
(lp915
(lp916
I143
aI1
aI97
aa(lp917
I52
aI177
aI500
aasS'f9_3'
p918
(lp919
(lp920
I52
aI84
aI499
aasS'ID_68_F1_19_F2_17_G_3_SplitPt_95_GenID_0'
p921
(lp922
(lp923
I144
aI96
aI500
aa(lp924
I130
aI17
aI101
aasS'f19_31'
p925
(lp926
(lp927
I6
aI225
aI498
aa(lp928
I18
aI7
aI457
aasS'ID_79_F1_17_F2_10_G_3_SplitPt_241_GenID_0'
p929
(lp930
(lp931
I33
aI1
aI242
aa(lp932
I74
aI250
aI478
aasS'f10_11'
p933
(lp934
(lp935
I49
aI155
aI500
aasS'ID_191_F1_15_F2_19_G_3_SplitPt_106_GenID_0'
p936
(lp937
(lp938
I11
aI1
aI99
aa(lp939
I18
aI64
aI500
aasS'f9_28'
p940
(lp941
(lp942
I59
aI78
aI195
aasS'f2_29'
p943
(lp944
(lp945
I145
aI2
aI435
aa(lp946
I40
aI222
aI481
aasS'f9_25'
p947
(lp948
(lp949
I22
aI1
aI190
aasS'f9_24'
p950
(lp951
(lp952
I22
aI3
aI189
aasS'f9_27'
p953
(lp954
(lp955
I22
aI1
aI228
aasS'ID_85_F1_7_F2_13_G_3_SplitPt_60_GenID_0'
p956
(lp957
(lp958
I112
aI1
aI60
aa(lp959
I81
aI61
aI499
aasS'f9_20'
p960
(lp961
(lp962
I104
aI90
aI461
aasS'f9_23'
p963
(lp964
(lp965
I104
aI8
aI499
aasS'f9_22'
p966
(lp967
(lp968
I104
aI15
aI482
aasS'f5_21'
p969
(lp970
(lp971
I146
aI39
aI459
aasS'f5_20'
p972
(lp973
(lp974
I7
aI9
aI334
aasS'f5_23'
p975
(lp976
(lp977
I107
aI16
aI161
aa(lp978
I108
aI237
aI497
aasS'f5_22'
p979
(lp980
(lp981
I107
aI1
aI161
aa(lp982
I108
aI28
aI478
aasS'ID_208_F1_10_F2_10_G_4_SplitPt_55_GenID_0'
p983
(lp984
(lp985
I147
aI1
aI74
aa(lp986
I42
aI66
aI500
aasS'f5_24'
p987
(lp988
(lp989
I135
aI3
aI198
aa(lp990
I98
aI34
aI478
aasS'f5_27'
p991
(lp992
(lp993
I135
aI34
aI190
aasS'f5_26'
p994
(lp995
(lp996
I98
aI203
aI433
aasS'f5_29'
p997
(lp998
(lp999
I148
aI61
aI499
aasS'f5_25'
p1000
(lp1001
(lp1002
I135
aI1
aI200
aa(lp1003
I98
aI193
aI419
aasS'f15_30'
p1004
(lp1005
(lp1006
I10
aI4
aI259
aa(lp1007
I9
aI131
aI500
aasS'f4_28'
p1008
(lp1009
(lp1010
I149
aI334
aI493
aa(lp1011
I58
aI1
aI233
aa(lp1012
I29
aI203
aI490
aasS'f4_29'
p1013
(lp1014
(lp1015
I58
aI44
aI240
aasS'ID_108_F1_14_F2_18_G_3_SplitPt_63_GenID_0'
p1016
(lp1017
(lp1018
I50
aI64
aI500
aasS'f4_22'
p1019
(lp1020
(lp1021
I150
aI278
aI487
aasS'f4_20'
p1022
(lp1023
(lp1024
I150
aI48
aI490
aasS'f4_21'
p1025
(lp1026
(lp1027
I150
aI44
aI490
aasS'f4_26'
p1028
(lp1029
(lp1030
I149
aI334
aI494
aasS'f4_27'
p1031
(lp1032
(lp1033
I29
aI135
aI496
aasS'f4_25'
p1034
(lp1035
(lp1036
I29
aI227
aI453
aasS'ID_251_F1_7_F2_4_G_4_SplitPt_96_GenID_0'
p1037
(lp1038
(lp1039
I109
aI1
aI109
aa(lp1040
I151
aI81
aI246
aasS'ID_132_F1_12_F2_13_G_4_SplitPt_211_GenID_0'
p1041
(lp1042
(lp1043
I152
aI205
aI500
aa(lp1044
I38
aI1
aI225
aasS'ID_200_F1_8_F2_13_G_3_SplitPt_130_GenID_0'
p1045
(lp1046
(lp1047
I153
aI143
aI332
aa(lp1048
I154
aI5
aI137
aasS'ID_20_F1_0_F2_12_G_4_SplitPt_176_GenID_0'
p1049
(lp1050
(lp1051
I30
aI167
aI500
aa(lp1052
I41
aI1
aI189
aasS'f0_31'
p1053
(lp1054
(lp1055
I155
aI65
aI248
aasS'f0_30'
p1056
(lp1057
(lp1058
I79
aI177
aI490
aasS'f5_17'
p1059
(lp1060
(lp1061
I146
aI39
aI459
aa(lp1062
I115
aI1
aI94
aasS'ID_47_F1_10_F2_18_G_4_SplitPt_234_GenID_0'
p1063
(lp1064
(lp1065
I73
aI3
aI133
aa(lp1066
I92
aI113
aI500
aasS'ID_136_F1_4_F2_7_G_3_SplitPt_224_GenID_0'
p1067
(lp1068
(lp1069
I2
aI130
aI216
aa(lp1070
I113
aI191
aI499
aasS'ID_75_F1_4_F2_7_G_4_SplitPt_162_GenID_0'
p1071
(lp1072
(lp1073
I156
aI1
aI237
aa(lp1074
I45
aI163
aI500
aasS'f5_18'
p1075
(lp1076
(lp1077
I108
aI28
aI498
aasS'f1_18'
p1078
(lp1079
(lp1080
I157
aI1
aI238
aa(lp1081
I94
aI44
aI497
aasS'f1_19'
p1082
(lp1083
(lp1084
I94
aI146
aI497
aasS'f1_14'
p1085
(lp1086
(lp1087
I158
aI4
aI99
aa(lp1088
I90
aI10
aI500
aasS'f1_15'
p1089
(lp1090
(lp1091
I158
aI4
aI106
aa(lp1092
I90
aI161
aI498
aasS'f1_16'
p1093
(lp1094
(lp1095
I94
aI196
aI500
aasS'f1_17'
p1096
(lp1097
(lp1098
I157
aI20
aI238
aa(lp1099
I94
aI73
aI499
aasS'ID_164_F1_18_F2_2_G_3_SplitPt_97_GenID_0'
p1100
(lp1101
(lp1102
I159
aI1
aI105
aa(lp1103
I25
aI85
aI495
aasS'f1_11'
p1104
(lp1105
(lp1106
I90
aI10
aI453
aasS'f1_12'
p1107
(lp1108
(lp1109
I90
aI134
aI475
aasS'f1_13'
p1110
(lp1111
(lp1112
I90
aI126
aI498
aasS'ID_74_F1_4_F2_15_G_2_SplitPt_63_GenID_0'
p1113
(lp1114
(lp1115
I12
aI76
aI497
aasS'f10_31'
p1116
(lp1117
(lp1118
I72
aI3
aI231
aa(lp1119
I73
aI1
aI130
aasS'f10_30'
p1120
(lp1121
(lp1122
I72
aI3
aI231
aa(lp1123
I73
aI1
aI130
aasS'f4_12'
p1124
(lp1125
(lp1126
I160
aI252
aI356
aasS'f12_9'
p1127
(lp1128
(lp1129
I161
aI10
aI494
aasS'f12_8'
p1130
(lp1131
(lp1132
I162
aI2
aI151
aa(lp1133
I161
aI132
aI496
aasS'f19_8'
p1134
(lp1135
(lp1136
I163
aI4
aI117
aasS'f19_9'
p1137
(lp1138
(lp1139
I163
aI1
aI119
aa(lp1140
I133
aI42
aI224
aasS'f3_18'
p1141
(lp1142
(lp1143
I123
aI77
aI500
aasS'f3_19'
p1144
(lp1145
(lp1146
I123
aI29
aI494
aasS'f19_0'
p1147
(lp1148
(lp1149
I164
aI260
aI420
aasS'f3_13'
p1150
(lp1151
(lp1152
I121
aI58
aI497
aasS'f3_10'
p1153
(lp1154
(lp1155
I121
aI146
aI497
aasS'f19_3'
p1156
(lp1157
(lp1158
I165
aI5
aI265
aasS'f3_16'
p1159
(lp1160
(lp1161
I166
aI22
aI187
aa(lp1162
I123
aI130
aI492
aasS'f19_5'
p1163
(lp1164
(lp1165
I165
aI5
aI265
aasS'f3_14'
p1166
(lp1167
(lp1168
I121
aI58
aI500
aasS'f3_15'
p1169
(lp1170
(lp1171
I121
aI63
aI500
aasS'ID_120_F1_15_F2_8_G_2_SplitPt_182_GenID_0'
p1172
(lp1173
(lp1174
I141
aI24
aI184
aasS'ID_168_F1_19_F2_16_G_2_SplitPt_192_GenID_0'
p1175
(lp1176
(lp1177
I167
aI214
aI446
aasS'f18_31'
p1178
(lp1179
(lp1180
I168
aI10
aI319
aa(lp1181
I159
aI5
aI105
aasS'f18_30'
p1182
(lp1183
(lp1184
I159
aI1
aI96
aasS'f12_1'
p1185
(lp1186
(lp1187
I38
aI7
aI211
aa(lp1188
I48
aI56
aI500
aasS'f4_18'
p1189
(lp1190
(lp1191
I169
aI7
aI216
aa(lp1192
I150
aI48
aI500
aasS'f6_9'
p1193
(lp1194
(lp1195
I170
aI1
aI371
aasS'f6_8'
p1196
(lp1197
(lp1198
I170
aI1
aI396
aasS'f6_5'
p1199
(lp1200
(lp1201
I4
aI78
aI255
aa(lp1202
I5
aI92
aI497
aasS'ID_128_F1_11_F2_4_G_4_SplitPt_228_GenID_0'
p1203
(lp1204
(lp1205
I55
aI1
aI247
aa(lp1206
I150
aI194
aI500
aasS'f6_7'
p1207
(lp1208
(lp1209
I171
aI95
aI341
aasS'f6_6'
p1210
(lp1211
(lp1212
I5
aI88
aI499
aasS'f6_3'
p1213
(lp1214
(lp1215
I5
aI146
aI335
aasS'f6_2'
p1216
(lp1217
(lp1218
I171
aI95
aI341
aasS'f4_3'
p1219
(lp1220
(lp1221
I172
aI4
aI89
aa(lp1222
I24
aI43
aI499
aasS'f4_2'
p1223
(lp1224
(lp1225
I172
aI2
aI113
aa(lp1226
I160
aI215
aI356
aasS'ID_6_F1_9_F2_7_G_2_SplitPt_203_GenID_0'
p1227
(lp1228
(lp1229
I59
aI1
aI197
aa(lp1230
I83
aI211
aI403
aasS'f17_9'
p1231
(lp1232
(lp1233
I88
aI1
aI124
aa(lp1234
I117
aI4
aI449
aasS'f4_7'
p1235
(lp1236
(lp1237
I151
aI5
aI246
aasS'f4_6'
p1238
(lp1239
(lp1240
I151
aI9
aI242
aa(lp1241
I24
aI23
aI499
aasS'f4_5'
p1242
(lp1243
(lp1244
I151
aI1
aI245
aa(lp1245
I24
aI81
aI499
aasS'f4_4'
p1246
(lp1247
(lp1248
I151
aI1
aI246
aa(lp1249
I24
aI63
aI500
aasS'f4_9'
p1250
(lp1251
(lp1252
I156
aI14
aI237
aa(lp1253
I35
aI169
aI499
aasS'f17_1'
p1254
(lp1255
(lp1256
I173
aI388
aI481
aa(lp1257
I33
aI1
aI243
aasS'f17_6'
p1258
(lp1259
(lp1260
I174
aI8
aI211
aasS'f17_7'
p1261
(lp1262
(lp1263
I174
aI1
aI213
aa(lp1264
I34
aI24
aI499
aasS'f17_4'
p1265
(lp1266
(lp1267
I34
aI153
aI499
aasS'ID_18_F1_12_F2_17_G_2_SplitPt_238_GenID_0'
p1268
(lp1269
(lp1270
I162
aI2
aI246
aa(lp1271
I17
aI199
aI486
aasS'ID_80_F1_6_F2_10_G_4_SplitPt_212_GenID_0'
p1272
(lp1273
(lp1274
I175
aI1
aI238
aa(lp1275
I49
aI183
aI500
aasS'f7_23'
p1276
(lp1277
(lp1278
I45
aI163
aI500
aasS'f7_22'
p1279
(lp1280
(lp1281
I106
aI22
aI371
aa(lp1282
I45
aI165
aI500
aasS'f7_21'
p1283
(lp1284
(lp1285
I14
aI5
aI92
aa(lp1286
I45
aI145
aI500
aasS'f7_20'
p1287
(lp1288
(lp1289
I14
aI2
aI92
aa(lp1290
I45
aI111
aI500
aasS'f7_27'
p1291
(lp1292
(lp1293
I127
aI344
aI498
aasS'f7_26'
p1294
(lp1295
(lp1296
I127
aI333
aI500
aa(lp1297
I83
aI223
aI415
aasS'f7_25'
p1298
(lp1299
(lp1300
I3
aI1
aI212
aa(lp1301
I83
aI176
aI490
aasS'f7_24'
p1302
(lp1303
(lp1304
I3
aI1
aI202
aa(lp1305
I83
aI173
aI482
aasS'ID_145_F1_15_F2_4_G_3_SplitPt_226_GenID_0'
p1306
(lp1307
(lp1308
I176
aI1
aI239
aa(lp1309
I29
aI227
aI499
aasS'f7_29'
p1310
(lp1311
(lp1312
I136
aI90
aI500
aasS'f7_28'
p1313
(lp1314
(lp1315
I136
aI127
aI500
aasS'f8_9'
p1316
(lp1317
(lp1318
I154
aI6
aI116
aa(lp1319
I118
aI170
aI388
aasS'f8_8'
p1320
(lp1321
(lp1322
I154
aI5
aI137
aa(lp1323
I118
aI170
aI464
aasS'ID_94_F1_18_F2_12_G_3_SplitPt_131_GenID_0'
p1324
(lp1325
(lp1326
I177
aI2
aI223
aa(lp1327
I161
aI132
aI497
aasS'ID_150_F1_6_F2_7_G_4_SplitPt_199_GenID_0'
p1328
(lp1329
(lp1330
I54
aI1
aI57
aa(lp1331
I113
aI193
aI500
aasS'f11_0'
p1332
(lp1333
(lp1334
I178
aI79
aI315
aasS'f11_1'
p1335
(lp1336
(lp1337
I178
aI79
aI252
aasS'f11_2'
p1338
(lp1339
(lp1340
I179
aI85
aI499
aasS'f11_3'
p1341
(lp1342
(lp1343
I178
aI82
aI261
aasS'f11_4'
p1344
(lp1345
(lp1346
I125
aI2
aI240
aa(lp1347
I180
aI31
aI498
aasS'f11_5'
p1348
(lp1349
(lp1350
I125
aI1
aI242
aasS'f11_6'
p1351
(lp1352
(lp1353
I125
aI1
aI219
aa(lp1354
I180
aI31
aI499
aasS'f11_7'
p1355
(lp1356
(lp1357
I125
aI1
aI211
aa(lp1358
I180
aI81
aI499
aasS'f11_8'
p1359
(lp1360
(lp1361
I99
aI61
aI500
aasS'f11_9'
p1362
(lp1363
(lp1364
I99
aI43
aI500
aasS'f2_9'
p1365
(lp1366
(lp1367
I181
aI1
aI98
aa(lp1368
I25
aI22
aI491
aasS'f2_8'
p1369
(lp1370
(lp1371
I181
aI6
aI98
aasS'f13_4'
p1372
(lp1373
(lp1374
I120
aI191
aI500
aa(lp1375
I122
aI23
aI341
aasS'f13_5'
p1376
(lp1377
(lp1378
I120
aI243
aI500
aa(lp1379
I122
aI24
aI470
aasS'f13_2'
p1380
(lp1381
(lp1382
I182
aI114
aI327
aasS'f13_3'
p1383
(lp1384
(lp1385
I122
aI1
aI376
aasS'f13_0'
p1386
(lp1387
(lp1388
I122
aI11
aI423
aasS'ID_188_F1_1_F2_12_G_3_SplitPt_166_GenID_0'
p1389
(lp1390
(lp1391
I142
aI3
aI167
aa(lp1392
I30
aI167
aI489
aasS'f2_1'
p1393
(lp1394
(lp1395
I183
aI8
aI306
aa(lp1396
I60
aI139
aI500
aasS'f2_0'
p1397
(lp1398
(lp1399
I60
aI31
aI500
aasS'f2_3'
p1400
(lp1401
(lp1402
I60
aI69
aI499
aasS'f2_2'
p1403
(lp1404
(lp1405
I60
aI60
aI490
aasS'f2_5'
p1406
(lp1407
(lp1408
I26
aI121
aI253
aasS'f2_4'
p1409
(lp1410
(lp1411
I184
aI9
aI194
aa(lp1412
I60
aI31
aI497
aasS'f2_7'
p1413
(lp1414
(lp1415
I183
aI6
aI316
aa(lp1416
I60
aI147
aI500
aasS'f13_9'
p1417
(lp1418
(lp1419
I86
aI233
aI484
aasS'f15_4'
p1420
(lp1421
(lp1422
I185
aI109
aI497
aa(lp1423
I37
aI1
aI231
aasS'f15_5'
p1424
(lp1425
(lp1426
I185
aI110
aI491
aa(lp1427
I37
aI1
aI251
aasS'f15_6'
p1428
(lp1429
(lp1430
I185
aI106
aI398
aa(lp1431
I37
aI1
aI224
aasS'f15_7'
p1432
(lp1433
(lp1434
I186
aI310
aI497
aa(lp1435
I37
aI1
aI221
aasS'f15_0'
p1436
(lp1437
(lp1438
I21
aI163
aI340
aasS'f15_1'
p1439
(lp1440
(lp1441
I186
aI310
aI497
aasS'f15_2'
p1442
(lp1443
(lp1444
I176
aI18
aI235
aa(lp1445
I185
aI160
aI497
aasS'f15_3'
p1446
(lp1447
(lp1448
I176
aI1
aI383
aa(lp1449
I185
aI170
aI497
aasS'f0_6'
p1450
(lp1451
(lp1452
I187
aI152
aI494
aasS'f0_5'
p1453
(lp1454
(lp1455
I188
aI313
aI490
aasS'f15_8'
p1456
(lp1457
(lp1458
I67
aI76
aI500
aasS'f0_2'
p1459
(lp1460
(lp1461
I189
aI5
aI489
aasS'f0_1'
p1462
(lp1463
(lp1464
I189
aI48
aI489
aasS'f0_0'
p1465
(lp1466
(lp1467
I187
aI152
aI423
aasS'ID_123_F1_9_F2_10_G_3_SplitPt_111_GenID_0'
p1468
(lp1469
(lp1470
I22
aI11
aI111
aa(lp1471
I42
aI111
aI500
aasS'ID_152_F1_13_F2_10_G_4_SplitPt_245_GenID_0'
p1472
(lp1473
(lp1474
I87
aI1
aI246
aa(lp1475
I103
aI246
aI500
aasS'ID_231_F1_17_F2_18_G_4_SplitPt_224_GenID_0'
p1476
(lp1477
(lp1478
I44
aI1
aI98
aa(lp1479
I92
aI225
aI500
aasS'ID_216_F1_19_F2_15_G_2_SplitPt_98_GenID_0'
p1480
(lp1481
(lp1482
I9
aI101
aI491
aasS'ID_166_F1_5_F2_17_G_4_SplitPt_90_GenID_0'
p1483
(lp1484
(lp1485
I115
aI1
aI94
aa(lp1486
I174
aI87
aI211
aasS'f8_26'
p1487
(lp1488
(lp1489
I15
aI73
aI500
aasS'f16_13'
p1490
(lp1491
(lp1492
I190
aI2
aI159
aa(lp1493
I62
aI1
aI78
aa(lp1494
I28
aI139
aI500
aasS'f16_12'
p1495
(lp1496
(lp1497
I62
aI2
aI78
aa(lp1498
I28
aI134
aI491
aasS'f16_11'
p1499
(lp1500
(lp1501
I28
aI202
aI485
aasS'f16_10'
p1502
(lp1503
(lp1504
I28
aI202
aI498
aasS'f16_17'
p1505
(lp1506
(lp1507
I43
aI2
aI442
aasS'f16_16'
p1508
(lp1509
(lp1510
I43
aI1
aI442
aasS'f16_15'
p1511
(lp1512
(lp1513
I28
aI116
aI500
aasS'f16_14'
p1514
(lp1515
(lp1516
I28
aI99
aI500
aasS'f16_19'
p1517
(lp1518
(lp1519
I43
aI1
aI400
aasS'f16_18'
p1520
(lp1521
(lp1522
I43
aI1
aI442
aasS'f6_24'
p1523
(lp1524
(lp1525
I54
aI1
aI60
aa(lp1526
I1
aI32
aI500
aasS'f6_25'
p1527
(lp1528
(lp1529
I54
aI1
aI57
aa(lp1530
I1
aI5
aI500
aasS'f6_26'
p1531
(lp1532
(lp1533
I191
aI5
aI242
aasS'f6_27'
p1534
(lp1535
(lp1536
I192
aI371
aI436
aa(lp1537
I191
aI39
aI197
aasS'f6_20'
p1538
(lp1539
(lp1540
I193
aI134
aI410
aasS'f6_21'
p1541
(lp1542
(lp1543
I194
aI348
aI479
aa(lp1544
I80
aI1
aI207
aasS'f6_22'
p1545
(lp1546
(lp1547
I194
aI323
aI435
aa(lp1548
I80
aI1
aI169
aasS'f6_23'
p1549
(lp1550
(lp1551
I192
aI371
aI436
aa(lp1552
I80
aI1
aI181
aasS'ID_5_F1_16_F2_0_G_4_SplitPt_192_GenID_0'
p1553
(lp1554
(lp1555
I79
aI177
aI500
aa(lp1556
I43
aI1
aI221
aasS'f6_28'
p1557
(lp1558
(lp1559
I1
aI4
aI457
aasS'f6_29'
p1560
(lp1561
(lp1562
I1
aI22
aI456
aasS'f1_25'
p1563
(lp1564
(lp1565
I195
aI1
aI216
aasS'f1_24'
p1566
(lp1567
(lp1568
I195
aI1
aI216
aasS'ID_112_F1_9_F2_1_G_3_SplitPt_103_GenID_0'
p1569
(lp1570
(lp1571
I143
aI1
aI97
aa(lp1572
I78
aI102
aI500
aasS'f1_26'
p1573
(lp1574
(lp1575
I196
aI294
aI497
aa(lp1576
I195
aI5
aI180
aasS'f1_21'
p1577
(lp1578
(lp1579
I94
aI84
aI493
aasS'f1_20'
p1580
(lp1581
(lp1582
I94
aI44
aI497
aasS'f1_23'
p1583
(lp1584
(lp1585
I94
aI70
aI500
aasS'f1_22'
p1586
(lp1587
(lp1588
I94
aI70
aI497
aasS'f14_15'
p1589
(lp1590
(lp1591
I61
aI12
aI500
aasS'f14_14'
p1592
(lp1593
(lp1594
I61
aI10
aI457
aasS'f14_17'
p1595
(lp1596
(lp1597
I197
aI236
aI458
aasS'f14_16'
p1598
(lp1599
(lp1600
I197
aI114
aI468
aasS'f14_11'
p1601
(lp1602
(lp1603
I61
aI38
aI500
aasS'f14_10'
p1604
(lp1605
(lp1606
I61
aI111
aI500
aasS'ID_219_F1_0_F2_14_G_3_SplitPt_109_GenID_0'
p1607
(lp1608
(lp1609
I61
aI87
aI500
aa(lp1610
I41
aI1
aI109
aasS'f14_12'
p1611
(lp1612
(lp1613
I61
aI10
aI457
aasS'ID_135_F1_18_F2_0_G_2_SplitPt_172_GenID_0'
p1614
(lp1615
(lp1616
I41
aI173
aI496
aasS'ID_35_F1_15_F2_18_G_4_SplitPt_54_GenID_0'
p1617
(lp1618
(lp1619
I8
aI1
aI55
aa(lp1620
I91
aI58
aI500
aasS'f0_12'
p1621
(lp1622
(lp1623
I41
aI1
aI500
aasS'ID_171_F1_12_F2_18_G_2_SplitPt_122_GenID_0'
p1624
(lp1625
(lp1626
I96
aI168
aI309
aasS'f2_31'
p1627
(lp1628
(lp1629
I145
aI1
aI426
aasS'f2_30'
p1630
(lp1631
(lp1632
I145
aI1
aI433
aasS'ID_236_F1_12_F2_14_G_2_SplitPt_122_GenID_0'
p1633
(lp1634
(lp1635
I61
aI115
aI482
aasS'f13_30'
p1636
(lp1637
(lp1638
I198
aI259
aI499
aa(lp1639
I153
aI143
aI332
aasS'f13_31'
p1640
(lp1641
(lp1642
I32
aI149
aI500
aasS'ID_84_F1_1_F2_9_G_2_SplitPt_79_GenID_0'
p1643
(lp1644
(lp1645
I52
aI235
aI479
aasS'f8_13'
p1646
(lp1647
(lp1648
I65
aI193
aI500
aasS'f8_12'
p1649
(lp1650
(lp1651
I65
aI162
aI500
aasS'f8_11'
p1652
(lp1653
(lp1654
I118
aI136
aI495
aasS'f8_10'
p1655
(lp1656
(lp1657
I118
aI137
aI494
aasS'f8_17'
p1658
(lp1659
(lp1660
I116
aI1
aI180
aa(lp1661
I15
aI8
aI495
aasS'f8_16'
p1662
(lp1663
(lp1664
I105
aI273
aI409
aa(lp1665
I116
aI4
aI153
aasS'f8_15'
p1666
(lp1667
(lp1668
I65
aI223
aI491
aasS'f8_14'
p1669
(lp1670
(lp1671
I65
aI227
aI491
aasS'ID_96_F1_3_F2_5_G_2_SplitPt_127_GenID_0'
p1672
(lp1673
(lp1674
I199
aI5
aI81
aa(lp1675
I7
aI128
aI497
aasS'f8_19'
p1676
(lp1677
(lp1678
I116
aI4
aI169
aa(lp1679
I15
aI73
aI499
aasS'f8_18'
p1680
(lp1681
(lp1682
I116
aI8
aI104
aa(lp1683
I15
aI75
aI500
aasS'ID_33_F1_16_F2_7_G_3_SplitPt_159_GenID_0'
p1684
(lp1685
(lp1686
I110
aI151
aI500
aa(lp1687
I62
aI2
aI77
aasS'f0_10'
p1688
(lp1689
(lp1690
I41
aI1
aI466
aasS'ID_227_F1_7_F2_5_G_3_SplitPt_77_GenID_0'
p1691
(lp1692
(lp1693
I7
aI61
aI498
aasS'ID_142_F1_14_F2_19_G_1_SplitPt_209_GenID_0'
p1694
(lp1695
(lp1696
I164
aI260
aI420
aasS'ID_130_F1_4_F2_13_G_4_SplitPt_245_GenID_0'
p1697
(lp1698
(lp1699
I120
aI197
aI500
aa(lp1700
I151
aI1
aI246
aasS'ID_64_F1_4_F2_3_G_3_SplitPt_92_GenID_0'
p1701
(lp1702
(lp1703
I172
aI2
aI113
aa(lp1704
I123
aI93
aI500
aasS'ID_124_F1_16_F2_18_G_1_SplitPt_184_GenID_0'
p1705
(lp1706
(lp1707
I200
aI190
aI424
aasS'f1_27'
p1708
(lp1709
(lp1710
I196
aI218
aI460
aa(lp1711
I195
aI5
aI180
aasS'f18_1'
p1712
(lp1713
(lp1714
I50
aI4
aI500
aasS'f18_0'
p1715
(lp1716
(lp1717
I50
aI6
aI496
aasS'f18_3'
p1718
(lp1719
(lp1720
I50
aI3
aI450
aasS'f18_2'
p1721
(lp1722
(lp1723
I50
aI6
aI498
aasS'f18_4'
p1724
(lp1725
(lp1726
I200
aI190
aI424
aa(lp1727
I50
aI34
aI369
aasS'f18_6'
p1728
(lp1729
(lp1730
I200
aI193
aI372
aasS'f18_9'
p1731
(lp1732
(lp1733
I138
aI13
aI461
aasS'f18_8'
p1734
(lp1735
(lp1736
I50
aI56
aI257
aasS'ID_55_F1_0_F2_14_G_2_SplitPt_52_GenID_0'
p1737
(lp1738
(lp1739
I201
aI78
aI334
aa(lp1740
I202
aI254
aI498
aasS'ID_172_F1_16_F2_8_G_2_SplitPt_147_GenID_0'
p1741
(lp1742
(lp1743
I140
aI154
aI311
aasS'f9_30'
p1744
(lp1745
(lp1746
I59
aI4
aI176
aasS'f9_31'
p1747
(lp1748
(lp1749
I203
aI7
aI417
aa(lp1750
I59
aI2
aI197
aasS'f5_31'
p1751
(lp1752
(lp1753
I148
aI61
aI499
aasS'ID_12_F1_15_F2_10_G_4_SplitPt_225_GenID_0'
p1754
(lp1755
(lp1756
I37
aI1
aI231
aa(lp1757
I42
aI169
aI500
aasS'f16_28'
p1758
(lp1759
(lp1760
I43
aI56
aI500
aasS'f16_29'
p1761
(lp1762
(lp1763
I28
aI236
aI480
aasS'f14_9'
p1764
(lp1765
(lp1766
I61
aI46
aI500
aasS'f14_8'
p1767
(lp1768
(lp1769
I61
aI118
aI500
aasS'f14_5'
p1770
(lp1771
(lp1772
I204
aI5
aI203
aa(lp1773
I61
aI51
aI500
aasS'f14_4'
p1774
(lp1775
(lp1776
I204
aI43
aI174
aasS'f14_7'
p1777
(lp1778
(lp1779
I61
aI38
aI498
aasS'f14_6'
p1780
(lp1781
(lp1782
I61
aI44
aI435
aasS'ID_243_F1_0_F2_11_G_2_SplitPt_77_GenID_0'
p1783
(lp1784
(lp1785
I179
aI82
aI499
aa(lp1786
I178
aI79
aI315
aasS'f14_0'
p1787
(lp1788
(lp1789
I61
aI35
aI416
aasS'f14_3'
p1790
(lp1791
(lp1792
I204
aI17
aI203
aasS'f16_25'
p1793
(lp1794
(lp1795
I43
aI13
aI426
aasS'f16_3'
p1796
(lp1797
(lp1798
I205
aI65
aI374
aasS'ID_246_F1_1_F2_18_G_2_SplitPt_120_GenID_0'
p1799
(lp1800
(lp1801
I91
aI106
aI477
aasS'f16_1'
p1802
(lp1803
(lp1804
I205
aI54
aI498
aasS'f16_7'
p1805
(lp1806
(lp1807
I77
aI192
aI497
aasS'f16_6'
p1808
(lp1809
(lp1810
I77
aI174
aI497
aasS'f0_28'
p1811
(lp1812
(lp1813
I79
aI1
aI500
aasS'f16_4'
p1814
(lp1815
(lp1816
I167
aI214
aI446
aasS'f0_27'
p1817
(lp1818
(lp1819
I79
aI52
aI496
aasS'f16_9'
p1820
(lp1821
(lp1822
I28
aI99
aI493
aasS'f0_25'
p1823
(lp1824
(lp1825
I189
aI5
aI414
aasS'ID_0_F1_19_F2_2_G_2_SplitPt_172_GenID_0'
p1826
(lp1827
(lp1828
I134
aI11
aI175
aa(lp1829
I19
aI191
aI500
aasS'ID_192_F1_0_F2_2_G_3_SplitPt_75_GenID_0'
p1830
(lp1831
(lp1832
I19
aI75
aI500
aasS'f17_21'
p1833
(lp1834
(lp1835
I206
aI9
aI248
aa(lp1836
I17
aI49
aI483
aasS'f17_20'
p1837
(lp1838
(lp1839
I206
aI1
aI250
aa(lp1840
I17
aI19
aI500
aasS'f17_23'
p1841
(lp1842
(lp1843
I206
aI4
aI251
aa(lp1844
I17
aI48
aI475
aasS'f17_22'
p1845
(lp1846
(lp1847
I206
aI1
aI250
aa(lp1848
I17
aI25
aI490
aasS'f18_16'
p1849
(lp1850
(lp1851
I92
aI10
aI463
aasS'f17_27'
p1852
(lp1853
(lp1854
I207
aI116
aI348
aasS'f17_26'
p1855
(lp1856
(lp1857
I207
aI110
aI374
aasS'f17_28'
p1858
(lp1859
(lp1860
I207
aI110
aI375
aasS'ID_204_F1_0_F2_11_G_2_SplitPt_73_GenID_0'
p1861
(lp1862
(lp1863
I53
aI107
aI415
aasS'ID_189_F1_11_F2_15_G_3_SplitPt_240_GenID_0'
p1864
(lp1865
(lp1866
I97
aI3
aI237
aa(lp1867
I12
aI241
aI499
aasS'ID_169_F1_0_F2_11_G_4_SplitPt_180_GenID_0'
p1868
(lp1869
(lp1870
I99
aI179
aI500
aa(lp1871
I41
aI1
aI184
aasS'f14_13'
p1872
(lp1873
(lp1874
I61
aI46
aI472
aasS'ID_255_F1_18_F2_18_G_3_SplitPt_136_GenID_0'
p1875
(lp1876
(lp1877
I46
aI1
aI141
aa(lp1878
I92
aI110
aI500
aasS'ID_28_F1_18_F2_3_G_2_SplitPt_180_GenID_0'
p1879
(lp1880
(lp1881
I121
aI216
aI495
aasS'f10_9'
p1882
(lp1883
(lp1884
I208
aI5
aI455
aa(lp1885
I49
aI232
aI500
aasS'f10_8'
p1886
(lp1887
(lp1888
I49
aI163
aI500
aasS'f10_1'
p1889
(lp1890
(lp1891
I103
aI26
aI476
aasS'f10_0'
p1892
(lp1893
(lp1894
I103
aI7
aI449
aasS'f10_3'
p1895
(lp1896
(lp1897
I103
aI180
aI412
aasS'f10_2'
p1898
(lp1899
(lp1900
I209
aI107
aI205
aasS'f10_5'
p1901
(lp1902
(lp1903
I209
aI107
aI205
aa(lp1904
I103
aI246
aI500
aasS'f10_4'
p1905
(lp1906
(lp1907
I103
aI115
aI500
aasS'f10_7'
p1908
(lp1909
(lp1910
I27
aI3
aI203
aa(lp1911
I103
aI248
aI440
aasS'f10_6'
p1912
(lp1913
(lp1914
I27
aI3
aI206
aa(lp1915
I103
aI31
aI500
aasS'f4_17'
p1916
(lp1917
(lp1918
I150
aI160
aI494
aasS'f4_16'
p1919
(lp1920
(lp1921
I150
aI141
aI489
aasS'f4_15'
p1922
(lp1923
(lp1924
I210
aI2
aI151
aa(lp1925
I24
aI43
aI489
aasS'f4_14'
p1926
(lp1927
(lp1928
I210
aI2
aI151
aa(lp1929
I24
aI148
aI499
aasS'f4_13'
p1930
(lp1931
(lp1932
I160
aI208
aI320
aa(lp1933
I156
aI16
aI163
aasS'ID_17_F1_1_F2_13_G_4_SplitPt_216_GenID_0'
p1934
(lp1935
(lp1936
I195
aI1
aI216
aa(lp1937
I81
aI172
aI500
aasS'f4_11'
p1938
(lp1939
(lp1940
I156
aI3
aI162
aa(lp1941
I35
aI53
aI496
aasS'f4_10'
p1942
(lp1943
(lp1944
I156
aI1
aI162
aa(lp1945
I35
aI237
aI474
aa(lp1946
I24
aI16
aI453
aasS'f12_3'
p1947
(lp1948
(lp1949
I38
aI8
aI210
aa(lp1950
I48
aI52
aI487
aasS'f12_2'
p1951
(lp1952
(lp1953
I38
aI19
aI211
aa(lp1954
I48
aI123
aI497
aasS'f4_19'
p1955
(lp1956
(lp1957
I169
aI11
aI223
aa(lp1958
I150
aI44
aI494
aasS'ID_241_F1_2_F2_3_G_4_SplitPt_98_GenID_0'
p1959
(lp1960
(lp1961
I181
aI1
aI98
aa(lp1962
I121
aI80
aI500
aasS'f3_27'
p1963
(lp1964
(lp1965
I211
aI129
aI500
aasS'f3_26'
p1966
(lp1967
(lp1968
I211
aI141
aI500
aasS'f3_25'
p1969
(lp1970
(lp1971
I211
aI130
aI388
aasS'f3_24'
p1972
(lp1973
(lp1974
I211
aI149
aI497
aasS'f3_23'
p1975
(lp1976
(lp1977
I123
aI234
aI485
aasS'f3_22'
p1978
(lp1979
(lp1980
I123
aI77
aI498
aasS'ID_109_F1_19_F2_0_G_2_SplitPt_229_GenID_0'
p1981
(lp1982
(lp1983
I133
aI11
aI260
aa(lp1984
I41
aI227
aI492
aasS'ID_98_F1_3_F2_11_G_2_SplitPt_197_GenID_0'
p1985
(lp1986
(lp1987
I56
aI186
aI500
aasS'f3_29'
p1988
(lp1989
(lp1990
I199
aI5
aI83
aasS'f3_28'
p1991
(lp1992
(lp1993
I13
aI4
aI438
aasS'ID_4_F1_8_F2_15_G_2_SplitPt_103_GenID_0'
p1994
(lp1995
(lp1996
I185
aI90
aI500
aasS'f6_19'
p1997
(lp1998
(lp1999
I175
aI1
aI207
aasS'f6_18'
p2000
(lp2001
(lp2002
I175
aI1
aI211
aasS'f6_17'
p2003
(lp2004
(lp2005
I193
aI130
aI437
aa(lp2006
I175
aI1
aI212
aasS'f6_16'
p2007
(lp2008
(lp2009
I175
aI1
aI238
aasS'f6_13'
p2010
(lp2011
(lp2012
I170
aI1
aI396
aasS'ID_134_F1_19_F2_3_G_3_SplitPt_109_GenID_0'
p2013
(lp2014
(lp2015
I70
aI1
aI126
aa(lp2016
I63
aI109
aI500
aasS'ID_26_F1_14_F2_10_G_2_SplitPt_217_GenID_0'
p2017
(lp2018
(lp2019
I42
aI224
aI497
aasS'ID_88_F1_4_F2_15_G_3_SplitPt_91_GenID_0'
p2020
(lp2021
(lp2022
I68
aI95
aI315
aa(lp2023
I23
aI4
aI116
aasS'ID_198_F1_14_F2_9_G_3_SplitPt_174_GenID_0'
p2024
(lp2025
(lp2026
I204
aI5
aI175
aa(lp2027
I102
aI178
aI499
aasS'ID_90_F1_11_F2_11_G_3_SplitPt_159_GenID_0'
p2028
(lp2029
(lp2030
I100
aI1
aI215
aa(lp2031
I180
aI162
aI500
aasS'ID_104_F1_9_F2_13_G_2_SplitPt_242_GenID_0'
p2032
(lp2033
(lp2034
I86
aI233
aI484
aasS'ID_121_F1_1_F2_19_G_1_SplitPt_87_GenID_0'
p2035
(lp2036
(lp2037
I131
aI84
aI413
aasS'f7_30'
p2038
(lp2039
(lp2040
I83
aI280
aI403
aasS'f7_31'
p2041
(lp2042
(lp2043
I212
aI5
aI175
aa(lp2044
I127
aI333
aI500
aasS'f12_17'
p2045
(lp2046
(lp2047
I30
aI188
aI500
aasS'f12_16'
p2048
(lp2049
(lp2050
I30
aI18
aI500
aasS'f12_15'
p2051
(lp2052
(lp2053
I161
aI1
aI435
aasS'f12_14'
p2054
(lp2055
(lp2056
I161
aI5
aI447
aasS'f12_13'
p2057
(lp2058
(lp2059
I161
aI1
aI432
aasS'f12_12'
p2060
(lp2061
(lp2062
I161
aI12
aI494
aasS'f12_11'
p2063
(lp2064
(lp2065
I162
aI11
aI244
aasS'f12_10'
p2066
(lp2067
(lp2068
I162
aI6
aI182
aa(lp2069
I161
aI24
aI452
aasS'ID_197_F1_9_F2_3_G_4_SplitPt_138_GenID_0'
p2070
(lp2071
(lp2072
I101
aI1
aI138
aa(lp2073
I211
aI134
aI500
aasS'f12_19'
p2074
(lp2075
(lp2076
I30
aI150
aI499
aasS'f12_18'
p2077
(lp2078
(lp2079
I30
aI121
aI500
aasS'f13_11'
p2080
(lp2081
(lp2082
I84
aI226
aI372
aasS'ID_11_F1_8_F2_8_G_2_SplitPt_237_GenID_0'
p2083
(lp2084
(lp2085
I213
aI255
aI384
aasS'f11_30'
p2086
(lp2087
(lp2088
I39
aI9
aI235
aasS'f11_31'
p2089
(lp2090
(lp2091
I39
aI4
aI228
aa(lp2092
I36
aI180
aI490
aasS'ID_140_F1_16_F2_12_G_2_SplitPt_210_GenID_0'
p2093
(lp2094
(lp2095
I43
aI11
aI231
aasS'ID_76_F1_3_F2_15_G_1_SplitPt_250_GenID_0'
p2096
(lp2097
(lp2098
I166
aI22
aI187
aasS'ID_13_F1_4_F2_10_G_3_SplitPt_152_GenID_0'
p2099
(lp2100
(lp2101
I210
aI2
aI151
aa(lp2102
I49
aI155
aI500
aasS'ID_114_F1_19_F2_4_G_4_SplitPt_117_GenID_0'
p2103
(lp2104
(lp2105
I163
aI1
aI119
aa(lp2106
I24
aI86
aI500
aasS'f18_19'
p2107
(lp2108
(lp2109
I214
aI1
aI74
aasS'f18_18'
p2110
(lp2111
(lp2112
I214
aI1
aI75
aasS'f18_11'
p2113
(lp2114
(lp2115
I215
aI1
aI59
aa(lp2116
I177
aI7
aI233
aasS'f18_13'
p2117
(lp2118
(lp2119
I177
aI2
aI123
aa(lp2120
I138
aI93
aI474
aasS'f18_12'
p2121
(lp2122
(lp2123
I177
aI2
aI189
aa(lp2124
I138
aI66
aI500
aasS'f18_15'
p2125
(lp2126
(lp2127
I138
aI57
aI500
aasS'f18_14'
p2128
(lp2129
(lp2130
I138
aI13
aI499
aasS'ID_72_F1_1_F2_5_G_3_SplitPt_106_GenID_0'
p2131
(lp2132
(lp2133
I158
aI4
aI106
aa(lp2134
I108
aI74
aI499
aasS'f3_12'
p2135
(lp2136
(lp2137
I121
aI97
aI499
aasS'f12_27'
p2138
(lp2139
(lp2140
I30
aI32
aI500
aasS'f0_11'
p2141
(lp2142
(lp2143
I41
aI1
aI497
aasS'ID_16_F1_13_F2_11_G_2_SplitPt_69_GenID_0'
p2144
(lp2145
(lp2146
I99
aI194
aI480
aasS'f3_11'
p2147
(lp2148
(lp2149
I121
aI63
aI500
aasS'ID_196_F1_18_F2_15_G_4_SplitPt_75_GenID_0'
p2150
(lp2151
(lp2152
I214
aI1
aI75
aa(lp2153
I67
aI72
aI500
aasS'f14_20'
p2154
(lp2155
(lp2156
I216
aI2
aI194
aa(lp2157
I197
aI114
aI458
aasS'f19_4'
p2158
(lp2159
(lp2160
I217
aI78
aI472
aasS'f14_22'
p2161
(lp2162
(lp2163
I216
aI1
aI194
aa(lp2164
I197
aI152
aI458
aasS'f14_23'
p2165
(lp2166
(lp2167
I216
aI1
aI196
aa(lp2168
I197
aI145
aI468
aasS'f19_30'
p2169
(lp2170
(lp2171
I18
aI100
aI498
aasS'f14_25'
p2172
(lp2173
(lp2174
I218
aI2
aI74
aa(lp2175
I202
aI254
aI498
aasS'f14_27'
p2176
(lp2177
(lp2178
I201
aI78
aI334
aasS'f2_28'
p2179
(lp2180
(lp2181
I145
aI1
aI426
aasS'f10_10'
p2182
(lp2183
(lp2184
I147
aI1
aI74
aa(lp2185
I49
aI155
aI500
aasS'f10_13'
p2186
(lp2187
(lp2188
I42
aI233
aI498
aasS'ID_239_F1_14_F2_0_G_3_SplitPt_71_GenID_0'
p2189
(lp2190
(lp2191
I218
aI2
aI73
aa(lp2192
I155
aI66
aI249
aasS'f10_15'
p2193
(lp2194
(lp2195
I42
aI224
aI500
aasS'f10_14'
p2196
(lp2197
(lp2198
I42
aI66
aI497
aasS'f10_17'
p2199
(lp2200
(lp2201
I119
aI3
aI145
aasS'f10_16'
p2202
(lp2203
(lp2204
I119
aI1
aI169
aa(lp2205
I42
aI150
aI422
aasS'f10_19'
p2206
(lp2207
(lp2208
I119
aI40
aI154
aasS'f0_14'
p2209
(lp2210
(lp2211
I41
aI1
aI492
aasS'f2_24'
p2212
(lp2213
(lp2214
I40
aI200
aI500
aa(lp2215
I66
aI6
aI208
aa(lp2216
I19
aI10
aI445
aasS'f2_25'
p2217
(lp2218
(lp2219
I40
aI208
aI500
aa(lp2220
I66
aI9
aI180
aasS'f2_26'
p2221
(lp2222
(lp2223
I40
aI207
aI500
aa(lp2224
I66
aI1
aI217
aa(lp2225
I19
aI2
aI445
aasS'f2_27'
p2226
(lp2227
(lp2228
I40
aI198
aI494
aa(lp2229
I66
aI1
aI249
aasS'ID_233_F1_2_F2_0_G_2_SplitPt_194_GenID_0'
p2230
(lp2231
(lp2232
I184
aI9
aI194
aa(lp2233
I188
aI313
aI490
aasS'ID_116_F1_7_F2_16_G_2_SplitPt_173_GenID_0'
p2234
(lp2235
(lp2236
I212
aI5
aI175
aa(lp2237
I43
aI177
aI418
aasS'f13_25'
p2238
(lp2239
(lp2240
I126
aI1
aI207
aa(lp2241
I32
aI82
aI500
aasS'f13_24'
p2242
(lp2243
(lp2244
I198
aI259
aI499
aa(lp2245
I126
aI6
aI220
aasS'f13_27'
p2246
(lp2247
(lp2248
I126
aI12
aI199
aa(lp2249
I32
aI237
aI497
aasS'f13_26'
p2250
(lp2251
(lp2252
I126
aI12
aI195
aa(lp2253
I32
aI236
aI499
aasS'f13_21'
p2254
(lp2255
(lp2256
I152
aI219
aI484
aa(lp2257
I122
aI12
aI332
aasS'f13_20'
p2258
(lp2259
(lp2260
I182
aI114
aI327
aasS'f13_23'
p2261
(lp2262
(lp2263
I152
aI32
aI500
aasS'f13_22'
p2264
(lp2265
(lp2266
I152
aI212
aI500
aasS'f13_29'
p2267
(lp2268
(lp2269
I32
aI135
aI489
aasS'f13_28'
p2270
(lp2271
(lp2272
I32
aI34
aI497
aasS'ID_49_F1_18_F2_6_G_4_SplitPt_58_GenID_0'
p2273
(lp2274
(lp2275
I215
aI1
aI59
aa(lp2276
I191
aI57
aI242
aasS'f0_13'
p2277
(lp2278
(lp2279
I41
aI1
aI180
aa(lp2280
I41
aI208
aI499
aasS'ID_210_F1_17_F2_8_G_4_SplitPt_249_GenID_0'
p2281
(lp2282
(lp2283
I213
aI255
aI384
aa(lp2284
I206
aI1
aI251
aasS'ID_46_F1_1_F2_3_G_2_SplitPt_244_GenID_0'
p2285
(lp2286
(lp2287
I157
aI1
aI238
aa(lp2288
I123
aI234
aI499
aasS'ID_102_F1_0_F2_14_G_4_SplitPt_212_GenID_0'
p2289
(lp2290
(lp2291
I61
aI192
aI500
aa(lp2292
I41
aI1
aI250
aasS'f5_8'
p2293
(lp2294
(lp2295
I7
aI51
aI500
aasS'f0_8'
p2296
(lp2297
(lp2298
I41
aI1
aI500
aasS'ID_111_F1_1_F2_18_G_2_SplitPt_54_GenID_0'
p2299
(lp2300
(lp2301
I92
aI31
aI307
aasS'ID_139_F1_14_F2_1_G_4_SplitPt_195_GenID_0'
p2302
(lp2303
(lp2304
I216
aI1
aI196
aa(lp2305
I94
aI182
aI500
aasS'ID_211_F1_17_F2_7_G_3_SplitPt_199_GenID_0'
p2306
(lp2307
(lp2308
I33
aI1
aI213
aa(lp2309
I113
aI192
aI490
aasS'f16_31'
p2310
(lp2311
(lp2312
I43
aI75
aI241
aasS'ID_73_F1_5_F2_1_G_2_SplitPt_219_GenID_0'
p2313
(lp2314
(lp2315
I196
aI218
aI497
aasS'ID_195_F1_10_F2_12_G_4_SplitPt_81_GenID_0'
p2316
(lp2317
(lp2318
I76
aI1
aI81
aa(lp2319
I30
aI82
aI500
aasS'ID_180_F1_13_F2_17_G_2_SplitPt_137_GenID_0'
p2320
(lp2321
(lp2322
I219
aI132
aI275
aasS'f0_19'
p2323
(lp2324
(lp2325
I137
aI4
aI123
aasS'f0_18'
p2326
(lp2327
(lp2328
I137
aI1
aI135
aasS'f12_26'
p2329
(lp2330
(lp2331
I30
aI82
aI500
aasS'ID_184_F1_4_F2_3_G_4_SplitPt_239_GenID_0'
p2332
(lp2333
(lp2334
I58
aI1
aI240
aa(lp2335
I121
aI121
aI500
aasS'f12_24'
p2336
(lp2337
(lp2338
I30
aI82
aI489
aasS'f12_25'
p2339
(lp2340
(lp2341
I30
aI84
aI489
aasS'f0_17'
p2342
(lp2343
(lp2344
I137
aI10
aI135
aasS'f0_16'
p2345
(lp2346
(lp2347
I137
aI10
aI119
aasS'f12_20'
p2348
(lp2349
(lp2350
I30
aI82
aI500
aasS'f12_21'
p2351
(lp2352
(lp2353
I30
aI64
aI499
aasS'f17_18'
p2354
(lp2355
(lp2356
I206
aI44
aI222
aasS'f17_19'
p2357
(lp2358
(lp2359
I206
aI43
aI173
aasS'f17_15'
p2360
(lp2361
(lp2362
I173
aI388
aI476
aasS'f17_16'
p2363
(lp2364
(lp2365
I219
aI132
aI275
aa(lp2366
I44
aI6
aI84
aasS'f17_17'
p2367
(lp2368
(lp2369
I44
aI1
aI98
aa(lp2370
I17
aI19
aI500
aasS'f17_10'
p2371
(lp2372
(lp2373
I88
aI4
aI135
aasS'f17_11'
p2374
(lp2375
(lp2376
I117
aI4
aI500
aasS'f17_12'
p2377
(lp2378
(lp2379
I144
aI96
aI500
aasS'f17_13'
p2380
(lp2381
(lp2382
I144
aI96
aI500
aasS'f6_31'
p2383
(lp2384
(lp2385
I1
aI12
aI457
aasS'ID_183_F1_17_F2_11_G_3_SplitPt_210_GenID_0'
p2386
(lp2387
(lp2388
I174
aI1
aI214
aa(lp2389
I99
aI144
aI499
aas.