(dp1
S'ID_147_F1_4_F2_15_G_4_SplitPt_159_GenID_0'
p2
(lp3
(lp4
I1
aI159
aI200
aa(lp5
I2
aI1
aI65
aasS'f6_30'
p6
(lp7
(lp8
I3
aI6
aI500
aasS'f18_7'
p9
(lp10
(lp11
I4
aI36
aI452
aasS'ID_212_F1_8_F2_2_G_1_SplitPt_165_GenID_0'
p12
(lp13
(lp14
I5
aI165
aI470
aasS'ID_445_F1_8_F2_12_G_0_SplitPt_228_GenID_0'
p15
(lp16
(lp17
I6
aI381
aI496
aasS'ID_475_F1_12_F2_3_G_3_SplitPt_52_GenID_0'
p18
(lp19
(lp20
I7
aI47
aI500
aasS'ID_452_F1_18_F2_10_G_2_SplitPt_74_GenID_0'
p21
(lp22
(lp23
I8
aI150
aI297
aasS'f5_7'
p24
(lp25
(lp26
I9
aI16
aI493
aasS'f13_24'
p27
(lp28
(lp29
I10
aI11
aI500
aasS'ID_255_F1_2_F2_1_G_1_SplitPt_133_GenID_0'
p30
(lp31
(lp32
I11
aI193
aI451
aasS'ID_503_F1_5_F2_4_G_2_SplitPt_249_GenID_0'
p33
(lp34
(lp35
I12
aI24
aI249
aa(lp36
I13
aI251
aI499
aasS'f15_29'
p37
(lp38
(lp39
I14
aI16
aI144
aasS'f15_28'
p40
(lp41
(lp42
I14
aI6
aI118
aa(lp43
I15
aI7
aI499
aasS'f15_27'
p44
(lp45
(lp46
I16
aI1
aI118
aa(lp47
I15
aI59
aI499
aasS'f15_26'
p48
(lp49
(lp50
I16
aI1
aI117
aa(lp51
I17
aI20
aI197
aa(lp52
I15
aI71
aI499
aasS'f15_25'
p53
(lp54
(lp55
I17
aI7
aI218
aasS'f15_24'
p56
(lp57
(lp58
I17
aI23
aI200
aa(lp59
I15
aI67
aI500
aasS'f15_23'
p60
(lp61
(lp62
I18
aI1
aI123
aa(lp63
I15
aI119
aI500
aasS'f15_22'
p64
(lp65
(lp66
I19
aI398
aI455
aa(lp67
I18
aI1
aI193
aasS'f15_21'
p68
(lp69
(lp70
I20
aI1
aI151
aa(lp71
I15
aI67
aI500
aasS'f15_20'
p72
(lp73
(lp74
I20
aI1
aI155
aa(lp75
I15
aI3
aI500
aasS'ID_422_F1_2_F2_16_G_4_SplitPt_64_GenID_0'
p76
(lp77
(lp78
I21
aI1
aI64
aa(lp79
I22
aI61
aI500
aasS'f0_3'
p80
(lp81
(lp82
I23
aI84
aI496
aasS'f12_27'
p83
(lp84
(lp85
I24
aI2
aI192
aa(lp86
I25
aI3
aI477
aasS'ID_453_F1_9_F2_12_G_1_SplitPt_196_GenID_0'
p87
(lp88
(lp89
I26
aI199
aI287
aasS'ID_346_F1_14_F2_14_G_2_SplitPt_165_GenID_0'
p90
(lp91
(lp92
I27
aI1
aI171
aa(lp93
I28
aI85
aI500
aasS'f6_4'
p94
(lp95
(lp96
I3
aI6
aI492
aasS'ID_47_F1_11_F2_9_G_4_SplitPt_76_GenID_0'
p97
(lp98
(lp99
I29
aI1
aI80
aa(lp100
I30
aI63
aI500
aasS'f3_30'
p101
(lp102
(lp103
I7
aI2
aI500
aasS'f3_31'
p104
(lp105
(lp106
I7
aI2
aI500
aasS'f12_9'
p107
(lp108
(lp109
I31
aI35
aI498
aasS'ID_456_F1_16_F2_10_G_4_SplitPt_160_GenID_0'
p110
(lp111
(lp112
I32
aI1
aI172
aa(lp113
I33
aI136
aI500
aasS'f8_20'
p114
(lp115
(lp116
I34
aI4
aI500
aasS'ID_143_F1_6_F2_12_G_3_SplitPt_148_GenID_0'
p117
(lp118
(lp119
I31
aI151
aI498
aa(lp120
I3
aI3
aI156
aasS'f19_29'
p121
(lp122
(lp123
I35
aI12
aI500
aasS'f0_2'
p124
(lp125
(lp126
I23
aI55
aI500
aasS'ID_266_F1_7_F2_7_G_2_SplitPt_228_GenID_0'
p127
(lp128
(lp129
I36
aI4
aI500
aasS'ID_277_F1_6_F2_14_G_4_SplitPt_56_GenID_0'
p130
(lp131
(lp132
I37
aI162
aI308
aa(lp133
I38
aI1
aI79
aasS'ID_70_F1_19_F2_10_G_2_SplitPt_126_GenID_0'
p134
(lp135
(lp136
I39
aI327
aI480
aasS'ID_186_F1_1_F2_19_G_2_SplitPt_83_GenID_0'
p137
(lp138
(lp139
I35
aI76
aI500
aasS'ID_182_F1_5_F2_1_G_3_SplitPt_89_GenID_0'
p140
(lp141
(lp142
I40
aI1
aI96
aa(lp143
I11
aI90
aI500
aasS'ID_303_F1_10_F2_14_G_3_SplitPt_146_GenID_0'
p144
(lp145
(lp146
I41
aI72
aI145
aa(lp147
I28
aI147
aI500
aasS'ID_8_F1_16_F2_7_G_3_SplitPt_218_GenID_0'
p148
(lp149
(lp150
I42
aI269
aI369
aa(lp151
I43
aI1
aI218
aasS'f15_10'
p152
(lp153
(lp154
I44
aI16
aI143
aa(lp155
I45
aI56
aI228
aasS'ID_200_F1_3_F2_7_G_3_SplitPt_69_GenID_0'
p156
(lp157
(lp158
I46
aI1
aI77
aa(lp159
I47
aI71
aI152
aasS'ID_137_F1_15_F2_13_G_4_SplitPt_55_GenID_0'
p160
(lp161
(lp162
I48
aI1
aI76
aa(lp163
I10
aI53
aI500
aasS'ID_193_F1_15_F2_9_G_4_SplitPt_147_GenID_0'
p164
(lp165
(lp166
I14
aI1
aI156
aa(lp167
I30
aI139
aI500
aasS'f17_8'
p168
(lp169
(lp170
I49
aI25
aI500
aasS'f2_11'
p171
(lp172
(lp173
I5
aI3
aI478
aasS'f2_10'
p174
(lp175
(lp176
I5
aI21
aI478
aasS'f2_13'
p177
(lp178
(lp179
I50
aI2
aI129
aa(lp180
I5
aI10
aI500
aasS'f17_9'
p181
(lp182
(lp183
I49
aI14
aI500
aasS'f2_15'
p184
(lp185
(lp186
I5
aI24
aI500
aasS'f2_14'
p187
(lp188
(lp189
I5
aI53
aI498
aasS'f2_17'
p190
(lp191
(lp192
I51
aI321
aI477
aa(lp193
I52
aI2
aI235
aa(lp194
I5
aI100
aI463
aasS'f2_16'
p195
(lp196
(lp197
I52
aI2
aI235
aa(lp198
I5
aI138
aI481
aasS'ID_427_F1_19_F2_6_G_4_SplitPt_247_GenID_0'
p199
(lp200
(lp201
I3
aI243
aI500
aa(lp202
I35
aI1
aI247
aasS'f2_18'
p203
(lp204
(lp205
I5
aI86
aI500
aasS'ID_383_F1_13_F2_19_G_2_SplitPt_136_GenID_0'
p206
(lp207
(lp208
I35
aI124
aI498
aasS'f19_20'
p209
(lp210
(lp211
I35
aI2
aI499
aasS'ID_161_F1_14_F2_18_G_4_SplitPt_131_GenID_0'
p212
(lp213
(lp214
I53
aI1
aI164
aa(lp215
I4
aI125
aI500
aasS'f19_27'
p216
(lp217
(lp218
I54
aI2
aI57
aa(lp219
I35
aI11
aI479
aasS'ID_390_F1_15_F2_8_G_2_SplitPt_126_GenID_0'
p220
(lp221
(lp222
I55
aI161
aI347
aasS'f19_18'
p223
(lp224
(lp225
I35
aI12
aI484
aasS'ID_291_F1_2_F2_10_G_3_SplitPt_246_GenID_0'
p226
(lp227
(lp228
I52
aI2
aI235
aa(lp229
I33
aI178
aI500
aasS'f19_25'
p230
(lp231
(lp232
I35
aI4
aI299
aasS'ID_477_F1_12_F2_10_G_2_SplitPt_151_GenID_0'
p233
(lp234
(lp235
I56
aI1
aI207
aa(lp236
I33
aI157
aI500
aasS'ID_128_F1_11_F2_1_G_1_SplitPt_121_GenID_0'
p237
(lp238
(lp239
I11
aI100
aI493
aasS'ID_357_F1_15_F2_5_G_3_SplitPt_199_GenID_0'
p240
(lp241
(lp242
I57
aI127
aI200
aa(lp243
I48
aI1
aI80
aa(lp244
I58
aI201
aI500
aasS'f17_0'
p245
(lp246
(lp247
I49
aI84
aI500
aasS'ID_309_F1_16_F2_15_G_4_SplitPt_126_GenID_0'
p248
(lp249
(lp250
I57
aI127
aI200
aa(lp251
I59
aI1
aI185
aasS'ID_227_F1_17_F2_11_G_3_SplitPt_63_GenID_0'
p252
(lp253
(lp254
I60
aI1
aI63
aa(lp255
I61
aI64
aI500
aasS'f8_31'
p256
(lp257
(lp258
I62
aI1
aI189
aa(lp259
I34
aI189
aI490
aasS'f8_30'
p260
(lp261
(lp262
I62
aI2
aI221
aa(lp263
I34
aI54
aI500
aasS'ID_144_F1_16_F2_5_G_4_SplitPt_207_GenID_0'
p264
(lp265
(lp266
I12
aI205
aI500
aa(lp267
I59
aI1
aI210
aasS'ID_511_F1_4_F2_5_G_1_SplitPt_199_GenID_0'
p268
(lp269
(lp270
I63
aI370
aI486
aasS'ID_329_F1_10_F2_8_G_3_SplitPt_232_GenID_0'
p271
(lp272
(lp273
I64
aI209
aI500
aa(lp274
I33
aI4
aI233
aasS'ID_432_F1_5_F2_10_G_3_SplitPt_191_GenID_0'
p275
(lp276
(lp277
I39
aI327
aI480
aa(lp278
I65
aI191
aI246
aa(lp279
I9
aI8
aI190
aasS'ID_440_F1_16_F2_16_G_4_SplitPt_122_GenID_0'
p280
(lp281
(lp282
I32
aI1
aI141
aasS'ID_308_F1_15_F2_16_G_2_SplitPt_154_GenID_0'
p283
(lp284
(lp285
I14
aI5
aI154
aa(lp286
I22
aI140
aI476
aasS'ID_95_F1_14_F2_2_G_4_SplitPt_106_GenID_0'
p287
(lp288
(lp289
I66
aI92
aI189
aa(lp290
I27
aI1
aI114
aasS'f10_29'
p291
(lp292
(lp293
I33
aI1
aI500
aasS'ID_299_F1_19_F2_7_G_1_SplitPt_51_GenID_0'
p294
(lp295
(lp296
I67
aI52
aI387
aasS'ID_287_F1_19_F2_0_G_2_SplitPt_53_GenID_0'
p297
(lp298
(lp299
I68
aI57
aI499
aasS'ID_278_F1_11_F2_0_G_4_SplitPt_242_GenID_0'
p300
(lp301
(lp302
I69
aI1
aI248
aa(lp303
I68
aI243
aI500
aasS'f8_21'
p304
(lp305
(lp306
I34
aI1
aI500
aasS'ID_69_F1_19_F2_12_G_1_SplitPt_164_GenID_0'
p307
(lp308
(lp309
I70
aI293
aI431
aasS'ID_111_F1_3_F2_4_G_4_SplitPt_61_GenID_0'
p310
(lp311
(lp312
I71
aI1
aI63
aa(lp313
I72
aI79
aI241
aasS'ID_438_F1_4_F2_4_G_2_SplitPt_143_GenID_0'
p314
(lp315
(lp316
I73
aI16
aI92
aasS'ID_400_F1_9_F2_5_G_3_SplitPt_149_GenID_0'
p317
(lp318
(lp319
I74
aI1
aI191
aa(lp320
I58
aI93
aI499
aasS'f10_21'
p321
(lp322
(lp323
I33
aI3
aI500
aasS'f11_23'
p324
(lp325
(lp326
I61
aI10
aI500
aasS'f11_22'
p327
(lp328
(lp329
I61
aI10
aI500
aasS'f11_21'
p330
(lp331
(lp332
I61
aI1
aI500
aasS'f11_20'
p333
(lp334
(lp335
I61
aI1
aI497
aasS'f11_27'
p336
(lp337
(lp338
I75
aI8
aI206
aa(lp339
I76
aI153
aI500
aa(lp340
I61
aI23
aI347
aasS'f11_26'
p341
(lp342
(lp343
I75
aI1
aI164
aa(lp344
I76
aI10
aI499
aasS'f11_25'
p345
(lp346
(lp347
I77
aI7
aI125
aasS'f11_24'
p348
(lp349
(lp350
I76
aI4
aI500
aasS'f11_29'
p351
(lp352
(lp353
I29
aI1
aI77
aa(lp354
I76
aI3
aI492
aasS'f11_28'
p355
(lp356
(lp357
I75
aI10
aI206
aasS'ID_331_F1_12_F2_19_G_2_SplitPt_250_GenID_0'
p358
(lp359
(lp360
I24
aI1
aI245
aa(lp361
I35
aI219
aI500
aasS'ID_218_F1_11_F2_13_G_3_SplitPt_135_GenID_0'
p362
(lp363
(lp364
I78
aI1
aI132
aa(lp365
I10
aI114
aI496
aasS'ID_424_F1_14_F2_1_G_4_SplitPt_101_GenID_0'
p366
(lp367
(lp368
I79
aI93
aI226
aa(lp369
I80
aI1
aI101
aasS'f4_30'
p370
(lp371
(lp372
I81
aI1
aI500
aasS'ID_467_F1_19_F2_10_G_3_SplitPt_161_GenID_0'
p373
(lp374
(lp375
I35
aI2
aI187
aa(lp376
I33
aI142
aI500
aasS'f19_3'
p377
(lp378
(lp379
I35
aI2
aI500
aasS'ID_391_F1_14_F2_14_G_3_SplitPt_183_GenID_0'
p380
(lp381
(lp382
I27
aI1
aI169
aa(lp383
I28
aI5
aI499
aasS'ID_151_F1_12_F2_10_G_2_SplitPt_107_GenID_0'
p384
(lp385
(lp386
I82
aI202
aI363
aasS'ID_497_F1_0_F2_0_G_3_SplitPt_137_GenID_0'
p387
(lp388
(lp389
I23
aI112
aI500
aa(lp390
I68
aI1
aI159
aasS'f7_23'
p391
(lp392
(lp393
I36
aI1
aI473
aasS'f19_19'
p394
(lp395
(lp396
I35
aI1
aI499
aasS'f8_6'
p397
(lp398
(lp399
I83
aI2
aI120
aasS'ID_289_F1_10_F2_4_G_3_SplitPt_194_GenID_0'
p400
(lp401
(lp402
I84
aI1
aI195
aa(lp403
I81
aI193
aI500
aasS'f19_4'
p404
(lp405
(lp406
I35
aI2
aI500
aasS'f7_21'
p407
(lp408
(lp409
I36
aI2
aI409
aasS'ID_345_F1_13_F2_17_G_4_SplitPt_222_GenID_0'
p410
(lp411
(lp412
I85
aI165
aI500
aa(lp413
I10
aI1
aI228
aasS'ID_353_F1_4_F2_2_G_2_SplitPt_147_GenID_0'
p414
(lp415
(lp416
I86
aI5
aI152
aa(lp417
I5
aI131
aI500
aasS'ID_25_F1_16_F2_14_G_3_SplitPt_115_GenID_0'
p418
(lp419
(lp420
I87
aI1
aI118
aa(lp421
I80
aI114
aI500
aasS'f8_4'
p422
(lp423
(lp424
I83
aI2
aI117
aasS'ID_248_F1_0_F2_5_G_4_SplitPt_249_GenID_0'
p425
(lp426
(lp427
I63
aI370
aI486
aa(lp428
I68
aI1
aI259
aasS'f16_23'
p429
(lp430
(lp431
I88
aI2
aI500
aasS'f7_27'
p432
(lp433
(lp434
I47
aI15
aI154
aa(lp435
I36
aI71
aI500
aasS'ID_268_F1_8_F2_0_G_2_SplitPt_110_GenID_0'
p436
(lp437
(lp438
I89
aI5
aI110
aa(lp439
I68
aI114
aI498
aasS'f7_26'
p440
(lp441
(lp442
I47
aI1
aI152
aa(lp443
I36
aI16
aI500
aasS'f8_26'
p444
(lp445
(lp446
I34
aI62
aI500
aasS'f16_21'
p447
(lp448
(lp449
I90
aI47
aI115
aasS'f7_25'
p450
(lp451
(lp452
I47
aI8
aI147
aa(lp453
I36
aI47
aI500
aasS'ID_27_F1_5_F2_4_G_2_SplitPt_178_GenID_0'
p454
(lp455
(lp456
I91
aI181
aI496
aa(lp457
I92
aI2
aI197
aasS'f3_1'
p458
(lp459
(lp460
I93
aI1
aI487
aasS'ID_232_F1_8_F2_18_G_3_SplitPt_114_GenID_0'
p461
(lp462
(lp463
I89
aI1
aI137
aa(lp464
I4
aI98
aI500
aasS'f19_5'
p465
(lp466
(lp467
I35
aI245
aI500
aa(lp468
I35
aI1
aI208
aasS'f7_24'
p469
(lp470
(lp471
I47
aI6
aI153
aasS'f8_24'
p472
(lp473
(lp474
I34
aI136
aI500
aasS'f16_27'
p475
(lp476
(lp477
I32
aI1
aI172
aa(lp478
I22
aI39
aI500
aasS'ID_131_F1_18_F2_0_G_2_SplitPt_70_GenID_0'
p479
(lp480
(lp481
I23
aI80
aI498
aasS'f8_25'
p482
(lp483
(lp484
I34
aI174
aI500
aasS'ID_395_F1_19_F2_2_G_3_SplitPt_54_GenID_0'
p485
(lp486
(lp487
I54
aI2
aI57
aa(lp488
I94
aI51
aI500
aasS'f16_24'
p489
(lp490
(lp491
I32
aI2
aI160
aa(lp492
I22
aI14
aI500
aasS'f14_31'
p493
(lp494
(lp495
I28
aI1
aI499
aasS'f14_30'
p496
(lp497
(lp498
I28
aI10
aI498
aasS'f17_1'
p499
(lp500
(lp501
I49
aI141
aI500
aasS'f8_22'
p502
(lp503
(lp504
I34
aI4
aI482
aasS'ID_75_F1_2_F2_16_G_4_SplitPt_60_GenID_0'
p505
(lp506
(lp507
I95
aI1
aI60
aa(lp508
I32
aI60
aI172
aasS'ID_130_F1_19_F2_16_G_4_SplitPt_129_GenID_0'
p509
(lp510
(lp511
I22
aI88
aI500
aa(lp512
I35
aI1
aI137
aasS'ID_172_F1_6_F2_7_G_3_SplitPt_170_GenID_0'
p513
(lp514
(lp515
I36
aI161
aI500
aa(lp516
I3
aI1
aI207
aasS'f15_16'
p517
(lp518
(lp519
I96
aI1
aI76
aa(lp520
I15
aI67
aI500
aasS'f15_17'
p521
(lp522
(lp523
I18
aI1
aI191
aa(lp524
I15
aI131
aI500
aasS'f15_14'
p525
(lp526
(lp527
I45
aI1
aI135
aa(lp528
I15
aI42
aI495
aasS'f15_15'
p529
(lp530
(lp531
I45
aI1
aI221
aa(lp532
I15
aI21
aI469
aasS'f15_12'
p533
(lp534
(lp535
I45
aI3
aI229
aa(lp536
I15
aI58
aI500
aasS'f15_13'
p537
(lp538
(lp539
I45
aI1
aI229
aa(lp540
I15
aI47
aI499
aasS'ID_78_F1_15_F2_8_G_4_SplitPt_215_GenID_0'
p541
(lp542
(lp543
I97
aI2
aI99
aa(lp544
I34
aI119
aI500
aasS'f15_11'
p545
(lp546
(lp547
I45
aI1
aI200
aa(lp548
I15
aI14
aI499
aasS'f19_6'
p549
(lp550
(lp551
I35
aI1
aI472
aasS'f19_22'
p552
(lp553
(lp554
I35
aI1
aI483
aasS'f19_21'
p555
(lp556
(lp557
I35
aI2
aI499
aasS'f3_7'
p558
(lp559
(lp560
I93
aI5
aI495
aasS'ID_448_F1_5_F2_10_G_3_SplitPt_71_GenID_0'
p561
(lp562
(lp563
I98
aI1
aI65
aa(lp564
I41
aI72
aI157
aasS'f19_26'
p565
(lp566
(lp567
I54
aI2
aI54
aasS'f15_18'
p568
(lp569
(lp570
I18
aI3
aI191
aa(lp571
I15
aI159
aI500
aasS'f15_19'
p572
(lp573
(lp574
I18
aI1
aI200
aa(lp575
I15
aI3
aI500
aasS'ID_105_F1_3_F2_11_G_4_SplitPt_219_GenID_0'
p576
(lp577
(lp578
I61
aI219
aI500
aa(lp579
I7
aI1
aI235
aasS'f10_28'
p580
(lp581
(lp582
I33
aI2
aI500
aasS'ID_126_F1_10_F2_8_G_3_SplitPt_110_GenID_0'
p583
(lp584
(lp585
I99
aI2
aI110
aa(lp586
I64
aI107
aI500
aasS'ID_411_F1_8_F2_17_G_2_SplitPt_140_GenID_0'
p587
(lp588
(lp589
I85
aI86
aI500
aasS'f10_25'
p590
(lp591
(lp592
I100
aI1
aI70
aa(lp593
I33
aI25
aI500
aasS'f10_26'
p594
(lp595
(lp596
I33
aI4
aI499
aasS'f10_27'
p597
(lp598
(lp599
I33
aI9
aI500
aasS'ID_145_F1_11_F2_9_G_4_SplitPt_108_GenID_0'
p600
(lp601
(lp602
I101
aI1
aI54
aa(lp603
I30
aI59
aI500
aasS'ID_141_F1_2_F2_7_G_2_SplitPt_234_GenID_0'
p604
(lp605
(lp606
I5
aI3
aI241
aa(lp607
I67
aI188
aI499
aasS'f10_22'
p608
(lp609
(lp610
I33
aI1
aI500
aasS'f10_23'
p611
(lp612
(lp613
I33
aI1
aI500
aasS'ID_220_F1_16_F2_16_G_4_SplitPt_199_GenID_0'
p614
(lp615
(lp616
I43
aI1
aI215
aa(lp617
I22
aI175
aI500
aasS'f0_28'
p618
(lp619
(lp620
I68
aI26
aI500
aasS'f19_7'
p621
(lp622
(lp623
I35
aI1
aI485
aasS'f18_27'
p624
(lp625
(lp626
I4
aI2
aI500
aasS'f0_29'
p627
(lp628
(lp629
I68
aI55
aI500
aasS'f13_10'
p630
(lp631
(lp632
I102
aI1
aI77
aa(lp633
I103
aI6
aI177
aa(lp634
I10
aI78
aI500
aasS'f13_11'
p635
(lp636
(lp637
I102
aI1
aI77
aa(lp638
I10
aI10
aI500
aasS'f13_12'
p639
(lp640
(lp641
I104
aI1
aI229
aa(lp642
I10
aI133
aI500
aasS'f13_13'
p643
(lp644
(lp645
I104
aI1
aI229
aa(lp646
I10
aI135
aI500
aasS'f13_14'
p647
(lp648
(lp649
I105
aI150
aI258
aa(lp650
I104
aI4
aI229
aasS'f13_15'
p651
(lp652
(lp653
I104
aI2
aI228
aa(lp654
I10
aI75
aI494
aasS'f13_16'
p655
(lp656
(lp657
I10
aI1
aI450
aasS'f13_17'
p658
(lp659
(lp660
I106
aI9
aI117
aasS'ID_3_F1_16_F2_0_G_2_SplitPt_130_GenID_0'
p661
(lp662
(lp663
I32
aI2
aI108
aa(lp664
I23
aI130
aI499
aasS'ID_10_F1_6_F2_17_G_3_SplitPt_239_GenID_0'
p665
(lp666
(lp667
I107
aI351
aI499
aa(lp668
I3
aI2
aI238
aasS'f0_24'
p669
(lp670
(lp671
I68
aI55
aI500
aasS'f1_6'
p672
(lp673
(lp674
I108
aI1
aI244
aa(lp675
I11
aI52
aI500
aasS'f16_22'
p676
(lp677
(lp678
I88
aI3
aI500
aasS'f0_25'
p679
(lp680
(lp681
I68
aI20
aI500
aasS'ID_392_F1_14_F2_16_G_4_SplitPt_80_GenID_0'
p682
(lp683
(lp684
I109
aI1
aI80
aa(lp685
I59
aI83
aI204
aasS'ID_447_F1_10_F2_3_G_1_SplitPt_89_GenID_0'
p686
(lp687
(lp688
I110
aI200
aI370
aasS'f18_24'
p689
(lp690
(lp691
I4
aI1
aI500
aasS'f18_25'
p692
(lp693
(lp694
I4
aI1
aI500
aasS'f18_26'
p695
(lp696
(lp697
I4
aI2
aI498
aasS'ID_377_F1_4_F2_0_G_4_SplitPt_241_GenID_0'
p698
(lp699
(lp700
I72
aI1
aI241
aa(lp701
I68
aI207
aI500
aasS'ID_229_F1_1_F2_11_G_4_SplitPt_118_GenID_0'
p702
(lp703
(lp704
I111
aI113
aI245
aa(lp705
I112
aI57
aI118
aasS'ID_296_F1_18_F2_3_G_3_SplitPt_99_GenID_0'
p706
(lp707
(lp708
I113
aI1
aI147
aa(lp709
I7
aI95
aI500
aasS'f18_22'
p710
(lp711
(lp712
I114
aI1
aI96
aa(lp713
I4
aI4
aI500
aasS'f18_23'
p714
(lp715
(lp716
I114
aI1
aI98
aa(lp717
I4
aI31
aI498
aasS'ID_257_F1_6_F2_9_G_2_SplitPt_110_GenID_0'
p718
(lp719
(lp720
I30
aI58
aI497
aa(lp721
I3
aI2
aI114
aasS'ID_135_F1_5_F2_13_G_1_SplitPt_86_GenID_0'
p722
(lp723
(lp724
I10
aI133
aI447
aasS'f0_21'
p725
(lp726
(lp727
I68
aI13
aI498
aasS'f18_28'
p728
(lp729
(lp730
I115
aI1
aI118
aa(lp731
I4
aI20
aI500
aasS'f18_29'
p732
(lp733
(lp734
I115
aI1
aI117
aasS'ID_127_F1_16_F2_9_G_1_SplitPt_95_GenID_0'
p735
(lp736
(lp737
I59
aI16
aI97
aa(lp738
I116
aI109
aI438
aasS'ID_245_F1_6_F2_16_G_2_SplitPt_137_GenID_0'
p739
(lp740
(lp741
I3
aI3
aI188
aa(lp742
I22
aI32
aI500
aasS'f11_18'
p743
(lp744
(lp745
I61
aI1
aI500
aasS'f11_19'
p746
(lp747
(lp748
I61
aI6
aI500
aasS'f11_12'
p749
(lp750
(lp751
I69
aI3
aI491
aasS'f11_13'
p752
(lp753
(lp754
I69
aI5
aI500
aasS'f11_10'
p755
(lp756
(lp757
I69
aI1
aI500
aasS'f1_1'
p758
(lp759
(lp760
I117
aI1
aI162
aa(lp761
I11
aI11
aI489
aasS'f11_16'
p762
(lp763
(lp764
I61
aI1
aI500
aasS'f11_17'
p765
(lp766
(lp767
I77
aI7
aI126
aasS'f11_14'
p768
(lp769
(lp770
I69
aI1
aI491
aasS'f11_15'
p771
(lp772
(lp773
I118
aI249
aI394
aasS'f9_14'
p774
(lp775
(lp776
I119
aI2
aI159
aasS'f9_15'
p777
(lp778
(lp779
I119
aI1
aI147
aa(lp780
I116
aI14
aI445
aasS'f3_13'
p781
(lp782
(lp783
I120
aI276
aI480
aasS'f9_17'
p784
(lp785
(lp786
I30
aI1
aI497
aasS'f9_10'
p787
(lp788
(lp789
I121
aI90
aI496
aa(lp790
I119
aI1
aI181
aasS'f9_11'
p791
(lp792
(lp793
I121
aI102
aI499
aa(lp794
I119
aI1
aI182
aasS'f9_12'
p795
(lp796
(lp797
I119
aI3
aI127
aa(lp798
I116
aI43
aI499
aasS'f9_13'
p799
(lp800
(lp801
I119
aI2
aI112
aa(lp802
I116
aI67
aI496
aasS'ID_364_F1_13_F2_13_G_1_SplitPt_62_GenID_0'
p803
(lp804
(lp805
I122
aI104
aI314
aasS'f9_18'
p806
(lp807
(lp808
I30
aI1
aI500
aasS'f9_19'
p809
(lp810
(lp811
I30
aI1
aI500
aasS'f16_20'
p812
(lp813
(lp814
I88
aI27
aI500
aasS'ID_37_F1_2_F2_4_G_2_SplitPt_216_GenID_0'
p815
(lp816
(lp817
I123
aI5
aI236
aa(lp818
I81
aI140
aI500
aasS'f17_27'
p819
(lp820
(lp821
I85
aI12
aI500
aasS'ID_80_F1_5_F2_18_G_3_SplitPt_84_GenID_0'
p822
(lp823
(lp824
I92
aI2
aI84
aa(lp825
I4
aI45
aI494
aasS'f5_18'
p826
(lp827
(lp828
I92
aI3
aI158
aa(lp829
I58
aI5
aI500
aasS'f5_19'
p830
(lp831
(lp832
I92
aI2
aI196
aa(lp833
I58
aI8
aI500
aasS'f7_14'
p834
(lp835
(lp836
I124
aI3
aI71
aasS'f7_15'
p837
(lp838
(lp839
I125
aI1
aI186
aa(lp840
I67
aI3
aI500
aasS'f7_12'
p841
(lp842
(lp843
I42
aI269
aI372
aa(lp844
I125
aI2
aI161
aasS'f7_13'
p845
(lp846
(lp847
I126
aI261
aI387
aa(lp848
I125
aI1
aI167
aasS'f7_10'
p849
(lp850
(lp851
I124
aI1
aI89
aasS'f7_11'
p852
(lp853
(lp854
I124
aI1
aI93
aa(lp855
I67
aI7
aI500
aasS'f5_10'
p856
(lp857
(lp858
I127
aI1
aI115
aasS'f5_11'
p859
(lp860
(lp861
I127
aI1
aI115
aasS'ID_387_F1_18_F2_6_G_2_SplitPt_95_GenID_0'
p862
(lp863
(lp864
I128
aI346
aI490
aasS'f5_13'
p865
(lp866
(lp867
I12
aI25
aI491
aasS'f5_14'
p868
(lp869
(lp870
I98
aI1
aI48
aasS'f5_15'
p871
(lp872
(lp873
I98
aI1
aI65
aasS'f7_18'
p874
(lp875
(lp876
I129
aI80
aI182
aasS'f7_19'
p877
(lp878
(lp879
I129
aI75
aI181
aasS'ID_463_F1_15_F2_0_G_2_SplitPt_121_GenID_0'
p880
(lp881
(lp882
I68
aI130
aI500
aasS'ID_221_F1_1_F2_11_G_4_SplitPt_156_GenID_0'
p883
(lp884
(lp885
I130
aI157
aI228
aa(lp886
I117
aI1
aI170
aasS'ID_234_F1_19_F2_18_G_2_SplitPt_161_GenID_0'
p887
(lp888
(lp889
I4
aI150
aI500
aa(lp890
I35
aI2
aI159
aasS'ID_338_F1_4_F2_19_G_1_SplitPt_150_GenID_0'
p891
(lp892
(lp893
I131
aI160
aI255
aasS'f16_26'
p894
(lp895
(lp896
I32
aI1
aI175
aa(lp897
I22
aI61
aI500
aasS'ID_369_F1_15_F2_15_G_3_SplitPt_173_GenID_0'
p898
(lp899
(lp900
I132
aI1
aI206
aasS'f12_31'
p901
(lp902
(lp903
I24
aI1
aI199
aa(lp904
I25
aI48
aI499
aasS'f12_30'
p905
(lp906
(lp907
I26
aI199
aI287
aa(lp908
I24
aI2
aI124
aasS'ID_230_F1_15_F2_10_G_1_SplitPt_212_GenID_0'
p909
(lp910
(lp911
I33
aI213
aI479
aasS'ID_490_F1_10_F2_11_G_2_SplitPt_124_GenID_0'
p912
(lp913
(lp914
I84
aI1
aI144
aa(lp915
I61
aI98
aI497
aasS'ID_282_F1_13_F2_17_G_4_SplitPt_197_GenID_0'
p916
(lp917
(lp918
I85
aI155
aI500
aa(lp919
I10
aI1
aI197
aasS'ID_349_F1_8_F2_10_G_4_SplitPt_120_GenID_0'
p920
(lp921
(lp922
I83
aI1
aI124
aa(lp923
I33
aI90
aI500
aasS'ID_310_F1_19_F2_4_G_3_SplitPt_167_GenID_0'
p924
(lp925
(lp926
I81
aI49
aI500
aa(lp927
I35
aI1
aI207
aasS'ID_196_F1_1_F2_18_G_3_SplitPt_57_GenID_0'
p928
(lp929
(lp930
I133
aI1
aI57
aa(lp931
I4
aI59
aI500
aasS'f9_7'
p932
(lp933
(lp934
I134
aI1
aI172
aa(lp935
I116
aI3
aI500
aasS'f18_20'
p936
(lp937
(lp938
I4
aI20
aI498
aasS'ID_269_F1_18_F2_17_G_4_SplitPt_97_GenID_0'
p939
(lp940
(lp941
I114
aI1
aI98
aa(lp942
I85
aI72
aI500
aasS'ID_62_F1_13_F2_16_G_2_SplitPt_224_GenID_0'
p943
(lp944
(lp945
I88
aI242
aI499
aa(lp946
I10
aI1
aI231
aasS'f13_6'
p947
(lp948
(lp949
I10
aI1
aI500
aasS'f13_7'
p950
(lp951
(lp952
I10
aI1
aI500
aasS'ID_124_F1_4_F2_1_G_1_SplitPt_50_GenID_0'
p953
(lp954
(lp955
I11
aI59
aI500
aasS'ID_122_F1_8_F2_16_G_2_SplitPt_212_GenID_0'
p956
(lp957
(lp958
I135
aI369
aI500
aa(lp959
I34
aI1
aI242
aasS'ID_343_F1_4_F2_0_G_1_SplitPt_147_GenID_0'
p960
(lp961
(lp962
I68
aI136
aI500
aasS'f13_5'
p963
(lp964
(lp965
I10
aI2
aI486
aasS'ID_163_F1_12_F2_13_G_1_SplitPt_138_GenID_0'
p966
(lp967
(lp968
I10
aI140
aI484
aasS'f17_30'
p969
(lp970
(lp971
I85
aI22
aI500
aasS'ID_294_F1_4_F2_8_G_2_SplitPt_205_GenID_0'
p972
(lp973
(lp974
I72
aI19
aI208
aa(lp975
I34
aI194
aI500
aasS'ID_236_F1_4_F2_3_G_2_SplitPt_59_GenID_0'
p976
(lp977
(lp978
I7
aI17
aI486
aasS'ID_240_F1_2_F2_0_G_4_SplitPt_189_GenID_0'
p979
(lp980
(lp981
I66
aI92
aI189
aa(lp982
I68
aI149
aI500
aasS'ID_302_F1_16_F2_5_G_2_SplitPt_121_GenID_0'
p983
(lp984
(lp985
I9
aI84
aI497
aasS'ID_26_F1_14_F2_4_G_1_SplitPt_89_GenID_0'
p986
(lp987
(lp988
I81
aI154
aI497
aasS'f16_25'
p989
(lp990
(lp991
I32
aI2
aI146
aa(lp992
I22
aI4
aI500
aasS'ID_403_F1_13_F2_17_G_2_SplitPt_205_GenID_0'
p993
(lp994
(lp995
I49
aI215
aI499
aa(lp996
I10
aI2
aI203
aasS'ID_358_F1_9_F2_14_G_4_SplitPt_151_GenID_0'
p997
(lp998
(lp999
I119
aI1
aI174
aa(lp1000
I80
aI152
aI500
aasS'ID_52_F1_9_F2_13_G_2_SplitPt_57_GenID_0'
p1001
(lp1002
(lp1003
I10
aI55
aI496
aasS'ID_169_F1_7_F2_9_G_3_SplitPt_244_GenID_0'
p1004
(lp1005
(lp1006
I30
aI242
aI500
aa(lp1007
I67
aI1
aI258
aasS'ID_101_F1_3_F2_0_G_2_SplitPt_230_GenID_0'
p1008
(lp1009
(lp1010
I23
aI231
aI500
aa(lp1011
I7
aI5
aI271
aasS'f7_4'
p1012
(lp1013
(lp1014
I67
aI1
aI450
aasS'ID_420_F1_0_F2_4_G_4_SplitPt_212_GenID_0'
p1015
(lp1016
(lp1017
I13
aI209
aI500
aa(lp1018
I68
aI1
aI214
aasS'f7_6'
p1019
(lp1020
(lp1021
I67
aI4
aI463
aasS'f7_7'
p1022
(lp1023
(lp1024
I67
aI1
aI478
aasS'f7_0'
p1025
(lp1026
(lp1027
I67
aI18
aI500
aasS'f7_1'
p1028
(lp1029
(lp1030
I67
aI46
aI500
aasS'f3_15'
p1031
(lp1032
(lp1033
I136
aI13
aI339
aa(lp1034
I120
aI166
aI492
aasS'f7_3'
p1035
(lp1036
(lp1037
I36
aI100
aI352
aasS'f7_8'
p1038
(lp1039
(lp1040
I124
aI1
aI99
aasS'f7_9'
p1041
(lp1042
(lp1043
I125
aI27
aI201
aasS'ID_211_F1_1_F2_13_G_4_SplitPt_216_GenID_0'
p1044
(lp1045
(lp1046
I137
aI148
aI245
aa(lp1047
I79
aI93
aI217
aa(lp1048
I10
aI209
aI500
aasS'f2_7'
p1049
(lp1050
(lp1051
I138
aI1
aI108
aa(lp1052
I94
aI68
aI487
aasS'f2_6'
p1053
(lp1054
(lp1055
I138
aI1
aI124
aa(lp1056
I94
aI26
aI500
aasS'ID_396_F1_14_F2_1_G_2_SplitPt_134_GenID_0'
p1057
(lp1058
(lp1059
I11
aI129
aI493
aasS'f10_11'
p1060
(lp1061
(lp1062
I99
aI2
aI108
aasS'ID_450_F1_10_F2_19_G_4_SplitPt_247_GenID_0'
p1063
(lp1064
(lp1065
I65
aI191
aI246
aa(lp1066
I35
aI245
aI500
aasS'f19_13'
p1067
(lp1068
(lp1069
I139
aI375
aI484
aasS'f5_8'
p1070
(lp1071
(lp1072
I127
aI1
aI115
aa(lp1073
I12
aI209
aI498
aasS'f5_9'
p1074
(lp1075
(lp1076
I127
aI1
aI117
aa(lp1077
I12
aI172
aI500
aasS'ID_53_F1_4_F2_4_G_4_SplitPt_114_GenID_0'
p1078
(lp1079
(lp1080
I140
aI1
aI158
aa(lp1081
I81
aI86
aI500
aasS'f19_17'
p1082
(lp1083
(lp1084
I35
aI5
aI424
aasS'f19_14'
p1085
(lp1086
(lp1087
I141
aI1
aI62
aasS'f19_15'
p1088
(lp1089
(lp1090
I141
aI1
aI68
aasS'f5_2'
p1091
(lp1092
(lp1093
I142
aI286
aI499
aa(lp1094
I143
aI4
aI94
aasS'f5_3'
p1095
(lp1096
(lp1097
I143
aI2
aI94
aa(lp1098
I9
aI14
aI497
aasS'f5_0'
p1099
(lp1100
(lp1101
I9
aI1
aI497
aasS'f5_1'
p1102
(lp1103
(lp1104
I9
aI1
aI499
aasS'f5_6'
p1105
(lp1106
(lp1107
I9
aI7
aI493
aasS'ID_336_F1_4_F2_2_G_4_SplitPt_235_GenID_0'
p1108
(lp1109
(lp1110
I144
aI175
aI235
aa(lp1111
I5
aI205
aI500
aasS'f5_4'
p1112
(lp1113
(lp1114
I9
aI12
aI407
aasS'f5_5'
p1115
(lp1116
(lp1117
I9
aI27
aI453
aasS'f2_12'
p1118
(lp1119
(lp1120
I5
aI52
aI500
aasS'f18_21'
p1121
(lp1122
(lp1123
I4
aI20
aI500
aasS'f11_11'
p1124
(lp1125
(lp1126
I69
aI1
aI500
aasS'ID_417_F1_17_F2_16_G_1_SplitPt_83_GenID_0'
p1127
(lp1128
(lp1129
I88
aI84
aI499
aasS'f15_2'
p1130
(lp1131
(lp1132
I97
aI7
aI99
aa(lp1133
I15
aI131
aI500
aasS'ID_326_F1_11_F2_15_G_2_SplitPt_230_GenID_0'
p1134
(lp1135
(lp1136
I69
aI3
aI283
aa(lp1137
I15
aI202
aI500
aasS'f0_8'
p1138
(lp1139
(lp1140
I145
aI315
aI475
aasS'f14_21'
p1141
(lp1142
(lp1143
I146
aI1
aI223
aa(lp1144
I28
aI95
aI499
aasS'ID_239_F1_8_F2_9_G_4_SplitPt_194_GenID_0'
p1145
(lp1146
(lp1147
I147
aI2
aI58
aa(lp1148
I116
aI184
aI500
aasS'ID_2_F1_9_F2_11_G_2_SplitPt_214_GenID_0'
p1149
(lp1150
(lp1151
I76
aI222
aI499
aa(lp1152
I30
aI1
aI218
aasS'ID_397_F1_13_F2_19_G_3_SplitPt_150_GenID_0'
p1153
(lp1154
(lp1155
I102
aI1
aI71
aa(lp1156
I35
aI133
aI500
aasS'ID_91_F1_0_F2_19_G_2_SplitPt_217_GenID_0'
p1157
(lp1158
(lp1159
I68
aI6
aI158
aa(lp1160
I35
aI216
aI499
aasS'f3_0'
p1161
(lp1162
(lp1163
I93
aI113
aI500
aasS'f5_12'
p1164
(lp1165
(lp1166
I127
aI1
aI109
aasS'f3_2'
p1167
(lp1168
(lp1169
I120
aI245
aI465
aasS'f3_3'
p1170
(lp1171
(lp1172
I93
aI2
aI500
aasS'f3_4'
p1173
(lp1174
(lp1175
I46
aI1
aI77
aasS'f3_5'
p1176
(lp1177
(lp1178
I148
aI282
aI469
aa(lp1179
I149
aI234
aI357
aa(lp1180
I46
aI1
aI69
aasS'f3_6'
p1181
(lp1182
(lp1183
I150
aI330
aI422
aasS'ID_460_F1_11_F2_5_G_2_SplitPt_52_GenID_0'
p1184
(lp1185
(lp1186
I9
aI51
aI493
aasS'f3_8'
p1187
(lp1188
(lp1189
I110
aI200
aI370
aa(lp1190
I136
aI13
aI339
aa(lp1191
I148
aI282
aI469
aasS'f3_9'
p1192
(lp1193
(lp1194
I120
aI109
aI500
aasS'f1_31'
p1195
(lp1196
(lp1197
I11
aI7
aI492
aasS'f9_16'
p1198
(lp1199
(lp1200
I30
aI1
aI500
aasS'f8_28'
p1201
(lp1202
(lp1203
I62
aI2
aI181
aa(lp1204
I34
aI86
aI500
aasS'f8_29'
p1205
(lp1206
(lp1207
I62
aI2
aI206
aa(lp1208
I34
aI4
aI500
aasS'ID_311_F1_0_F2_9_G_1_SplitPt_101_GenID_0'
p1209
(lp1210
(lp1211
I121
aI102
aI498
aasS'f1_7'
p1212
(lp1213
(lp1214
I108
aI1
aI216
aa(lp1215
I11
aI47
aI500
aasS'f1_4'
p1216
(lp1217
(lp1218
I108
aI1
aI226
aa(lp1219
I11
aI30
aI500
aasS'f1_5'
p1220
(lp1221
(lp1222
I133
aI1
aI57
aa(lp1223
I11
aI11
aI500
aasS'f1_2'
p1224
(lp1225
(lp1226
I117
aI31
aI160
aasS'f1_3'
p1227
(lp1228
(lp1229
I117
aI20
aI170
aasS'f1_0'
p1230
(lp1231
(lp1232
I117
aI1
aI153
aa(lp1233
I11
aI30
aI460
aasS'ID_117_F1_2_F2_9_G_0_SplitPt_78_GenID_0'
p1234
(lp1235
(lp1236
I121
aI90
aI491
aasS'ID_423_F1_6_F2_2_G_1_SplitPt_173_GenID_0'
p1237
(lp1238
(lp1239
I151
aI279
aI389
aasS'ID_233_F1_14_F2_3_G_2_SplitPt_122_GenID_0'
p1240
(lp1241
(lp1242
I93
aI124
aI495
aasS'f1_8'
p1243
(lp1244
(lp1245
I11
aI1
aI500
aasS'f1_9'
p1246
(lp1247
(lp1248
I11
aI1
aI488
aasS'f9_8'
p1249
(lp1250
(lp1251
I119
aI1
aI181
aa(lp1252
I116
aI14
aI496
aasS'f9_9'
p1253
(lp1254
(lp1255
I119
aI1
aI180
aa(lp1256
I116
aI40
aI476
aasS'f9_6'
p1257
(lp1258
(lp1259
I134
aI1
aI171
aasS'ID_192_F1_16_F2_11_G_2_SplitPt_160_GenID_0'
p1260
(lp1261
(lp1262
I90
aI43
aI135
aa(lp1263
I76
aI161
aI500
aasS'f9_4'
p1264
(lp1265
(lp1266
I134
aI1
aI175
aa(lp1267
I116
aI19
aI483
aasS'f9_5'
p1268
(lp1269
(lp1270
I134
aI1
aI134
aa(lp1271
I116
aI4
aI499
aasS'f9_2'
p1272
(lp1273
(lp1274
I152
aI9
aI91
aasS'f9_3'
p1275
(lp1276
(lp1277
I152
aI2
aI92
aa(lp1278
I116
aI43
aI500
aasS'f9_0'
p1279
(lp1280
(lp1281
I152
aI1
aI99
aa(lp1282
I116
aI4
aI499
aasS'f9_1'
p1283
(lp1284
(lp1285
I152
aI1
aI99
aa(lp1286
I116
aI14
aI499
aasS'ID_109_F1_19_F2_10_G_4_SplitPt_187_GenID_0'
p1287
(lp1288
(lp1289
I141
aI1
aI68
aa(lp1290
I33
aI175
aI500
aasS'ID_219_F1_1_F2_6_G_2_SplitPt_218_GenID_0'
p1291
(lp1292
(lp1293
I3
aI207
aI500
aa(lp1294
I11
aI2
aI221
aasS'ID_492_F1_19_F2_16_G_2_SplitPt_234_GenID_0'
p1295
(lp1296
(lp1297
I22
aI215
aI497
aa(lp1298
I35
aI2
aI231
aasS'ID_238_F1_11_F2_0_G_4_SplitPt_201_GenID_0'
p1299
(lp1300
(lp1301
I23
aI201
aI500
aa(lp1302
I69
aI1
aI271
aasS'ID_275_F1_13_F2_15_G_4_SplitPt_67_GenID_0'
p1303
(lp1304
(lp1305
I153
aI1
aI70
aa(lp1306
I154
aI68
aI240
aasS'f9_29'
p1307
(lp1308
(lp1309
I74
aI2
aI150
aa(lp1310
I30
aI55
aI499
aasS'f9_28'
p1311
(lp1312
(lp1313
I74
aI1
aI191
aa(lp1314
I30
aI64
aI499
aasS'f5_20'
p1315
(lp1316
(lp1317
I155
aI1
aI85
aa(lp1318
I92
aI12
aI208
aa(lp1319
I58
aI52
aI489
aasS'f9_25'
p1320
(lp1321
(lp1322
I156
aI2
aI75
aa(lp1323
I30
aI130
aI499
aasS'f9_24'
p1324
(lp1325
(lp1326
I156
aI2
aI71
aa(lp1327
I30
aI6
aI498
aasS'f9_27'
p1328
(lp1329
(lp1330
I156
aI1
aI75
aa(lp1331
I30
aI85
aI500
aasS'f9_26'
p1332
(lp1333
(lp1334
I156
aI1
aI78
aa(lp1335
I30
aI13
aI500
aasS'f9_21'
p1336
(lp1337
(lp1338
I30
aI20
aI500
aasS'f9_20'
p1339
(lp1340
(lp1341
I30
aI5
aI500
aasS'f9_23'
p1342
(lp1343
(lp1344
I30
aI15
aI496
aasS'f9_22'
p1345
(lp1346
(lp1347
I30
aI20
aI497
aasS'f5_21'
p1348
(lp1349
(lp1350
I155
aI9
aI85
aa(lp1351
I92
aI13
aI225
aa(lp1352
I58
aI63
aI495
aasS'ID_203_F1_4_F2_2_G_4_SplitPt_208_GenID_0'
p1353
(lp1354
(lp1355
I151
aI279
aI389
aa(lp1356
I72
aI1
aI213
aasS'f5_23'
p1357
(lp1358
(lp1359
I40
aI1
aI89
aa(lp1360
I157
aI183
aI352
aasS'f5_22'
p1361
(lp1362
(lp1363
I40
aI1
aI96
aa(lp1364
I58
aI37
aI500
aasS'f5_25'
p1365
(lp1366
(lp1367
I158
aI2
aI500
aa(lp1368
I92
aI1
aI158
aasS'f5_24'
p1369
(lp1370
(lp1371
I92
aI1
aI136
aasS'f5_27'
p1372
(lp1373
(lp1374
I63
aI405
aI486
aa(lp1375
I157
aI169
aI355
aa(lp1376
I92
aI1
aI136
aasS'f5_26'
p1377
(lp1378
(lp1379
I158
aI238
aI500
aa(lp1380
I92
aI1
aI155
aasS'f5_29'
p1381
(lp1382
(lp1383
I158
aI68
aI498
aasS'f5_28'
p1384
(lp1385
(lp1386
I158
aI245
aI498
aasS'ID_243_F1_7_F2_10_G_2_SplitPt_61_GenID_0'
p1387
(lp1388
(lp1389
I33
aI46
aI497
aasS'f4_31'
p1390
(lp1391
(lp1392
I81
aI3
aI500
aasS'ID_0_F1_9_F2_18_G_1_SplitPt_90_GenID_0'
p1393
(lp1394
(lp1395
I159
aI237
aI476
aasS'ID_293_F1_1_F2_14_G_2_SplitPt_237_GenID_0'
p1396
(lp1397
(lp1398
I28
aI260
aI500
aa(lp1399
I11
aI1
aI195
aasS'f15_30'
p1400
(lp1401
(lp1402
I160
aI370
aI480
aa(lp1403
I14
aI1
aI155
aasS'f4_28'
p1404
(lp1405
(lp1406
I81
aI2
aI500
aasS'f4_29'
p1407
(lp1408
(lp1409
I81
aI2
aI500
aasS'f14_25'
p1410
(lp1411
(lp1412
I27
aI1
aI173
aa(lp1413
I28
aI13
aI500
aasS'f6_6'
p1414
(lp1415
(lp1416
I3
aI15
aI413
aasS'f10_8'
p1417
(lp1418
(lp1419
I33
aI98
aI491
aasS'f4_22'
p1420
(lp1421
(lp1422
I86
aI1
aI206
aa(lp1423
I81
aI2
aI500
aasS'f4_23'
p1424
(lp1425
(lp1426
I86
aI1
aI183
aa(lp1427
I81
aI20
aI394
aasS'f4_20'
p1428
(lp1429
(lp1430
I2
aI1
aI65
aa(lp1431
I81
aI54
aI497
aasS'f4_21'
p1432
(lp1433
(lp1434
I2
aI4
aI67
aasS'ID_223_F1_4_F2_17_G_4_SplitPt_115_GenID_0'
p1435
(lp1436
(lp1437
I72
aI1
aI120
aa(lp1438
I49
aI105
aI500
aasS'f4_27'
p1439
(lp1440
(lp1441
I81
aI89
aI500
aasS'f14_24'
p1442
(lp1443
(lp1444
I27
aI1
aI114
aa(lp1445
I28
aI5
aI500
aasS'f4_25'
p1446
(lp1447
(lp1448
I81
aI108
aI500
aasS'f2_20'
p1449
(lp1450
(lp1451
I123
aI5
aI215
aa(lp1452
I5
aI98
aI484
aasS'ID_439_F1_1_F2_0_G_2_SplitPt_77_GenID_0'
p1453
(lp1454
(lp1455
I161
aI4
aI74
aa(lp1456
I68
aI55
aI497
aasS'ID_224_F1_5_F2_5_G_3_SplitPt_231_GenID_0'
p1457
(lp1458
(lp1459
I92
aI20
aI168
aasS'f10_18'
p1460
(lp1461
(lp1462
I33
aI2
aI443
aasS'f5_16'
p1463
(lp1464
(lp1465
I58
aI9
aI500
aasS'ID_370_F1_11_F2_7_G_2_SplitPt_207_GenID_0'
p1466
(lp1467
(lp1468
I36
aI197
aI500
aa(lp1469
I69
aI8
aI224
aasS'f0_31'
p1470
(lp1471
(lp1472
I68
aI25
aI500
aasS'f0_30'
p1473
(lp1474
(lp1475
I68
aI7
aI500
aasS'ID_491_F1_13_F2_5_G_3_SplitPt_213_GenID_0'
p1476
(lp1477
(lp1478
I58
aI201
aI500
aa(lp1479
I10
aI1
aI213
aasS'f2_23'
p1480
(lp1481
(lp1482
I123
aI1
aI229
aa(lp1483
I5
aI131
aI500
aasS'ID_281_F1_9_F2_0_G_2_SplitPt_186_GenID_0'
p1484
(lp1485
(lp1486
I134
aI1
aI136
aa(lp1487
I23
aI176
aI499
aasS'ID_152_F1_6_F2_12_G_3_SplitPt_105_GenID_0'
p1488
(lp1489
(lp1490
I25
aI105
aI498
aa(lp1491
I3
aI2
aI112
aasS'ID_407_F1_11_F2_5_G_2_SplitPt_57_GenID_0'
p1492
(lp1493
(lp1494
I58
aI58
aI498
aasS'ID_337_F1_8_F2_15_G_1_SplitPt_172_GenID_0'
p1495
(lp1496
(lp1497
I15
aI185
aI500
aasS'ID_389_F1_17_F2_15_G_1_SplitPt_199_GenID_0'
p1498
(lp1499
(lp1500
I162
aI47
aI198
aasS'ID_115_F1_0_F2_10_G_3_SplitPt_76_GenID_0'
p1501
(lp1502
(lp1503
I163
aI2
aI85
aa(lp1504
I33
aI78
aI499
aasS'ID_48_F1_11_F2_12_G_1_SplitPt_167_GenID_0'
p1505
(lp1506
(lp1507
I31
aI183
aI444
aasS'f2_30'
p1508
(lp1509
(lp1510
I5
aI20
aI500
aasS'f6_5'
p1511
(lp1512
(lp1513
I3
aI3
aI340
aasS'ID_157_F1_9_F2_14_G_4_SplitPt_135_GenID_0'
p1514
(lp1515
(lp1516
I134
aI1
aI150
aa(lp1517
I80
aI130
aI500
aasS'ID_31_F1_5_F2_17_G_4_SplitPt_203_GenID_0'
p1518
(lp1519
(lp1520
I9
aI1
aI204
aa(lp1521
I85
aI193
aI500
aasS'ID_276_F1_11_F2_8_G_4_SplitPt_228_GenID_0'
p1522
(lp1523
(lp1524
I130
aI120
aI228
aa(lp1525
I34
aI218
aI500
aasS'ID_404_F1_13_F2_0_G_2_SplitPt_181_GenID_0'
p1526
(lp1527
(lp1528
I103
aI14
aI180
aa(lp1529
I68
aI151
aI499
aasS'f7_16'
p1530
(lp1531
(lp1532
I36
aI90
aI493
aasS'ID_298_F1_12_F2_2_G_3_SplitPt_189_GenID_0'
p1533
(lp1534
(lp1535
I164
aI1
aI189
aa(lp1536
I94
aI92
aI500
aasS'f1_18'
p1537
(lp1538
(lp1539
I11
aI72
aI497
aasS'f1_19'
p1540
(lp1541
(lp1542
I11
aI13
aI500
aasS'f7_17'
p1543
(lp1544
(lp1545
I36
aI3
aI500
aasS'f1_14'
p1546
(lp1547
(lp1548
I11
aI1
aI500
aasS'f1_15'
p1549
(lp1550
(lp1551
I11
aI1
aI500
aasS'f1_16'
p1552
(lp1553
(lp1554
I11
aI74
aI489
aasS'f1_17'
p1555
(lp1556
(lp1557
I11
aI77
aI489
aasS'f1_10'
p1558
(lp1559
(lp1560
I11
aI1
aI478
aasS'f4_15'
p1561
(lp1562
(lp1563
I72
aI4
aI150
aa(lp1564
I13
aI5
aI500
aasS'f1_12'
p1565
(lp1566
(lp1567
I11
aI2
aI495
aasS'f1_13'
p1568
(lp1569
(lp1570
I108
aI2
aI181
aasS'ID_148_F1_1_F2_17_G_2_SplitPt_88_GenID_0'
p1571
(lp1572
(lp1573
I49
aI87
aI500
aasS'ID_44_F1_7_F2_10_G_2_SplitPt_122_GenID_0'
p1574
(lp1575
(lp1576
I125
aI1
aI145
aa(lp1577
I33
aI120
aI499
aasS'ID_103_F1_18_F2_16_G_3_SplitPt_122_GenID_0'
p1578
(lp1579
(lp1580
I135
aI369
aI500
aa(lp1581
I165
aI11
aI121
aasS'f10_31'
p1582
(lp1583
(lp1584
I33
aI2
aI500
aasS'ID_118_F1_8_F2_17_G_4_SplitPt_212_GenID_0'
p1585
(lp1586
(lp1587
I85
aI184
aI500
aa(lp1588
I34
aI1
aI264
aasS'ID_446_F1_8_F2_7_G_4_SplitPt_126_GenID_0'
p1589
(lp1590
(lp1591
I166
aI117
aI201
aa(lp1592
I126
aI261
aI387
aa(lp1593
I62
aI1
aI126
aasS'ID_82_F1_0_F2_0_G_2_SplitPt_77_GenID_0'
p1594
(lp1595
(lp1596
I23
aI55
aI499
aasS'ID_426_F1_4_F2_9_G_3_SplitPt_158_GenID_0'
p1597
(lp1598
(lp1599
I140
aI6
aI159
aa(lp1600
I116
aI120
aI499
aasS'ID_86_F1_15_F2_10_G_4_SplitPt_81_GenID_0'
p1601
(lp1602
(lp1603
I14
aI1
aI87
aa(lp1604
I33
aI75
aI500
aasS'ID_493_F1_2_F2_2_G_2_SplitPt_90_GenID_0'
p1605
(lp1606
(lp1607
I5
aI52
aI499
aasS'f4_26'
p1608
(lp1609
(lp1610
I81
aI85
aI500
aasS'f12_8'
p1611
(lp1612
(lp1613
I31
aI8
aI466
aasS'ID_183_F1_15_F2_11_G_3_SplitPt_99_GenID_0'
p1614
(lp1615
(lp1616
I97
aI2
aI99
aa(lp1617
I69
aI79
aI500
aasS'ID_344_F1_18_F2_3_G_3_SplitPt_105_GenID_0'
p1618
(lp1619
(lp1620
I115
aI1
aI93
aa(lp1621
I167
aI93
aI499
aasS'f19_8'
p1622
(lp1623
(lp1624
I35
aI10
aI498
aasS'ID_216_F1_15_F2_13_G_2_SplitPt_144_GenID_0'
p1625
(lp1626
(lp1627
I96
aI1
aI76
aa(lp1628
I18
aI3
aI140
aa(lp1629
I10
aI125
aI496
aasS'f3_18'
p1630
(lp1631
(lp1632
I168
aI1
aI139
aasS'f3_19'
p1633
(lp1634
(lp1635
I71
aI1
aI63
aasS'f4_24'
p1636
(lp1637
(lp1638
I81
aI115
aI499
aasS'f19_0'
p1639
(lp1640
(lp1641
I169
aI165
aI318
aasS'ID_279_F1_7_F2_15_G_2_SplitPt_150_GenID_0'
p1642
(lp1643
(lp1644
I19
aI398
aI455
aasS'ID_489_F1_14_F2_15_G_2_SplitPt_164_GenID_0'
p1645
(lp1646
(lp1647
I170
aI4
aI153
aa(lp1648
I15
aI159
aI494
aasS'ID_39_F1_14_F2_11_G_4_SplitPt_187_GenID_0'
p1649
(lp1650
(lp1651
I171
aI108
aI187
aa(lp1652
I172
aI4
aI115
aasS'f3_16'
p1653
(lp1654
(lp1655
I168
aI1
aI125
aa(lp1656
I167
aI3
aI452
aasS'f3_17'
p1657
(lp1658
(lp1659
I71
aI1
aI61
aa(lp1660
I167
aI185
aI488
aasS'f3_14'
p1661
(lp1662
(lp1663
I120
aI106
aI492
aasS'ID_393_F1_11_F2_7_G_2_SplitPt_164_GenID_0'
p1664
(lp1665
(lp1666
I75
aI1
aI164
aa(lp1667
I67
aI162
aI500
aasS'f13_25'
p1668
(lp1669
(lp1670
I10
aI16
aI500
aasS'ID_443_F1_11_F2_11_G_2_SplitPt_127_GenID_0'
p1671
(lp1672
(lp1673
I76
aI90
aI491
aa(lp1674
I69
aI6
aI127
aasS'ID_435_F1_16_F2_8_G_4_SplitPt_152_GenID_0'
p1675
(lp1676
(lp1677
I173
aI149
aI330
aa(lp1678
I59
aI1
aI186
aasS'ID_410_F1_5_F2_13_G_1_SplitPt_113_GenID_0'
p1679
(lp1680
(lp1681
I10
aI111
aI496
aasS'ID_506_F1_9_F2_9_G_4_SplitPt_68_GenID_0'
p1682
(lp1683
(lp1684
I119
aI1
aI88
aa(lp1685
I30
aI62
aI500
aasS'ID_90_F1_15_F2_3_G_2_SplitPt_86_GenID_0'
p1686
(lp1687
(lp1688
I7
aI59
aI498
aasS'f1_29'
p1689
(lp1690
(lp1691
I11
aI7
aI500
aasS'ID_354_F1_10_F2_7_G_3_SplitPt_102_GenID_0'
p1692
(lp1693
(lp1694
I67
aI85
aI500
aa(lp1695
I33
aI1
aI106
aasS'f18_31'
p1696
(lp1697
(lp1698
I165
aI11
aI121
aa(lp1699
I4
aI49
aI500
aasS'f18_30'
p1700
(lp1701
(lp1702
I174
aI1
aI217
aa(lp1703
I4
aI45
aI499
aasS'f12_1'
p1704
(lp1705
(lp1706
I31
aI2
aI495
aasS'f5_17'
p1707
(lp1708
(lp1709
I92
aI23
aI205
aa(lp1710
I58
aI39
aI500
aasS'ID_488_F1_14_F2_15_G_3_SplitPt_171_GenID_0'
p1711
(lp1712
(lp1713
I80
aI1
aI173
aa(lp1714
I15
aI169
aI500
aasS'ID_284_F1_9_F2_16_G_4_SplitPt_99_GenID_0'
p1715
(lp1716
(lp1717
I152
aI1
aI99
aa(lp1718
I88
aI51
aI500
aasS'f6_9'
p1719
(lp1720
(lp1721
I175
aI4
aI58
aasS'f6_8'
p1722
(lp1723
(lp1724
I3
aI1
aI500
aasS'ID_312_F1_7_F2_10_G_3_SplitPt_57_GenID_0'
p1725
(lp1726
(lp1727
I84
aI31
aI116
aa(lp1728
I124
aI3
aI54
aa(lp1729
I33
aI48
aI499
aasS'ID_65_F1_2_F2_3_G_4_SplitPt_108_GenID_0'
p1730
(lp1731
(lp1732
I138
aI1
aI113
aa(lp1733
I120
aI105
aI500
aasS'f6_7'
p1734
(lp1735
(lp1736
I3
aI27
aI473
aasS'ID_295_F1_2_F2_16_G_2_SplitPt_123_GenID_0'
p1737
(lp1738
(lp1739
I138
aI2
aI126
aa(lp1740
I88
aI115
aI500
aasS'f6_1'
p1741
(lp1742
(lp1743
I3
aI1
aI488
aasS'f6_0'
p1744
(lp1745
(lp1746
I3
aI1
aI232
aa(lp1747
I3
aI277
aI494
aasS'f6_3'
p1748
(lp1749
(lp1750
I38
aI1
aI74
aasS'f6_2'
p1751
(lp1752
(lp1753
I38
aI1
aI55
aasS'f4_3'
p1754
(lp1755
(lp1756
I73
aI18
aI92
aa(lp1757
I91
aI164
aI483
aasS'f4_2'
p1758
(lp1759
(lp1760
I73
aI16
aI91
aasS'f4_1'
p1761
(lp1762
(lp1763
I176
aI6
aI96
aa(lp1764
I140
aI14
aI238
aa(lp1765
I91
aI78
aI496
aasS'f4_0'
p1766
(lp1767
(lp1768
I176
aI1
aI112
aa(lp1769
I91
aI52
aI499
aasS'f4_7'
p1770
(lp1771
(lp1772
I140
aI1
aI214
aa(lp1773
I91
aI16
aI500
aasS'f4_6'
p1774
(lp1775
(lp1776
I140
aI1
aI238
aa(lp1777
I91
aI52
aI500
aasS'f4_5'
p1778
(lp1779
(lp1780
I140
aI2
aI219
aa(lp1781
I91
aI88
aI500
aasS'f4_4'
p1782
(lp1783
(lp1784
I140
aI1
aI217
aa(lp1785
I91
aI89
aI500
aasS'f17_2'
p1786
(lp1787
(lp1788
I177
aI208
aI381
aasS'f17_3'
p1789
(lp1790
(lp1791
I49
aI108
aI500
aasS'f4_9'
p1792
(lp1793
(lp1794
I72
aI1
aI241
aa(lp1795
I13
aI12
aI499
aasS'f4_8'
p1796
(lp1797
(lp1798
I72
aI3
aI240
aa(lp1799
I13
aI5
aI500
aasS'f17_6'
p1800
(lp1801
(lp1802
I178
aI1
aI242
aa(lp1803
I49
aI56
aI497
aasS'f17_7'
p1804
(lp1805
(lp1806
I178
aI6
aI247
aa(lp1807
I49
aI67
aI498
aasS'f17_4'
p1808
(lp1809
(lp1810
I178
aI1
aI228
aa(lp1811
I49
aI66
aI497
aasS'f17_5'
p1812
(lp1813
(lp1814
I178
aI35
aI222
aa(lp1815
I49
aI67
aI500
aasS'ID_184_F1_8_F2_3_G_2_SplitPt_135_GenID_0'
p1816
(lp1817
(lp1818
I89
aI20
aI99
aa(lp1819
I7
aI145
aI485
aasS'f16_13'
p1820
(lp1821
(lp1822
I59
aI1
aI218
aa(lp1823
I22
aI55
aI500
aasS'ID_280_F1_19_F2_0_G_4_SplitPt_211_GenID_0'
p1824
(lp1825
(lp1826
I68
aI165
aI500
aa(lp1827
I35
aI1
aI226
aasS'ID_485_F1_10_F2_5_G_2_SplitPt_185_GenID_0'
p1828
(lp1829
(lp1830
I12
aI169
aI498
aa(lp1831
I33
aI3
aI203
aasS'ID_98_F1_6_F2_4_G_4_SplitPt_183_GenID_0'
p1832
(lp1833
(lp1834
I91
aI164
aI500
aa(lp1835
I3
aI1
aI201
aasS'f16_11'
p1836
(lp1837
(lp1838
I59
aI2
aI207
aasS'f8_7'
p1839
(lp1840
(lp1841
I83
aI1
aI124
aa(lp1842
I64
aI50
aI499
aasS'f7_22'
p1843
(lp1844
(lp1845
I179
aI4
aI101
aasS'f8_5'
p1846
(lp1847
(lp1848
I173
aI149
aI330
aasS'f7_20'
p1849
(lp1850
(lp1851
I179
aI10
aI88
aa(lp1852
I36
aI12
aI399
aasS'f8_3'
p1853
(lp1854
(lp1855
I89
aI5
aI91
aa(lp1856
I64
aI8
aI500
aasS'f8_2'
p1857
(lp1858
(lp1859
I89
aI5
aI104
aa(lp1860
I64
aI32
aI500
aasS'f8_1'
p1861
(lp1862
(lp1863
I89
aI1
aI132
aa(lp1864
I64
aI168
aI500
aasS'f8_0'
p1865
(lp1866
(lp1867
I89
aI2
aI136
aa(lp1868
I64
aI10
aI500
aasS'ID_170_F1_0_F2_15_G_3_SplitPt_168_GenID_0'
p1869
(lp1870
(lp1871
I180
aI135
aI239
aa(lp1872
I181
aI1
aI189
aasS'f7_29'
p1873
(lp1874
(lp1875
I36
aI66
aI498
aasS'ID_106_F1_4_F2_8_G_1_SplitPt_69_GenID_0'
p1876
(lp1877
(lp1878
I182
aI127
aI323
aasS'ID_471_F1_6_F2_17_G_3_SplitPt_147_GenID_0'
p1879
(lp1880
(lp1881
I85
aI125
aI500
aa(lp1882
I3
aI1
aI145
aasS'ID_355_F1_15_F2_10_G_4_SplitPt_122_GenID_0'
p1883
(lp1884
(lp1885
I18
aI1
aI123
aa(lp1886
I33
aI115
aI500
aasS'f8_8'
p1887
(lp1888
(lp1889
I182
aI8
aI202
aa(lp1890
I64
aI49
aI498
aasS'ID_73_F1_4_F2_6_G_3_SplitPt_218_GenID_0'
p1891
(lp1892
(lp1893
I140
aI5
aI223
aa(lp1894
I3
aI211
aI495
aasS'ID_418_F1_1_F2_6_G_4_SplitPt_193_GenID_0'
p1895
(lp1896
(lp1897
I183
aI1
aI54
aa(lp1898
I3
aI190
aI500
aasS'ID_167_F1_18_F2_15_G_4_SplitPt_91_GenID_0'
p1899
(lp1900
(lp1901
I184
aI1
aI91
aa(lp1902
I160
aI370
aI480
aasS'f11_0'
p1903
(lp1904
(lp1905
I69
aI3
aI499
aasS'f11_1'
p1906
(lp1907
(lp1908
I69
aI9
aI495
aasS'f11_2'
p1909
(lp1910
(lp1911
I69
aI3
aI500
aasS'f17_31'
p1912
(lp1913
(lp1914
I85
aI2
aI500
aasS'f11_4'
p1915
(lp1916
(lp1917
I69
aI1
aI500
aasS'f11_5'
p1918
(lp1919
(lp1920
I69
aI1
aI500
aasS'f11_6'
p1921
(lp1922
(lp1923
I78
aI1
aI132
aa(lp1924
I69
aI3
aI500
aasS'f11_7'
p1925
(lp1926
(lp1927
I78
aI3
aI123
aa(lp1928
I69
aI10
aI500
aasS'f11_8'
p1929
(lp1930
(lp1931
I101
aI1
aI54
aasS'f11_9'
p1932
(lp1933
(lp1934
I101
aI1
aI55
aasS'ID_348_F1_0_F2_7_G_3_SplitPt_81_GenID_0'
p1935
(lp1936
(lp1937
I185
aI5
aI81
aa(lp1938
I67
aI84
aI499
aasS'ID_92_F1_7_F2_0_G_1_SplitPt_215_GenID_0'
p1939
(lp1940
(lp1941
I145
aI315
aI480
aasS'f2_9'
p1942
(lp1943
(lp1944
I5
aI2
aI491
aasS'f2_8'
p1945
(lp1946
(lp1947
I5
aI29
aI494
aasS'f13_4'
p1948
(lp1949
(lp1950
I10
aI1
aI499
aasS'ID_301_F1_6_F2_14_G_4_SplitPt_107_GenID_0'
p1951
(lp1952
(lp1953
I171
aI108
aI187
aa(lp1954
I186
aI432
aI500
aa(lp1955
I187
aI1
aI113
aasS'f13_2'
p1956
(lp1957
(lp1958
I10
aI1
aI499
aasS'f13_3'
p1959
(lp1960
(lp1961
I10
aI1
aI498
aasS'f13_0'
p1962
(lp1963
(lp1964
I153
aI1
aI70
aasS'f13_1'
p1965
(lp1966
(lp1967
I153
aI5
aI67
aa(lp1968
I10
aI9
aI500
aasS'f2_1'
p1969
(lp1970
(lp1971
I94
aI26
aI500
aasS'f2_0'
p1972
(lp1973
(lp1974
I94
aI28
aI453
aasS'f2_3'
p1975
(lp1976
(lp1977
I21
aI2
aI64
aa(lp1978
I94
aI6
aI500
aasS'f2_2'
p1979
(lp1980
(lp1981
I21
aI1
aI64
aa(lp1982
I94
aI5
aI500
aasS'f2_5'
p1983
(lp1984
(lp1985
I138
aI3
aI126
aa(lp1986
I94
aI6
aI500
aasS'f2_4'
p1987
(lp1988
(lp1989
I138
aI1
aI126
aa(lp1990
I94
aI5
aI500
aasS'f13_8'
p1991
(lp1992
(lp1993
I103
aI32
aI180
aa(lp1994
I10
aI79
aI498
aasS'f13_9'
p1995
(lp1996
(lp1997
I102
aI2
aI77
aa(lp1998
I10
aI189
aI500
aasS'f15_4'
p1999
(lp2000
(lp2001
I154
aI1
aI239
aa(lp2002
I15
aI68
aI500
aasS'f15_5'
p2003
(lp2004
(lp2005
I154
aI1
aI239
aa(lp2006
I15
aI37
aI500
aasS'f15_6'
p2007
(lp2008
(lp2009
I44
aI16
aI135
aasS'f15_7'
p2010
(lp2011
(lp2012
I154
aI7
aI240
aa(lp2013
I15
aI43
aI500
aasS'f15_0'
p2014
(lp2015
(lp2016
I132
aI1
aI216
aa(lp2017
I15
aI36
aI499
aasS'f15_1'
p2018
(lp2019
(lp2020
I132
aI5
aI211
aasS'f0_9'
p2021
(lp2022
(lp2023
I145
aI316
aI448
aasS'f15_3'
p2024
(lp2025
(lp2026
I97
aI2
aI99
aa(lp2027
I15
aI67
aI486
aasS'f0_7'
p2028
(lp2029
(lp2030
I188
aI1
aI83
aa(lp2031
I23
aI132
aI500
aasS'f0_6'
p2032
(lp2033
(lp2034
I188
aI1
aI80
aa(lp2035
I23
aI127
aI500
aasS'f0_5'
p2036
(lp2037
(lp2038
I23
aI82
aI499
aasS'f0_4'
p2039
(lp2040
(lp2041
I23
aI64
aI497
aasS'f15_8'
p2042
(lp2043
(lp2044
I48
aI1
aI62
aa(lp2045
I45
aI8
aI200
aa(lp2046
I15
aI127
aI500
aasS'f15_9'
p2047
(lp2048
(lp2049
I48
aI1
aI55
aa(lp2050
I15
aI21
aI500
aasS'f0_1'
p2051
(lp2052
(lp2053
I23
aI114
aI500
aasS'f0_0'
p2054
(lp2055
(lp2056
I23
aI84
aI499
aasS'f1_28'
p2057
(lp2058
(lp2059
I11
aI66
aI500
aasS'ID_185_F1_12_F2_2_G_3_SplitPt_166_GenID_0'
p2060
(lp2061
(lp2062
I56
aI1
aI180
aa(lp2063
I5
aI103
aI499
aasS'ID_499_F1_8_F2_17_G_3_SplitPt_147_GenID_0'
p2064
(lp2065
(lp2066
I182
aI1
aI152
aa(lp2067
I49
aI145
aI499
aasS'f19_10'
p2068
(lp2069
(lp2070
I35
aI1
aI247
aasS'ID_416_F1_15_F2_3_G_4_SplitPt_239_GenID_0'
p2071
(lp2072
(lp2073
I180
aI143
aI239
aa(lp2074
I7
aI214
aI500
aasS'ID_198_F1_5_F2_10_G_3_SplitPt_89_GenID_0'
p2075
(lp2076
(lp2077
I127
aI1
aI111
aa(lp2078
I33
aI68
aI500
aasS'ID_22_F1_14_F2_16_G_2_SplitPt_125_GenID_0'
p2079
(lp2080
(lp2081
I22
aI107
aI496
aasS'f1_11'
p2082
(lp2083
(lp2084
I11
aI1
aI496
aasS'ID_339_F1_7_F2_8_G_2_SplitPt_139_GenID_0'
p2085
(lp2086
(lp2087
I173
aI149
aI330
aasS'f16_12'
p2088
(lp2089
(lp2090
I59
aI1
aI208
aa(lp2091
I22
aI44
aI500
aasS'ID_479_F1_11_F2_12_G_4_SplitPt_94_GenID_0'
p2092
(lp2093
(lp2094
I101
aI1
aI54
aa(lp2095
I25
aI79
aI500
aasS'f16_10'
p2096
(lp2097
(lp2098
I59
aI2
aI207
aa(lp2099
I22
aI55
aI500
aasS'f16_17'
p2100
(lp2101
(lp2102
I88
aI1
aI499
aasS'f16_16'
p2103
(lp2104
(lp2105
I88
aI1
aI500
aasS'f16_15'
p2106
(lp2107
(lp2108
I59
aI1
aI207
aa(lp2109
I22
aI89
aI494
aasS'f16_14'
p2110
(lp2111
(lp2112
I59
aI1
aI207
aa(lp2113
I22
aI2
aI499
aasS'ID_32_F1_19_F2_16_G_2_SplitPt_51_GenID_0'
p2114
(lp2115
(lp2116
I22
aI46
aI500
aasS'f16_19'
p2117
(lp2118
(lp2119
I90
aI3
aI144
aasS'f16_18'
p2120
(lp2121
(lp2122
I90
aI7
aI135
aa(lp2123
I88
aI14
aI499
aasS'ID_194_F1_15_F2_17_G_2_SplitPt_90_GenID_0'
p2124
(lp2125
(lp2126
I49
aI89
aI492
aasS'f19_2'
p2127
(lp2128
(lp2129
I35
aI34
aI500
aasS'f11_3'
p2130
(lp2131
(lp2132
I69
aI3
aI500
aasS'ID_380_F1_12_F2_19_G_1_SplitPt_218_GenID_0'
p2133
(lp2134
(lp2135
I24
aI1
aI198
aasS'ID_459_F1_2_F2_16_G_2_SplitPt_227_GenID_0'
p2136
(lp2137
(lp2138
I88
aI209
aI496
aa(lp2139
I5
aI1
aI124
aasS'ID_314_F1_19_F2_19_G_3_SplitPt_80_GenID_0'
p2140
(lp2141
(lp2142
I35
aI1
aI500
aasS'ID_321_F1_13_F2_14_G_4_SplitPt_77_GenID_0'
p2143
(lp2144
(lp2145
I102
aI1
aI77
aa(lp2146
I28
aI68
aI500
aasS'ID_191_F1_18_F2_0_G_2_SplitPt_196_GenID_0'
p2147
(lp2148
(lp2149
I189
aI3
aI196
aa(lp2150
I68
aI35
aI496
aasS'f6_24'
p2151
(lp2152
(lp2153
I187
aI1
aI153
aa(lp2154
I3
aI150
aI500
aasS'f6_25'
p2155
(lp2156
(lp2157
I187
aI1
aI167
aa(lp2158
I3
aI15
aI500
aasS'f6_26'
p2159
(lp2160
(lp2161
I128
aI346
aI490
aa(lp2162
I187
aI1
aI183
aasS'f6_27'
p2163
(lp2164
(lp2165
I3
aI86
aI499
aasS'f6_20'
p2166
(lp2167
(lp2168
I3
aI7
aI497
aasS'ID_318_F1_0_F2_13_G_2_SplitPt_171_GenID_0'
p2169
(lp2170
(lp2171
I181
aI1
aI177
aa(lp2172
I10
aI173
aI500
aasS'f6_22'
p2173
(lp2174
(lp2175
I3
aI1
aI500
aasS'f6_23'
p2176
(lp2177
(lp2178
I3
aI1
aI500
aasS'ID_40_F1_16_F2_11_G_4_SplitPt_201_GenID_0'
p2179
(lp2180
(lp2181
I118
aI249
aI394
aa(lp2182
I59
aI1
aI229
aasS'ID_504_F1_9_F2_10_G_3_SplitPt_122_GenID_0'
p2183
(lp2184
(lp2185
I74
aI1
aI147
aa(lp2186
I33
aI63
aI500
aasS'f6_28'
p2187
(lp2188
(lp2189
I3
aI1
aI500
aasS'ID_285_F1_12_F2_8_G_3_SplitPt_161_GenID_0'
p2190
(lp2191
(lp2192
I55
aI161
aI347
aa(lp2193
I31
aI1
aI166
aasS'ID_444_F1_16_F2_11_G_4_SplitPt_241_GenID_0'
p2194
(lp2195
(lp2196
I76
aI242
aI500
aa(lp2197
I88
aI1
aI241
aasS'f1_25'
p2198
(lp2199
(lp2200
I11
aI1
aI488
aasS'f1_24'
p2201
(lp2202
(lp2203
I11
aI1
aI500
aasS'f1_27'
p2204
(lp2205
(lp2206
I183
aI1
aI54
aasS'f1_26'
p2207
(lp2208
(lp2209
I183
aI2
aI53
aasS'f14_19'
p2210
(lp2211
(lp2212
I109
aI1
aI80
aa(lp2213
I146
aI5
aI213
aa(lp2214
I28
aI77
aI500
aasS'f14_18'
p2215
(lp2216
(lp2217
I109
aI1
aI78
aa(lp2218
I28
aI65
aI500
aasS'f1_23'
p2219
(lp2220
(lp2221
I11
aI5
aI500
aasS'f1_22'
p2222
(lp2223
(lp2224
I183
aI3
aI84
aasS'f14_15'
p2225
(lp2226
(lp2227
I80
aI1
aI173
aasS'f14_14'
p2228
(lp2229
(lp2230
I186
aI432
aI500
aasS'ID_180_F1_7_F2_1_G_2_SplitPt_220_GenID_0'
p2231
(lp2232
(lp2233
I129
aI75
aI182
aa(lp2234
I11
aI212
aI498
aasS'f14_16'
p2235
(lp2236
(lp2237
I146
aI5
aI154
aa(lp2238
I28
aI81
aI500
aasS'f14_11'
p2239
(lp2240
(lp2241
I172
aI4
aI115
aa(lp2242
I80
aI136
aI500
aasS'ID_454_F1_5_F2_17_G_4_SplitPt_212_GenID_0'
p2243
(lp2244
(lp2245
I40
aI1
aI96
aa(lp2246
I49
aI189
aI500
aasS'f14_13'
p2247
(lp2248
(lp2249
I80
aI1
aI234
aasS'f14_12'
p2250
(lp2251
(lp2252
I80
aI1
aI457
aasS'ID_222_F1_18_F2_2_G_4_SplitPt_143_GenID_0'
p2253
(lp2254
(lp2255
I190
aI1
aI182
aa(lp2256
I5
aI142
aI500
aasS'f0_12'
p2257
(lp2258
(lp2259
I163
aI2
aI88
aa(lp2260
I145
aI315
aI469
aa(lp2261
I23
aI80
aI468
aasS'ID_177_F1_8_F2_1_G_3_SplitPt_69_GenID_0'
p2262
(lp2263
(lp2264
I147
aI2
aI70
aa(lp2265
I11
aI70
aI500
aasS'ID_264_F1_12_F2_17_G_4_SplitPt_66_GenID_0'
p2266
(lp2267
(lp2268
I191
aI1
aI80
aa(lp2269
I178
aI56
aI222
aasS'f2_31'
p2270
(lp2271
(lp2272
I5
aI112
aI500
aasS'ID_260_F1_4_F2_15_G_3_SplitPt_208_GenID_0'
p2273
(lp2274
(lp2275
I140
aI1
aI216
aa(lp2276
I15
aI193
aI500
aasS'ID_428_F1_17_F2_15_G_0_SplitPt_198_GenID_0'
p2277
(lp2278
(lp2279
I15
aI298
aI478
aasS'ID_365_F1_16_F2_6_G_1_SplitPt_107_GenID_0'
p2280
(lp2281
(lp2282
I3
aI170
aI496
aasS'f19_16'
p2283
(lp2284
(lp2285
I35
aI1
aI415
aasS'ID_71_F1_18_F2_7_G_4_SplitPt_215_GenID_0'
p2286
(lp2287
(lp2288
I67
aI214
aI500
aa(lp2289
I4
aI1
aI215
aasS'ID_195_F1_19_F2_11_G_3_SplitPt_207_GenID_0'
p2290
(lp2291
(lp2292
I76
aI128
aI500
aa(lp2293
I35
aI1
aI207
aasS'ID_63_F1_4_F2_12_G_1_SplitPt_152_GenID_0'
p2294
(lp2295
(lp2296
I72
aI2
aI150
aa(lp2297
I31
aI194
aI486
aasS'ID_57_F1_15_F2_15_G_2_SplitPt_219_GenID_0'
p2298
(lp2299
(lp2300
I132
aI5
aI214
aa(lp2301
I15
aI230
aI499
aasS'f13_30'
p2302
(lp2303
(lp2304
I10
aI1
aI499
aasS'f13_31'
p2305
(lp2306
(lp2307
I106
aI3
aI121
aasS'f6_12'
p2308
(lp2309
(lp2310
I3
aI3
aI498
aasS'f8_13'
p2311
(lp2312
(lp2313
I182
aI4
aI286
aasS'f8_12'
p2314
(lp2315
(lp2316
I182
aI77
aI276
aasS'f8_11'
p2317
(lp2318
(lp2319
I182
aI2
aI209
aasS'f8_10'
p2320
(lp2321
(lp2322
I182
aI1
aI209
aa(lp2323
I64
aI146
aI495
aasS'f8_17'
p2324
(lp2325
(lp2326
I34
aI1
aI486
aasS'f8_16'
p2327
(lp2328
(lp2329
I34
aI1
aI500
aasS'f8_15'
p2330
(lp2331
(lp2332
I182
aI1
aI155
aa(lp2333
I64
aI42
aI500
aasS'f8_14'
p2334
(lp2335
(lp2336
I182
aI1
aI154
aa(lp2337
I64
aI52
aI500
aasS'f8_19'
p2338
(lp2339
(lp2340
I147
aI2
aI58
aasS'f8_18'
p2341
(lp2342
(lp2343
I147
aI2
aI70
aasS'f0_10'
p2344
(lp2345
(lp2346
I23
aI196
aI497
aasS'f6_29'
p2347
(lp2348
(lp2349
I3
aI3
aI498
aasS'ID_41_F1_8_F2_19_G_2_SplitPt_143_GenID_0'
p2350
(lp2351
(lp2352
I62
aI4
aI142
aa(lp2353
I35
aI143
aI499
aasS'f8_23'
p2354
(lp2355
(lp2356
I34
aI1
aI500
aasS'ID_398_F1_3_F2_12_G_3_SplitPt_126_GenID_0'
p2357
(lp2358
(lp2359
I25
aI72
aI499
aa(lp2360
I7
aI1
aI127
aasS'ID_33_F1_0_F2_19_G_1_SplitPt_103_GenID_0'
p2361
(lp2362
(lp2363
I35
aI153
aI484
aasS'ID_79_F1_13_F2_4_G_2_SplitPt_188_GenID_0'
p2364
(lp2365
(lp2366
I104
aI2
aI184
aa(lp2367
I81
aI188
aI496
aasS'ID_136_F1_15_F2_0_G_3_SplitPt_215_GenID_0'
p2368
(lp2369
(lp2370
I45
aI3
aI230
aa(lp2371
I68
aI216
aI500
aasS'ID_188_F1_7_F2_18_G_2_SplitPt_180_GenID_0'
p2372
(lp2373
(lp2374
I125
aI1
aI186
aa(lp2375
I4
aI162
aI499
aasS'ID_66_F1_19_F2_10_G_2_SplitPt_64_GenID_0'
p2376
(lp2377
(lp2378
I141
aI1
aI68
aa(lp2379
I33
aI40
aI499
aasS'ID_197_F1_16_F2_3_G_4_SplitPt_105_GenID_0'
p2380
(lp2381
(lp2382
I148
aI282
aI469
aa(lp2383
I149
aI234
aI357
aa(lp2384
I59
aI1
aI113
aasS'f18_1'
p2385
(lp2386
(lp2387
I190
aI6
aI187
aa(lp2388
I4
aI20
aI493
aasS'f18_0'
p2389
(lp2390
(lp2391
I190
aI6
aI141
aa(lp2392
I4
aI33
aI493
aasS'f18_3'
p2393
(lp2394
(lp2395
I190
aI1
aI143
aa(lp2396
I4
aI45
aI493
aasS'f18_2'
p2397
(lp2398
(lp2399
I190
aI3
aI142
aa(lp2400
I4
aI70
aI499
aasS'f18_5'
p2401
(lp2402
(lp2403
I4
aI4
aI488
aasS'ID_46_F1_17_F2_9_G_2_SplitPt_55_GenID_0'
p2404
(lp2405
(lp2406
I30
aI51
aI499
aasS'ID_374_F1_6_F2_1_G_4_SplitPt_147_GenID_0'
p2407
(lp2408
(lp2409
I137
aI148
aI244
aa(lp2410
I187
aI1
aI176
aasS'f18_6'
p2411
(lp2412
(lp2413
I4
aI14
aI464
aasS'f18_9'
p2414
(lp2415
(lp2416
I113
aI1
aI137
aa(lp2417
I4
aI7
aI499
aasS'f18_8'
p2418
(lp2419
(lp2420
I113
aI1
aI128
aasS'f8_27'
p2421
(lp2422
(lp2423
I34
aI2
aI496
aasS'ID_335_F1_16_F2_19_G_1_SplitPt_149_GenID_0'
p2424
(lp2425
(lp2426
I169
aI165
aI329
aa(lp2427
I35
aI172
aI439
aasS'f1_20'
p2428
(lp2429
(lp2430
I161
aI4
aI74
aa(lp2431
I11
aI13
aI496
aasS'ID_247_F1_3_F2_11_G_3_SplitPt_102_GenID_0'
p2432
(lp2433
(lp2434
I7
aI3
aI101
aa(lp2435
I69
aI100
aI499
aasS'f0_16'
p2436
(lp2437
(lp2438
I185
aI5
aI81
aasS'f19_28'
p2439
(lp2440
(lp2441
I35
aI1
aI499
aasS'ID_352_F1_9_F2_9_G_2_SplitPt_177_GenID_0'
p2442
(lp2443
(lp2444
I134
aI1
aI175
aa(lp2445
I30
aI178
aI499
aasS'ID_85_F1_18_F2_16_G_4_SplitPt_162_GenID_0'
p2446
(lp2447
(lp2448
I189
aI1
aI190
aa(lp2449
I22
aI48
aI500
aasS'f9_30'
p2450
(lp2451
(lp2452
I74
aI1
aI153
aa(lp2453
I30
aI8
aI500
aasS'f9_31'
p2454
(lp2455
(lp2456
I74
aI1
aI135
aa(lp2457
I30
aI5
aI500
aasS'f5_30'
p2458
(lp2459
(lp2460
I158
aI1
aI496
aasS'f5_31'
p2461
(lp2462
(lp2463
I158
aI253
aI497
aasS'f19_11'
p2464
(lp2465
(lp2466
I35
aI1
aI458
aasS'ID_215_F1_5_F2_9_G_4_SplitPt_115_GenID_0'
p2467
(lp2468
(lp2469
I127
aI1
aI117
aa(lp2470
I116
aI109
aI500
aasS'f12_0'
p2471
(lp2472
(lp2473
I31
aI3
aI480
aasS'ID_472_F1_7_F2_18_G_3_SplitPt_161_GenID_0'
p2474
(lp2475
(lp2476
I125
aI1
aI161
aa(lp2477
I4
aI164
aI500
aasS'f14_17'
p2478
(lp2479
(lp2480
I28
aI4
aI500
aasS'f16_28'
p2481
(lp2482
(lp2483
I43
aI33
aI181
aasS'f16_29'
p2484
(lp2485
(lp2486
I43
aI1
aI216
aa(lp2487
I22
aI5
aI500
aasS'f14_9'
p2488
(lp2489
(lp2490
I80
aI1
aI500
aasS'f14_8'
p2491
(lp2492
(lp2493
I186
aI432
aI500
aasS'ID_162_F1_15_F2_16_G_3_SplitPt_207_GenID_0'
p2494
(lp2495
(lp2496
I154
aI1
aI207
aa(lp2497
I22
aI199
aI499
aasS'f14_5'
p2498
(lp2499
(lp2500
I80
aI2
aI500
aasS'f14_4'
p2501
(lp2502
(lp2503
I80
aI1
aI500
aasS'f14_7'
p2504
(lp2505
(lp2506
I192
aI5
aI71
aa(lp2507
I80
aI75
aI500
aasS'f14_6'
p2508
(lp2509
(lp2510
I192
aI5
aI66
aasS'f14_1'
p2511
(lp2512
(lp2513
I193
aI1
aI58
aa(lp2514
I80
aI114
aI499
aasS'f14_0'
p2515
(lp2516
(lp2517
I193
aI1
aI58
aasS'f14_3'
p2518
(lp2519
(lp2520
I194
aI1
aI141
aasS'f14_2'
p2521
(lp2522
(lp2523
I194
aI3
aI140
aa(lp2524
I80
aI127
aI499
aasS'f16_3'
p2525
(lp2526
(lp2527
I87
aI1
aI115
aasS'f16_2'
p2528
(lp2529
(lp2530
I87
aI1
aI118
aasS'f16_1'
p2531
(lp2532
(lp2533
I22
aI51
aI500
aasS'f16_0'
p2534
(lp2535
(lp2536
I22
aI54
aI500
aasS'f16_7'
p2537
(lp2538
(lp2539
I59
aI20
aI218
aasS'f16_6'
p2540
(lp2541
(lp2542
I59
aI5
aI126
aasS'f16_5'
p2543
(lp2544
(lp2545
I59
aI1
aI181
aa(lp2546
I22
aI17
aI500
aasS'f16_4'
p2547
(lp2548
(lp2549
I59
aI1
aI185
aa(lp2550
I22
aI9
aI500
aasS'f0_26'
p2551
(lp2552
(lp2553
I195
aI215
aI324
aasS'f0_27'
p2554
(lp2555
(lp2556
I68
aI41
aI500
aasS'f16_9'
p2557
(lp2558
(lp2559
I59
aI1
aI229
aasS'f16_8'
p2560
(lp2561
(lp2562
I59
aI1
aI206
aa(lp2563
I22
aI41
aI500
aasS'f0_22'
p2564
(lp2565
(lp2566
I68
aI1
aI500
aasS'f0_23'
p2567
(lp2568
(lp2569
I68
aI1
aI500
aasS'f0_20'
p2570
(lp2571
(lp2572
I68
aI1
aI500
aasS'ID_100_F1_15_F2_5_G_1_SplitPt_141_GenID_0'
p2573
(lp2574
(lp2575
I157
aI183
aI327
aasS'f17_21'
p2576
(lp2577
(lp2578
I196
aI1
aI90
aa(lp2579
I85
aI74
aI500
aasS'f17_20'
p2580
(lp2581
(lp2582
I196
aI2
aI96
aa(lp2583
I85
aI98
aI500
aasS'f17_23'
p2584
(lp2585
(lp2586
I85
aI45
aI500
aasS'f17_22'
p2587
(lp2588
(lp2589
I85
aI37
aI500
aasS'f17_25'
p2590
(lp2591
(lp2592
I85
aI2
aI500
aasS'f17_24'
p2593
(lp2594
(lp2595
I85
aI154
aI500
aasS'f0_14'
p2596
(lp2597
(lp2598
I145
aI360
aI474
aa(lp2599
I181
aI2
aI177
aasS'f17_26'
p2600
(lp2601
(lp2602
I85
aI53
aI500
aasS'f17_29'
p2603
(lp2604
(lp2605
I60
aI1
aI63
aa(lp2606
I85
aI7
aI499
aasS'f17_28'
p2607
(lp2608
(lp2609
I60
aI1
aI62
aa(lp2610
I85
aI9
aI500
aasS'ID_210_F1_19_F2_13_G_4_SplitPt_199_GenID_0'
p2611
(lp2612
(lp2613
I10
aI198
aI500
aa(lp2614
I35
aI1
aI213
aasS'f14_10'
p2615
(lp2616
(lp2617
I80
aI10
aI500
aasS'ID_209_F1_11_F2_5_G_4_SplitPt_247_GenID_0'
p2618
(lp2619
(lp2620
I111
aI113
aI245
aa(lp2621
I58
aI235
aI500
aasS'ID_123_F1_4_F2_18_G_3_SplitPt_67_GenID_0'
p2622
(lp2623
(lp2624
I2
aI1
aI67
aa(lp2625
I4
aI69
aI499
aasS'ID_20_F1_13_F2_0_G_1_SplitPt_217_GenID_0'
p2626
(lp2627
(lp2628
I23
aI218
aI485
aasS'ID_153_F1_12_F2_2_G_2_SplitPt_144_GenID_0'
p2629
(lp2630
(lp2631
I24
aI2
aI168
aa(lp2632
I5
aI122
aI500
aasS'ID_356_F1_6_F2_9_G_2_SplitPt_61_GenID_0'
p2633
(lp2634
(lp2635
I175
aI4
aI58
aa(lp2636
I30
aI55
aI499
aasS'ID_205_F1_11_F2_1_G_4_SplitPt_54_GenID_0'
p2637
(lp2638
(lp2639
I112
aI57
aI118
aa(lp2640
I101
aI1
aI55
aasS'ID_483_F1_4_F2_3_G_1_SplitPt_106_GenID_0'
p2641
(lp2642
(lp2643
I7
aI164
aI490
aasS'ID_121_F1_17_F2_13_G_1_SplitPt_106_GenID_0'
p2644
(lp2645
(lp2646
I10
aI278
aI496
aasS'ID_72_F1_4_F2_11_G_3_SplitPt_245_GenID_0'
p2647
(lp2648
(lp2649
I144
aI152
aI234
aa(lp2650
I61
aI243
aI498
aasS'f10_9'
p2651
(lp2652
(lp2653
I82
aI202
aI363
aasS'f15_31'
p2654
(lp2655
(lp2656
I14
aI3
aI156
aa(lp2657
I15
aI128
aI480
aasS'ID_68_F1_4_F2_4_G_3_SplitPt_108_GenID_0'
p2658
(lp2659
(lp2660
I176
aI1
aI112
aa(lp2661
I13
aI13
aI499
aasS'ID_17_F1_9_F2_10_G_2_SplitPt_165_GenID_0'
p2662
(lp2663
(lp2664
I119
aI2
aI160
aa(lp2665
I33
aI166
aI458
aasS'f10_1'
p2666
(lp2667
(lp2668
I84
aI1
aI191
aa(lp2669
I33
aI50
aI495
aasS'f10_0'
p2670
(lp2671
(lp2672
I84
aI1
aI148
aa(lp2673
I33
aI46
aI495
aasS'f10_3'
p2674
(lp2675
(lp2676
I84
aI2
aI195
aa(lp2677
I33
aI25
aI500
aasS'f10_2'
p2678
(lp2679
(lp2680
I84
aI3
aI195
aa(lp2681
I33
aI35
aI500
aasS'f10_5'
p2682
(lp2683
(lp2684
I197
aI290
aI377
aasS'f10_4'
p2685
(lp2686
(lp2687
I33
aI1
aI493
aasS'f10_7'
p2688
(lp2689
(lp2690
I33
aI4
aI500
aasS'f10_6'
p2691
(lp2692
(lp2693
I33
aI6
aI500
aasS'f4_17'
p2694
(lp2695
(lp2696
I81
aI61
aI495
aasS'f4_16'
p2697
(lp2698
(lp2699
I86
aI1
aI142
aa(lp2700
I81
aI14
aI500
aasS'ID_99_F1_7_F2_18_G_4_SplitPt_57_GenID_0'
p2701
(lp2702
(lp2703
I124
aI1
aI57
aa(lp2704
I4
aI41
aI500
aasS'f4_14'
p2705
(lp2706
(lp2707
I72
aI4
aI164
aa(lp2708
I13
aI30
aI500
aasS'f4_13'
p2709
(lp2710
(lp2711
I72
aI3
aI122
aa(lp2712
I13
aI85
aI500
aasS'f4_12'
p2713
(lp2714
(lp2715
I72
aI1
aI121
aa(lp2716
I13
aI110
aI500
aasS'f4_11'
p2717
(lp2718
(lp2719
I72
aI24
aI241
aasS'f4_10'
p2720
(lp2721
(lp2722
I72
aI28
aI234
aa(lp2723
I13
aI30
aI500
aasS'f12_7'
p2724
(lp2725
(lp2726
I31
aI1
aI495
aasS'f12_6'
p2727
(lp2728
(lp2729
I31
aI2
aI486
aasS'f12_4'
p2730
(lp2731
(lp2732
I31
aI1
aI419
aasS'f12_3'
p2733
(lp2734
(lp2735
I31
aI1
aI499
aasS'f12_2'
p2736
(lp2737
(lp2738
I31
aI4
aI500
aasS'f4_19'
p2739
(lp2740
(lp2741
I86
aI2
aI246
aa(lp2742
I81
aI189
aI488
aasS'f4_18'
p2743
(lp2744
(lp2745
I86
aI1
aI206
aa(lp2746
I81
aI212
aI500
aasS'f3_27'
p2747
(lp2748
(lp2749
I7
aI3
aI449
aasS'f3_26'
p2750
(lp2751
(lp2752
I7
aI7
aI496
aasS'f3_25'
p2753
(lp2754
(lp2755
I7
aI1
aI498
aasS'f3_24'
p2756
(lp2757
(lp2758
I198
aI339
aI450
aasS'f3_23'
p2759
(lp2760
(lp2761
I198
aI339
aI450
aa(lp2762
I199
aI1
aI197
aasS'f3_22'
p2763
(lp2764
(lp2765
I199
aI1
aI199
aa(lp2766
I167
aI52
aI494
aasS'f3_21'
p2767
(lp2768
(lp2769
I199
aI2
aI212
aa(lp2770
I167
aI93
aI492
aasS'f3_20'
p2771
(lp2772
(lp2773
I199
aI2
aI222
aa(lp2774
I167
aI103
aI499
aasS'ID_371_F1_10_F2_5_G_1_SplitPt_205_GenID_0'
p2775
(lp2776
(lp2777
I157
aI171
aI355
aa(lp2778
I33
aI5
aI198
aasS'f3_29'
p2779
(lp2780
(lp2781
I7
aI1
aI497
aasS'f3_28'
p2782
(lp2783
(lp2784
I7
aI1
aI499
aasS'ID_465_F1_15_F2_8_G_4_SplitPt_191_GenID_0'
p2785
(lp2786
(lp2787
I1
aI159
aI198
aasS'ID_256_F1_6_F2_6_G_3_SplitPt_154_GenID_0'
p2788
(lp2789
(lp2790
I200
aI1
aI165
aa(lp2791
I201
aI297
aI390
aasS'ID_225_F1_0_F2_6_G_4_SplitPt_186_GenID_0'
p2792
(lp2793
(lp2794
I185
aI18
aI80
aa(lp2795
I3
aI171
aI500
aasS'ID_327_F1_0_F2_16_G_2_SplitPt_119_GenID_0'
p2796
(lp2797
(lp2798
I88
aI155
aI498
aasS'ID_421_F1_7_F2_6_G_4_SplitPt_97_GenID_0'
p2799
(lp2800
(lp2801
I179
aI4
aI99
aa(lp2802
I3
aI98
aI500
aasS'ID_474_F1_11_F2_0_G_3_SplitPt_73_GenID_0'
p2803
(lp2804
(lp2805
I69
aI1
aI123
aa(lp2806
I68
aI30
aI500
aasS'f6_21'
p2807
(lp2808
(lp2809
I3
aI3
aI500
aasS'ID_150_F1_4_F2_3_G_0_SplitPt_157_GenID_0'
p2810
(lp2811
(lp2812
I149
aI234
aI363
aasS'f6_19'
p2813
(lp2814
(lp2815
I200
aI1
aI165
aa(lp2816
I3
aI3
aI500
aasS'f6_18'
p2817
(lp2818
(lp2819
I3
aI1
aI499
aasS'f10_20'
p2820
(lp2821
(lp2822
I33
aI1
aI499
aasS'ID_174_F1_10_F2_19_G_4_SplitPt_57_GenID_0'
p2823
(lp2824
(lp2825
I139
aI375
aI484
aa(lp2826
I202
aI1
aI63
aasS'f6_15'
p2827
(lp2828
(lp2829
I201
aI297
aI390
aasS'f6_14'
p2830
(lp2831
(lp2832
I3
aI2
aI498
aasS'f6_17'
p2833
(lp2834
(lp2835
I3
aI3
aI500
aasS'f6_16'
p2836
(lp2837
(lp2838
I3
aI146
aI500
aasS'f6_11'
p2839
(lp2840
(lp2841
I3
aI1
aI496
aasS'f6_10'
p2842
(lp2843
(lp2844
I3
aI3
aI499
aasS'f6_13'
p2845
(lp2846
(lp2847
I3
aI2
aI500
aasS'ID_89_F1_2_F2_18_G_4_SplitPt_169_GenID_0'
p2848
(lp2849
(lp2850
I123
aI1
aI189
aa(lp2851
I4
aI170
aI500
aasS'ID_108_F1_15_F2_0_G_3_SplitPt_127_GenID_0'
p2852
(lp2853
(lp2854
I45
aI1
aI144
aa(lp2855
I68
aI118
aI500
aasS'ID_288_F1_1_F2_7_G_3_SplitPt_225_GenID_0'
p2856
(lp2857
(lp2858
I79
aI102
aI226
aa(lp2859
I36
aI220
aI500
aasS'ID_412_F1_6_F2_9_G_3_SplitPt_226_GenID_0'
p2860
(lp2861
(lp2862
I30
aI223
aI500
aa(lp2863
I3
aI1
aI266
aasS'f10_14'
p2864
(lp2865
(lp2866
I33
aI10
aI499
aasS'ID_261_F1_3_F2_16_G_2_SplitPt_222_GenID_0'
p2867
(lp2868
(lp2869
I199
aI7
aI222
aa(lp2870
I22
aI72
aI499
aasS'ID_290_F1_5_F2_14_G_1_SplitPt_240_GenID_0'
p2871
(lp2872
(lp2873
I28
aI214
aI488
aasS'ID_286_F1_4_F2_1_G_2_SplitPt_182_GenID_0'
p2874
(lp2875
(lp2876
I72
aI7
aI181
aa(lp2877
I11
aI180
aI495
aasS'ID_487_F1_14_F2_4_G_4_SplitPt_141_GenID_0'
p2878
(lp2879
(lp2880
I194
aI1
aI141
aa(lp2881
I81
aI134
aI500
aasS'ID_258_F1_14_F2_5_G_3_SplitPt_67_GenID_0'
p2882
(lp2883
(lp2884
I192
aI5
aI71
aa(lp2885
I92
aI65
aI208
aasS'f7_28'
p2886
(lp2887
(lp2888
I36
aI19
aI425
aasS'ID_271_F1_18_F2_17_G_3_SplitPt_120_GenID_0'
p2889
(lp2890
(lp2891
I115
aI2
aI118
aa(lp2892
I85
aI122
aI500
aasS'ID_341_F1_4_F2_7_G_2_SplitPt_56_GenID_0'
p2893
(lp2894
(lp2895
I67
aI54
aI497
aasS'ID_325_F1_12_F2_8_G_3_SplitPt_153_GenID_0'
p2896
(lp2897
(lp2898
I56
aI1
aI153
aa(lp2899
I34
aI154
aI500
aasS'ID_332_F1_2_F2_2_G_1_SplitPt_200_GenID_0'
p2900
(lp2901
(lp2902
I5
aI191
aI443
aasS'f10_30'
p2903
(lp2904
(lp2905
I33
aI2
aI500
aasS'f19_23'
p2906
(lp2907
(lp2908
I35
aI3
aI497
aasS'ID_481_F1_17_F2_6_G_3_SplitPt_90_GenID_0'
p2909
(lp2910
(lp2911
I196
aI1
aI96
aa(lp2912
I3
aI93
aI498
aasS'ID_425_F1_3_F2_17_G_3_SplitPt_129_GenID_0'
p2913
(lp2914
(lp2915
I168
aI1
aI125
aa(lp2916
I49
aI106
aI499
aasS'ID_451_F1_5_F2_8_G_4_SplitPt_136_GenID_0'
p2917
(lp2918
(lp2919
I92
aI1
aI153
aa(lp2920
I64
aI104
aI500
aasS'f1_21'
p2921
(lp2922
(lp2923
I11
aI58
aI499
aasS'ID_342_F1_1_F2_13_G_4_SplitPt_53_GenID_0'
p2924
(lp2925
(lp2926
I183
aI1
aI86
aa(lp2927
I10
aI54
aI500
aasS'f7_30'
p2928
(lp2929
(lp2930
I36
aI21
aI382
aasS'f7_31'
p2931
(lp2932
(lp2933
I36
aI15
aI397
aasS'f12_17'
p2934
(lp2935
(lp2936
I56
aI1
aI171
aa(lp2937
I31
aI172
aI372
aa(lp2938
I25
aI250
aI486
aasS'f12_16'
p2939
(lp2940
(lp2941
I56
aI1
aI180
aa(lp2942
I25
aI120
aI483
aasS'f12_15'
p2943
(lp2944
(lp2945
I25
aI179
aI407
aasS'f12_14'
p2946
(lp2947
(lp2948
I31
aI2
aI473
aasS'f12_13'
p2949
(lp2950
(lp2951
I31
aI1
aI495
aasS'f12_12'
p2952
(lp2953
(lp2954
I203
aI256
aI493
aa(lp2955
I31
aI1
aI456
aasS'f12_11'
p2956
(lp2957
(lp2958
I191
aI1
aI66
aa(lp2959
I31
aI12
aI498
aasS'f12_10'
p2960
(lp2961
(lp2962
I70
aI293
aI431
aa(lp2963
I191
aI2
aI91
aasS'ID_107_F1_6_F2_13_G_4_SplitPt_234_GenID_0'
p2964
(lp2965
(lp2966
I3
aI1
aI244
aa(lp2967
I10
aI232
aI500
aasS'f12_19'
p2968
(lp2969
(lp2970
I56
aI1
aI197
aa(lp2971
I25
aI42
aI491
aasS'f12_18'
p2972
(lp2973
(lp2974
I56
aI1
aI153
aa(lp2975
I25
aI108
aI496
aasS'ID_55_F1_13_F2_2_G_4_SplitPt_228_GenID_0'
p2976
(lp2977
(lp2978
I204
aI135
aI228
aa(lp2979
I5
aI192
aI500
aasS'ID_18_F1_13_F2_11_G_3_SplitPt_122_GenID_0'
p2980
(lp2981
(lp2982
I130
aI120
aI228
aa(lp2983
I10
aI1
aI123
aasS'ID_76_F1_7_F2_6_G_4_SplitPt_196_GenID_0'
p2984
(lp2985
(lp2986
I166
aI117
aI201
aa(lp2987
I124
aI1
aI93
aa(lp2988
I3
aI192
aI500
aasS'ID_373_F1_11_F2_0_G_3_SplitPt_203_GenID_0'
p2989
(lp2990
(lp2991
I69
aI1
aI210
aa(lp2992
I68
aI168
aI499
aasS'ID_330_F1_2_F2_5_G_2_SplitPt_242_GenID_0'
p2993
(lp2994
(lp2995
I12
aI242
aI488
aa(lp2996
I5
aI12
aI242
aasS'ID_430_F1_5_F2_1_G_2_SplitPt_74_GenID_0'
p2997
(lp2998
(lp2999
I11
aI78
aI496
aasS'ID_242_F1_17_F2_10_G_4_SplitPt_235_GenID_0'
p3000
(lp3001
(lp3002
I197
aI290
aI377
aa(lp3003
I178
aI1
aI245
aasS'f11_30'
p3004
(lp3005
(lp3006
I29
aI1
aI71
aa(lp3007
I76
aI9
aI483
aasS'f11_31'
p3008
(lp3009
(lp3010
I29
aI1
aI80
aa(lp3011
I76
aI4
aI499
aasS'ID_375_F1_15_F2_0_G_2_SplitPt_139_GenID_0'
p3012
(lp3013
(lp3014
I18
aI1
aI170
aa(lp3015
I68
aI37
aI495
aasS'ID_272_F1_18_F2_18_G_4_SplitPt_62_GenID_0'
p3016
(lp3017
(lp3018
I115
aI21
aI117
aasS'ID_263_F1_14_F2_17_G_4_SplitPt_213_GenID_0'
p3019
(lp3020
(lp3021
I146
aI1
aI217
aa(lp3022
I49
aI127
aI500
aasS'ID_283_F1_3_F2_4_G_2_SplitPt_116_GenID_0'
p3023
(lp3024
(lp3025
I81
aI53
aI493
aasS'ID_384_F1_0_F2_5_G_4_SplitPt_82_GenID_0'
p3026
(lp3027
(lp3028
I188
aI1
aI83
aa(lp3029
I157
aI183
aI352
aa(lp3030
I92
aI84
aI249
aasS'f19_24'
p3031
(lp3032
(lp3033
I35
aI4
aI293
aasS'ID_214_F1_7_F2_6_G_3_SplitPt_148_GenID_0'
p3034
(lp3035
(lp3036
I47
aI1
aI153
aa(lp3037
I3
aI150
aI500
aasS'ID_140_F1_14_F2_4_G_2_SplitPt_170_GenID_0'
p3038
(lp3039
(lp3040
I80
aI2
aI159
aa(lp3041
I81
aI105
aI500
aasS'f19_9'
p3042
(lp3043
(lp3044
I35
aI1
aI218
aasS'ID_34_F1_10_F2_10_G_4_SplitPt_242_GenID_0'
p3045
(lp3046
(lp3047
I33
aI1
aI500
aasS'ID_208_F1_4_F2_9_G_2_SplitPt_89_GenID_0'
p3048
(lp3049
(lp3050
I116
aI104
aI500
aasS'ID_510_F1_1_F2_7_G_3_SplitPt_177_GenID_0'
p3051
(lp3052
(lp3053
I108
aI2
aI179
aa(lp3054
I67
aI179
aI499
aasS'ID_496_F1_13_F2_13_G_2_SplitPt_214_GenID_0'
p3055
(lp3056
(lp3057
I10
aI1
aI480
aasS'ID_480_F1_3_F2_16_G_3_SplitPt_52_GenID_0'
p3058
(lp3059
(lp3060
I59
aI55
aI152
aasS'f18_19'
p3061
(lp3062
(lp3063
I4
aI48
aI500
aasS'f18_18'
p3064
(lp3065
(lp3066
I4
aI1
aI500
aasS'f7_5'
p3067
(lp3068
(lp3069
I67
aI2
aI461
aasS'f18_11'
p3070
(lp3071
(lp3072
I159
aI236
aI476
aa(lp3073
I4
aI17
aI470
aasS'f18_10'
p3074
(lp3075
(lp3076
I4
aI17
aI499
aasS'f18_13'
p3077
(lp3078
(lp3079
I184
aI2
aI90
aasS'f18_12'
p3080
(lp3081
(lp3082
I184
aI1
aI91
aa(lp3083
I159
aI236
aI470
aa(lp3084
I189
aI2
aI204
aasS'f18_15'
p3085
(lp3086
(lp3087
I159
aI312
aI472
aa(lp3088
I189
aI1
aI175
aa(lp3089
I4
aI11
aI471
aasS'f18_14'
p3090
(lp3091
(lp3092
I189
aI1
aI196
aasS'f18_17'
p3093
(lp3094
(lp3095
I4
aI1
aI500
aasS'f18_16'
p3096
(lp3097
(lp3098
I4
aI1
aI500
aasS'f12_26'
p3099
(lp3100
(lp3101
I24
aI1
aI197
aa(lp3102
I25
aI48
aI488
aasS'ID_270_F1_5_F2_16_G_4_SplitPt_67_GenID_0'
p3103
(lp3104
(lp3105
I92
aI1
aI113
aa(lp3106
I88
aI39
aI500
aasS'f19_1'
p3107
(lp3108
(lp3109
I169
aI165
aI329
aasS'ID_500_F1_10_F2_14_G_3_SplitPt_223_GenID_0'
p3110
(lp3111
(lp3112
I28
aI225
aI500
aa(lp3113
I33
aI6
aI241
aasS'f0_11'
p3114
(lp3115
(lp3116
I23
aI93
aI495
aasS'f3_10'
p3117
(lp3118
(lp3119
I120
aI114
aI481
aasS'ID_376_F1_4_F2_0_G_3_SplitPt_144_GenID_0'
p3120
(lp3121
(lp3122
I86
aI1
aI144
aa(lp3123
I23
aI127
aI500
aasS'f14_28'
p3124
(lp3125
(lp3126
I53
aI1
aI134
aa(lp3127
I28
aI13
aI500
aasS'f14_29'
p3128
(lp3129
(lp3130
I53
aI3
aI164
aa(lp3131
I28
aI139
aI500
aasS'f3_11'
p3132
(lp3133
(lp3134
I120
aI109
aI492
aasS'f7_2'
p3135
(lp3136
(lp3137
I67
aI2
aI500
aasS'f1_30'
p3138
(lp3139
(lp3140
I11
aI86
aI500
aasS'ID_110_F1_15_F2_3_G_3_SplitPt_151_GenID_0'
p3141
(lp3142
(lp3143
I150
aI330
aI422
aa(lp3144
I20
aI1
aI155
aasS'f14_20'
p3145
(lp3146
(lp3147
I146
aI2
aI222
aa(lp3148
I28
aI4
aI499
aasS'f0_17'
p3149
(lp3150
(lp3151
I185
aI22
aI80
aasS'f14_22'
p3152
(lp3153
(lp3154
I146
aI1
aI213
aa(lp3155
I28
aI93
aI482
aasS'f14_23'
p3156
(lp3157
(lp3158
I146
aI1
aI217
aa(lp3159
I28
aI72
aI481
aasS'f19_30'
p3160
(lp3161
(lp3162
I131
aI160
aI255
aa(lp3163
I205
aI1
aI90
aasS'f19_31'
p3164
(lp3165
(lp3166
I205
aI6
aI86
aasS'f14_26'
p3167
(lp3168
(lp3169
I28
aI1
aI500
aasS'f14_27'
p3170
(lp3171
(lp3172
I37
aI162
aI308
aasS'f2_28'
p3173
(lp3174
(lp3175
I51
aI321
aI477
aasS'f10_10'
p3176
(lp3177
(lp3178
I99
aI2
aI110
aa(lp3179
I33
aI15
aI486
aasS'f10_13'
p3180
(lp3181
(lp3182
I33
aI6
aI499
aasS'f10_12'
p3183
(lp3184
(lp3185
I206
aI245
aI368
aasS'f10_15'
p3186
(lp3187
(lp3188
I33
aI15
aI499
aasS'f0_15'
p3189
(lp3190
(lp3191
I181
aI5
aI164
aa(lp3192
I23
aI214
aI492
aasS'f10_17'
p3193
(lp3194
(lp3195
I202
aI1
aI61
aa(lp3196
I33
aI5
aI489
aasS'f10_16'
p3197
(lp3198
(lp3199
I202
aI1
aI63
aa(lp3200
I33
aI5
aI491
aasS'f10_19'
p3201
(lp3202
(lp3203
I202
aI5
aI61
aasS'f2_21'
p3204
(lp3205
(lp3206
I123
aI8
aI220
aa(lp3207
I5
aI29
aI500
aasS'f2_22'
p3208
(lp3209
(lp3210
I123
aI1
aI244
aa(lp3211
I5
aI151
aI500
aasS'ID_165_F1_10_F2_4_G_4_SplitPt_239_GenID_0'
p3212
(lp3213
(lp3214
I207
aI309
aI413
aa(lp3215
I202
aI5
aI61
aasS'f2_24'
p3216
(lp3217
(lp3218
I95
aI1
aI60
aasS'f2_25'
p3219
(lp3220
(lp3221
I95
aI1
aI59
aasS'f2_26'
p3222
(lp3223
(lp3224
I151
aI279
aI389
aasS'f2_27'
p3225
(lp3226
(lp3227
I5
aI1
aI500
aasS'ID_434_F1_12_F2_12_G_2_SplitPt_235_GenID_0'
p3228
(lp3229
(lp3230
I31
aI35
aI318
aa(lp3231
I25
aI162
aI499
aasS'ID_114_F1_19_F2_16_G_1_SplitPt_166_GenID_0'
p3232
(lp3233
(lp3234
I35
aI1
aI161
aasS'ID_414_F1_0_F2_7_G_3_SplitPt_250_GenID_0'
p3235
(lp3236
(lp3237
I67
aI248
aI499
aa(lp3238
I68
aI2
aI252
aasS'ID_176_F1_8_F2_9_G_3_SplitPt_209_GenID_0'
p3239
(lp3240
(lp3241
I182
aI1
aI209
aa(lp3242
I30
aI197
aI500
aasS'ID_473_F1_19_F2_1_G_2_SplitPt_175_GenID_0'
p3243
(lp3244
(lp3245
I8
aI150
aI297
aa(lp3246
I11
aI183
aI500
aa(lp3247
I35
aI34
aI184
aasS'ID_142_F1_19_F2_7_G_3_SplitPt_177_GenID_0'
p3248
(lp3249
(lp3250
I67
aI152
aI500
aa(lp3251
I35
aI3
aI179
aasS'ID_437_F1_15_F2_1_G_1_SplitPt_146_GenID_0'
p3252
(lp3253
(lp3254
I11
aI160
aI481
aasS'ID_56_F1_3_F2_7_G_4_SplitPt_197_GenID_0'
p3255
(lp3256
(lp3257
I199
aI1
aI214
aa(lp3258
I67
aI190
aI500
aasS'ID_58_F1_2_F2_7_G_3_SplitPt_228_GenID_0'
p3259
(lp3260
(lp3261
I123
aI1
aI229
aa(lp3262
I67
aI216
aI500
aasS'f13_27'
p3263
(lp3264
(lp3265
I122
aI104
aI314
aasS'f13_26'
p3266
(lp3267
(lp3268
I10
aI49
aI500
aasS'f13_21'
p3269
(lp3270
(lp3271
I106
aI2
aI121
aasS'f13_20'
p3272
(lp3273
(lp3274
I106
aI2
aI130
aasS'f13_23'
p3275
(lp3276
(lp3277
I106
aI2
aI125
aasS'f13_22'
p3278
(lp3279
(lp3280
I106
aI1
aI131
aa(lp3281
I10
aI3
aI500
aasS'ID_323_F1_3_F2_19_G_2_SplitPt_201_GenID_0'
p3282
(lp3283
(lp3284
I139
aI375
aI484
aa(lp3285
I93
aI1
aI202
aasS'ID_431_F1_15_F2_1_G_2_SplitPt_202_GenID_0'
p3286
(lp3287
(lp3288
I17
aI6
aI213
aa(lp3289
I11
aI206
aI500
aasS'f13_29'
p3290
(lp3291
(lp3292
I10
aI2
aI499
aasS'f13_28'
p3293
(lp3294
(lp3295
I105
aI150
aI258
aasS'ID_406_F1_5_F2_9_G_3_SplitPt_88_GenID_0'
p3296
(lp3297
(lp3298
I155
aI1
aI85
aa(lp3299
I30
aI53
aI500
aasS'ID_304_F1_10_F2_4_G_3_SplitPt_54_GenID_0'
p3300
(lp3301
(lp3302
I100
aI1
aI60
aa(lp3303
I86
aI54
aI172
aasS'f13_18'
p3304
(lp3305
(lp3306
I10
aI1
aI430
aasS'ID_16_F1_4_F2_0_G_1_SplitPt_221_GenID_0'
p3307
(lp3308
(lp3309
I195
aI216
aI324
aasS'ID_244_F1_5_F2_5_G_2_SplitPt_85_GenID_0'
p3310
(lp3311
(lp3312
I12
aI80
aI499
aasS'ID_462_F1_10_F2_16_G_2_SplitPt_159_GenID_0'
p3313
(lp3314
(lp3315
I41
aI76
aI157
aa(lp3316
I22
aI138
aI500
aasS'ID_120_F1_3_F2_1_G_1_SplitPt_111_GenID_0'
p3317
(lp3318
(lp3319
I11
aI191
aI398
aasS'ID_470_F1_9_F2_14_G_3_SplitPt_179_GenID_0'
p3320
(lp3321
(lp3322
I119
aI1
aI182
aa(lp3323
I80
aI180
aI500
aasS'f2_29'
p3324
(lp3325
(lp3326
I5
aI25
aI500
aasS'ID_116_F1_16_F2_12_G_1_SplitPt_181_GenID_0'
p3327
(lp3328
(lp3329
I25
aI185
aI492
aasS'f13_19'
p3330
(lp3331
(lp3332
I10
aI1
aI286
aasS'ID_399_F1_17_F2_4_G_3_SplitPt_217_GenID_0'
p3333
(lp3334
(lp3335
I208
aI1
aI252
aa(lp3336
I91
aI208
aI498
aasS'ID_394_F1_9_F2_8_G_4_SplitPt_77_GenID_0'
p3337
(lp3338
(lp3339
I156
aI1
aI78
aa(lp3340
I34
aI78
aI500
aasS'ID_51_F1_17_F2_8_G_2_SplitPt_108_GenID_0'
p3341
(lp3342
(lp3343
I64
aI108
aI498
aasS'ID_35_F1_12_F2_17_G_4_SplitPt_138_GenID_0'
p3344
(lp3345
(lp3346
I56
aI1
aI209
aa(lp3347
I85
aI131
aI500
aasS'ID_501_F1_12_F2_9_G_3_SplitPt_195_GenID_0'
p3348
(lp3349
(lp3350
I24
aI1
aI197
aa(lp3351
I30
aI159
aI499
aasS'ID_19_F1_13_F2_13_G_1_SplitPt_145_GenID_0'
p3352
(lp3353
(lp3354
I10
aI18
aI457
aasS'ID_350_F1_19_F2_3_G_3_SplitPt_92_GenID_0'
p3355
(lp3356
(lp3357
I205
aI1
aI90
aa(lp3358
I199
aI52
aI207
aasS'ID_401_F1_10_F2_13_G_2_SplitPt_140_GenID_0'
p3359
(lp3360
(lp3361
I204
aI135
aI228
aasS'ID_246_F1_4_F2_14_G_3_SplitPt_123_GenID_0'
p3362
(lp3363
(lp3364
I72
aI5
aI138
aa(lp3365
I28
aI84
aI500
aasS'ID_509_F1_16_F2_5_G_3_SplitPt_167_GenID_0'
p3366
(lp3367
(lp3368
I88
aI1
aI167
aa(lp3369
I58
aI164
aI500
aasS'ID_171_F1_3_F2_3_G_4_SplitPt_143_GenID_0'
p3370
(lp3371
(lp3372
I93
aI141
aI500
aa(lp3373
I7
aI1
aI177
aasS'ID_102_F1_11_F2_12_G_4_SplitPt_210_GenID_0'
p3374
(lp3375
(lp3376
I61
aI1
aI230
aa(lp3377
I25
aI193
aI500
aasS'f10_24'
p3378
(lp3379
(lp3380
I33
aI59
aI500
aasS'ID_13_F1_0_F2_14_G_3_SplitPt_147_GenID_0'
p3381
(lp3382
(lp3383
I37
aI162
aI308
aa(lp3384
I181
aI1
aI148
aasS'ID_61_F1_14_F2_10_G_4_SplitPt_58_GenID_0'
p3385
(lp3386
(lp3387
I193
aI1
aI58
aa(lp3388
I33
aI54
aI500
aasS'ID_408_F1_1_F2_7_G_2_SplitPt_81_GenID_0'
p3389
(lp3390
(lp3391
I67
aI122
aI500
aasS'ID_388_F1_14_F2_7_G_3_SplitPt_226_GenID_0'
p3392
(lp3393
(lp3394
I146
aI1
aI223
aa(lp3395
I67
aI225
aI499
aasS'ID_181_F1_15_F2_0_G_4_SplitPt_118_GenID_0'
p3396
(lp3397
(lp3398
I16
aI1
aI118
aa(lp3399
I68
aI103
aI500
aasS'ID_228_F1_19_F2_1_G_2_SplitPt_61_GenID_0'
p3400
(lp3401
(lp3402
I11
aI66
aI500
aasS'ID_204_F1_13_F2_4_G_4_SplitPt_174_GenID_0'
p3403
(lp3404
(lp3405
I144
aI158
aI235
aa(lp3406
I81
aI172
aI500
aa(lp3407
I10
aI1
aI174
aasS'ID_478_F1_0_F2_18_G_1_SplitPt_103_GenID_0'
p3408
(lp3409
(lp3410
I4
aI141
aI433
aasS'ID_405_F1_9_F2_3_G_4_SplitPt_145_GenID_0'
p3411
(lp3412
(lp3413
I119
aI1
aI172
aa(lp3414
I93
aI114
aI500
aasS'f19_12'
p3415
(lp3416
(lp3417
I141
aI3
aI65
aasS'ID_175_F1_13_F2_12_G_4_SplitPt_246_GenID_0'
p3418
(lp3419
(lp3420
I25
aI238
aI500
aa(lp3421
I10
aI1
aI302
aasS'ID_466_F1_8_F2_14_G_3_SplitPt_190_GenID_0'
p3422
(lp3423
(lp3424
I62
aI2
aI215
aa(lp3425
I28
aI173
aI500
aasS'f8_9'
p3426
(lp3427
(lp3428
I182
aI5
aI323
aa(lp3429
I64
aI52
aI500
aasS'ID_449_F1_13_F2_4_G_4_SplitPt_124_GenID_0'
p3430
(lp3431
(lp3432
I106
aI1
aI131
aa(lp3433
I13
aI123
aI500
aasS'f16_31'
p3434
(lp3435
(lp3436
I43
aI1
aI218
aa(lp3437
I22
aI159
aI499
aasS'f16_30'
p3438
(lp3439
(lp3440
I43
aI2
aI218
aa(lp3441
I22
aI33
aI499
aasS'ID_502_F1_16_F2_17_G_3_SplitPt_205_GenID_0'
p3442
(lp3443
(lp3444
I59
aI2
aI207
aa(lp3445
I49
aI200
aI496
aasS'ID_67_F1_7_F2_14_G_2_SplitPt_91_GenID_0'
p3446
(lp3447
(lp3448
I124
aI1
aI99
aa(lp3449
I80
aI78
aI498
aasS'f0_19'
p3450
(lp3451
(lp3452
I68
aI1
aI500
aasS'f0_18'
p3453
(lp3454
(lp3455
I68
aI3
aI500
aasS'f12_28'
p3456
(lp3457
(lp3458
I6
aI381
aI490
aa(lp3459
I24
aI1
aI237
aasS'ID_494_F1_4_F2_5_G_2_SplitPt_101_GenID_0'
p3460
(lp3461
(lp3462
I142
aI286
aI499
aasS'f0_13'
p3463
(lp3464
(lp3465
I145
aI352
aI476
aa(lp3466
I181
aI1
aI158
aasS'ID_507_F1_5_F2_19_G_3_SplitPt_88_GenID_0'
p3467
(lp3468
(lp3469
I143
aI2
aI94
aa(lp3470
I35
aI89
aI499
aasS'f12_24'
p3471
(lp3472
(lp3473
I24
aI3
aI202
aasS'f12_25'
p3474
(lp3475
(lp3476
I24
aI1
aI245
aa(lp3477
I25
aI76
aI498
aasS'f12_22'
p3478
(lp3479
(lp3480
I164
aI2
aI189
aa(lp3481
I25
aI79
aI500
aasS'f12_23'
p3482
(lp3483
(lp3484
I164
aI2
aI186
aa(lp3485
I25
aI42
aI500
aasS'f12_20'
p3486
(lp3487
(lp3488
I164
aI2
aI189
aa(lp3489
I25
aI108
aI500
aasS'f12_21'
p3490
(lp3491
(lp3492
I164
aI1
aI187
aa(lp3493
I25
aI127
aI500
aasS'ID_7_F1_12_F2_10_G_1_SplitPt_214_GenID_0'
p3494
(lp3495
(lp3496
I206
aI245
aI368
aa(lp3497
I31
aI7
aI180
aasS'f17_18'
p3498
(lp3499
(lp3500
I208
aI6
aI171
aasS'f17_19'
p3501
(lp3502
(lp3503
I85
aI213
aI500
aasS'f17_14'
p3504
(lp3505
(lp3506
I49
aI25
aI496
aasS'f17_15'
p3507
(lp3508
(lp3509
I177
aI208
aI381
aa(lp3510
I209
aI40
aI280
aasS'f17_16'
p3511
(lp3512
(lp3513
I107
aI351
aI499
aa(lp3514
I208
aI1
aI205
aasS'f17_17'
p3515
(lp3516
(lp3517
I208
aI1
aI272
aa(lp3518
I85
aI37
aI500
aasS'f17_10'
p3519
(lp3520
(lp3521
I209
aI40
aI280
aa(lp3522
I49
aI89
aI496
aasS'f17_11'
p3523
(lp3524
(lp3525
I49
aI27
aI490
aasS'f17_12'
p3526
(lp3527
(lp3528
I49
aI27
aI489
aasS'f17_13'
p3529
(lp3530
(lp3531
I162
aI47
aI198
aasS'ID_231_F1_9_F2_15_G_2_SplitPt_143_GenID_0'
p3532
(lp3533
(lp3534
I119
aI2
aI147
aa(lp3535
I15
aI150
aI500
aasS'ID_149_F1_17_F2_1_G_3_SplitPt_52_GenID_0'
p3536
(lp3537
(lp3538
I11
aI53
aI500
aasS'f12_29'
p3539
(lp3540
(lp3541
I24
aI1
aI154
aa(lp3542
I25
aI87
aI500
aasS'ID_306_F1_4_F2_1_G_2_SplitPt_114_GenID_0'
p3543
(lp3544
(lp3545
I72
aI5
aI117
aa(lp3546
I11
aI106
aI500
aasS'ID_30_F1_16_F2_12_G_3_SplitPt_137_GenID_0'
p3547
(lp3548
(lp3549
I90
aI3
aI144
aa(lp3550
I31
aI146
aI500
aasS'ID_64_F1_2_F2_4_G_2_SplitPt_115_GenID_0'
p3551
(lp3552
(lp3553
I50
aI2
aI131
aa(lp3554
I207
aI309
aI411
aa(lp3555
I72
aI116
aI240
aasS'f6_31'
p3556
(lp3557
(lp3558
I3
aI3
aI500
aasS'f18_4'
p3559
(lp3560
(lp3561
I4
aI20
aI500
aas.