(dp1
S'ID_88_F1_15_F2_12_G_1_SplitPt_89_GenID_0'
p2
(lp3
(lp4
I1
aI1
aI132
aa(lp5
I2
aI12
aI500
aasS'ID_183_F1_8_F2_14_G_0_SplitPt_228_GenID_0'
p6
(lp7
(lp8
I3
aI1
aI241
aa(lp9
I4
aI189
aI500
aasS'ID_86_F1_13_F2_10_G_0_SplitPt_159_GenID_0'
p10
(lp11
(lp12
I5
aI93
aI493
aa(lp13
I6
aI1
aI212
aasS'ID_178_F1_3_F2_5_G_0_SplitPt_105_GenID_0'
p14
(lp15
(lp16
I7
aI1
aI112
aa(lp17
I8
aI104
aI500
aasS'f15_29'
p18
(lp19
(lp20
I9
aI52
aI495
aasS'f15_28'
p21
(lp22
(lp23
I9
aI2
aI500
aasS'f15_27'
p24
(lp25
(lp26
I10
aI142
aI250
aasS'f15_26'
p27
(lp28
(lp29
I9
aI48
aI500
aasS'f15_25'
p30
(lp31
(lp32
I11
aI375
aI499
aasS'f15_24'
p33
(lp34
(lp35
I11
aI333
aI496
aasS'f15_23'
p36
(lp37
(lp38
I9
aI25
aI500
aasS'f15_22'
p39
(lp40
(lp41
I9
aI7
aI500
aasS'f15_21'
p42
(lp43
(lp44
I9
aI2
aI500
aasS'ID_102_F1_8_F2_7_G_3_SplitPt_218_GenID_0'
p45
(lp46
(lp47
I12
aI141
aI247
aa(lp48
I13
aI197
aI500
aasS'f0_3'
p49
(lp50
(lp51
I8
aI1
aI500
aasS'ID_28_F1_2_F2_8_G_4_SplitPt_163_GenID_0'
p52
(lp53
(lp54
I14
aI133
aI272
aa(lp55
I15
aI1
aI186
aasS'f3_30'
p56
(lp57
(lp58
I7
aI1
aI500
aasS'f3_31'
p59
(lp60
(lp61
I7
aI1
aI496
aasS'ID_146_F1_13_F2_17_G_0_SplitPt_204_GenID_0'
p62
(lp63
(lp64
I8
aI141
aI500
aa(lp65
I6
aI3
aI218
aasS'f8_20'
p66
(lp67
(lp68
I3
aI2
aI500
aasS'f19_29'
p69
(lp70
(lp71
I6
aI1
aI500
aasS'f9_17'
p72
(lp73
(lp74
I6
aI1
aI499
aasS'f0_2'
p75
(lp76
(lp77
I8
aI5
aI500
aasS'ID_189_F1_12_F2_9_G_3_SplitPt_209_GenID_0'
p78
(lp79
(lp80
I16
aI249
aI352
aa(lp81
I17
aI1
aI52
aasS'f19_28'
p82
(lp83
(lp84
I6
aI1
aI500
aasS'ID_42_F1_4_F2_6_G_1_SplitPt_223_GenID_0'
p85
(lp86
(lp87
I18
aI206
aI500
aa(lp88
I6
aI1
aI284
aasS'ID_0_F1_19_F2_19_G_0_SplitPt_117_GenID_0'
p89
(lp90
(lp91
I6
aI2
aI500
aasS'ID_66_F1_6_F2_18_G_1_SplitPt_204_GenID_0'
p92
(lp93
(lp94
I19
aI187
aI499
aa(lp95
I18
aI3
aI270
aasS'ID_241_F1_19_F2_4_G_2_SplitPt_192_GenID_0'
p96
(lp97
(lp98
I6
aI1
aI499
aasS'ID_82_F1_11_F2_16_G_4_SplitPt_159_GenID_0'
p99
(lp100
(lp101
I20
aI1
aI72
aa(lp102
I21
aI111
aI500
aasS'ID_149_F1_11_F2_19_G_1_SplitPt_240_GenID_0'
p103
(lp104
(lp105
I22
aI1
aI345
aa(lp106
I6
aI216
aI499
aasS'f4_1'
p107
(lp108
(lp109
I6
aI3
aI500
aasS'f2_11'
p110
(lp111
(lp112
I15
aI3
aI500
aasS'f2_10'
p113
(lp114
(lp115
I15
aI2
aI500
aasS'f2_13'
p116
(lp117
(lp118
I23
aI8
aI63
aasS'f2_12'
p119
(lp120
(lp121
I23
aI8
aI60
aasS'f2_15'
p122
(lp123
(lp124
I15
aI1
aI499
aasS'f2_14'
p125
(lp126
(lp127
I15
aI1
aI500
aasS'f2_17'
p128
(lp129
(lp130
I15
aI3
aI496
aasS'f2_16'
p131
(lp132
(lp133
I15
aI3
aI498
aasS'f2_19'
p134
(lp135
(lp136
I15
aI31
aI497
aasS'f2_18'
p137
(lp138
(lp139
I15
aI1
aI500
aasS'ID_84_F1_3_F2_9_G_4_SplitPt_80_GenID_0'
p140
(lp141
(lp142
I7
aI1
aI80
aa(lp143
I6
aI17
aI500
aasS'f17_28'
p144
(lp145
(lp146
I8
aI3
aI500
aasS'f19_20'
p147
(lp148
(lp149
I6
aI1
aI500
aasS'ID_158_F1_4_F2_8_G_4_SplitPt_109_GenID_0'
p150
(lp151
(lp152
I3
aI50
aI500
aa(lp153
I6
aI1
aI162
aasS'f15_18'
p154
(lp155
(lp156
I9
aI1
aI500
aasS'f19_24'
p157
(lp158
(lp159
I6
aI1
aI500
aasS'ID_109_F1_6_F2_3_G_0_SplitPt_218_GenID_0'
p160
(lp161
(lp162
I7
aI201
aI500
aa(lp163
I18
aI2
aI212
aasS'ID_148_F1_17_F2_0_G_3_SplitPt_193_GenID_0'
p164
(lp165
(lp166
I8
aI1
aI500
aasS'f4_8'
p167
(lp168
(lp169
I6
aI2
aI500
aasS'f8_31'
p170
(lp171
(lp172
I3
aI1
aI500
aasS'f8_30'
p173
(lp174
(lp175
I24
aI77
aI134
aasS'f0_15'
p176
(lp177
(lp178
I8
aI1
aI500
aasS'ID_172_F1_16_F2_15_G_4_SplitPt_169_GenID_0'
p179
(lp180
(lp181
I11
aI362
aI497
aa(lp182
I21
aI1
aI198
aasS'ID_67_F1_2_F2_16_G_3_SplitPt_149_GenID_0'
p183
(lp184
(lp185
I25
aI142
aI295
aa(lp186
I15
aI1
aI184
aasS'ID_44_F1_13_F2_8_G_1_SplitPt_157_GenID_0'
p187
(lp188
(lp189
I3
aI103
aI489
aa(lp190
I6
aI1
aI266
aasS'ID_110_F1_9_F2_7_G_2_SplitPt_93_GenID_0'
p191
(lp192
(lp193
I13
aI94
aI500
aa(lp194
I6
aI2
aI105
aasS'ID_152_F1_12_F2_15_G_3_SplitPt_163_GenID_0'
p195
(lp196
(lp197
I26
aI115
aI162
aasS'f17_0'
p198
(lp199
(lp200
I8
aI1
aI500
aasS'ID_73_F1_12_F2_14_G_2_SplitPt_223_GenID_0'
p201
(lp202
(lp203
I2
aI1
aI274
aa(lp204
I4
aI163
aI500
aasS'f12_20'
p205
(lp206
(lp207
I2
aI1
aI500
aasS'ID_2_F1_19_F2_9_G_2_SplitPt_250_GenID_0'
p208
(lp209
(lp210
I6
aI1
aI500
aasS'ID_147_F1_18_F2_10_G_2_SplitPt_58_GenID_0'
p211
(lp212
(lp213
I27
aI1
aI58
aa(lp214
I5
aI52
aI498
aasS'ID_53_F1_9_F2_9_G_2_SplitPt_207_GenID_0'
p215
(lp216
(lp217
I6
aI1
aI500
aasS'ID_188_F1_14_F2_11_G_1_SplitPt_174_GenID_0'
p218
(lp219
(lp220
I28
aI102
aI180
aa(lp221
I22
aI164
aI500
aasS'ID_139_F1_17_F2_13_G_4_SplitPt_146_GenID_0'
p222
(lp223
(lp224
I8
aI1
aI272
aa(lp225
I6
aI113
aI500
aasS'ID_34_F1_6_F2_10_G_1_SplitPt_71_GenID_0'
p226
(lp227
(lp228
I5
aI54
aI500
aa(lp229
I18
aI1
aI93
aasS'f11_23'
p230
(lp231
(lp232
I29
aI426
aI499
aasS'f11_22'
p233
(lp234
(lp235
I29
aI372
aI500
aasS'f11_21'
p236
(lp237
(lp238
I29
aI416
aI499
aasS'f11_20'
p239
(lp240
(lp241
I22
aI1
aI500
aasS'f11_27'
p242
(lp243
(lp244
I22
aI6
aI500
aasS'f11_26'
p245
(lp246
(lp247
I22
aI2
aI500
aasS'f11_25'
p248
(lp249
(lp250
I22
aI1
aI500
aasS'f11_24'
p251
(lp252
(lp253
I22
aI2
aI500
aasS'f11_29'
p254
(lp255
(lp256
I20
aI2
aI74
aasS'f11_28'
p257
(lp258
(lp259
I20
aI2
aI72
aa(lp260
I29
aI376
aI500
aasS'f19_31'
p261
(lp262
(lp263
I6
aI1
aI498
aasS'f4_31'
p264
(lp265
(lp266
I6
aI2
aI500
aasS'ID_164_F1_7_F2_10_G_2_SplitPt_149_GenID_0'
p267
(lp268
(lp269
I5
aI102
aI499
aa(lp270
I13
aI1
aI150
aasS'ID_156_F1_2_F2_5_G_1_SplitPt_108_GenID_0'
p271
(lp272
(lp273
I15
aI1
aI119
aa(lp274
I8
aI102
aI500
aasS'ID_197_F1_13_F2_3_G_1_SplitPt_116_GenID_0'
p275
(lp276
(lp277
I30
aI278
aI398
aa(lp278
I6
aI1
aI230
aasS'ID_78_F1_4_F2_3_G_4_SplitPt_181_GenID_0'
p279
(lp280
(lp281
I7
aI8
aI500
aa(lp282
I6
aI1
aI215
aasS'f15_20'
p283
(lp284
(lp285
I11
aI362
aI500
aa(lp286
I9
aI148
aI498
aasS'f8_7'
p287
(lp288
(lp289
I3
aI1
aI498
aasS'f19_19'
p290
(lp291
(lp292
I6
aI1
aI500
aasS'f8_6'
p293
(lp294
(lp295
I3
aI1
aI500
aasS'ID_120_F1_14_F2_12_G_0_SplitPt_54_GenID_0'
p296
(lp297
(lp298
I2
aI55
aI497
aasS'f8_5'
p299
(lp300
(lp301
I3
aI1
aI500
aasS'ID_245_F1_19_F2_9_G_3_SplitPt_247_GenID_0'
p302
(lp303
(lp304
I31
aI163
aI218
aasS'f14_5'
p305
(lp306
(lp307
I4
aI2
aI500
aasS'f8_4'
p308
(lp309
(lp310
I3
aI1
aI500
aasS'ID_51_F1_6_F2_12_G_3_SplitPt_176_GenID_0'
p311
(lp312
(lp313
I2
aI166
aI499
aa(lp314
I18
aI1
aI204
aasS'f8_3'
p315
(lp316
(lp317
I3
aI1
aI500
aasS'f14_7'
p318
(lp319
(lp320
I4
aI1
aI500
aasS'f8_2'
p321
(lp322
(lp323
I3
aI1
aI500
aasS'f8_26'
p324
(lp325
(lp326
I3
aI1
aI500
aasS'f14_6'
p327
(lp328
(lp329
I4
aI2
aI500
aasS'f8_1'
p330
(lp331
(lp332
I3
aI1
aI500
aasS'f8_27'
p333
(lp334
(lp335
I3
aI1
aI500
aasS'f14_1'
p336
(lp337
(lp338
I4
aI1
aI500
aasS'f8_0'
p339
(lp340
(lp341
I3
aI1
aI495
aasS'f8_24'
p342
(lp343
(lp344
I3
aI1
aI500
aasS'ID_107_F1_1_F2_15_G_1_SplitPt_148_GenID_0'
p345
(lp346
(lp347
I32
aI378
aI495
aa(lp348
I33
aI1
aI167
aasS'f3_3'
p349
(lp350
(lp351
I7
aI1
aI494
aasS'f14_3'
p352
(lp353
(lp354
I4
aI1
aI500
aasS'f14_31'
p355
(lp356
(lp357
I4
aI1
aI500
aasS'f14_30'
p358
(lp359
(lp360
I4
aI7
aI500
aasS'f8_22'
p361
(lp362
(lp363
I3
aI1
aI500
aasS'f16_25'
p364
(lp365
(lp366
I21
aI1
aI500
aasS'f3_5'
p367
(lp368
(lp369
I7
aI1
aI500
aasS'f15_16'
p370
(lp371
(lp372
I9
aI100
aI500
aasS'f15_17'
p373
(lp374
(lp375
I9
aI137
aI500
aasS'f15_14'
p376
(lp377
(lp378
I34
aI1
aI50
aa(lp379
I9
aI70
aI499
aasS'f15_15'
p380
(lp381
(lp382
I34
aI1
aI49
aa(lp383
I9
aI4
aI500
aasS'f15_12'
p384
(lp385
(lp386
I34
aI1
aI50
aa(lp387
I9
aI4
aI500
aasS'f15_13'
p388
(lp389
(lp390
I34
aI1
aI50
aa(lp391
I1
aI13
aI102
aa(lp392
I9
aI77
aI500
aasS'f15_10'
p393
(lp394
(lp395
I1
aI1
aI102
aa(lp396
I9
aI27
aI500
aasS'f15_11'
p397
(lp398
(lp399
I34
aI1
aI50
aa(lp400
I9
aI49
aI500
aasS'f19_6'
p401
(lp402
(lp403
I6
aI1
aI499
aasS'f19_22'
p404
(lp405
(lp406
I6
aI1
aI500
aasS'f19_21'
p407
(lp408
(lp409
I6
aI1
aI500
aasS'ID_55_F1_18_F2_17_G_0_SplitPt_244_GenID_0'
p410
(lp411
(lp412
I19
aI1
aI294
aa(lp413
I8
aI134
aI500
aasS'f19_27'
p414
(lp415
(lp416
I6
aI1
aI500
aasS'f19_26'
p417
(lp418
(lp419
I6
aI1
aI500
aasS'ID_60_F1_3_F2_11_G_1_SplitPt_230_GenID_0'
p420
(lp421
(lp422
I35
aI142
aI217
aa(lp423
I22
aI187
aI500
aasS'f15_19'
p424
(lp425
(lp426
I9
aI76
aI500
aasS'ID_62_F1_4_F2_3_G_1_SplitPt_67_GenID_0'
p427
(lp428
(lp429
I36
aI1
aI67
aasS'f10_28'
p430
(lp431
(lp432
I5
aI1
aI500
aasS'f10_29'
p433
(lp434
(lp435
I5
aI1
aI500
aasS'f10_24'
p436
(lp437
(lp438
I5
aI2
aI497
aasS'f10_25'
p439
(lp440
(lp441
I5
aI2
aI497
aasS'f10_26'
p442
(lp443
(lp444
I5
aI1
aI496
aasS'f10_27'
p445
(lp446
(lp447
I5
aI1
aI499
aasS'f10_20'
p448
(lp449
(lp450
I5
aI1
aI500
aasS'f10_21'
p451
(lp452
(lp453
I5
aI4
aI500
aasS'f10_22'
p454
(lp455
(lp456
I5
aI3
aI500
aasS'f10_23'
p457
(lp458
(lp459
I5
aI1
aI500
aasS'ID_234_F1_18_F2_7_G_1_SplitPt_172_GenID_0'
p460
(lp461
(lp462
I19
aI1
aI211
aa(lp463
I13
aI166
aI500
aasS'f0_28'
p464
(lp465
(lp466
I8
aI1
aI500
aasS'f19_7'
p467
(lp468
(lp469
I6
aI1
aI499
aasS'f16_4'
p470
(lp471
(lp472
I21
aI1
aI500
aasS'f14_4'
p473
(lp474
(lp475
I4
aI1
aI500
aasS'f13_10'
p476
(lp477
(lp478
I6
aI1
aI500
aasS'f13_11'
p479
(lp480
(lp481
I6
aI1
aI500
aasS'f13_12'
p482
(lp483
(lp484
I6
aI1
aI500
aasS'f13_13'
p485
(lp486
(lp487
I6
aI1
aI500
aasS'f13_23'
p488
(lp489
(lp490
I6
aI1
aI500
aasS'ID_87_F1_17_F2_8_G_0_SplitPt_249_GenID_0'
p491
(lp492
(lp493
I37
aI259
aI352
aa(lp494
I8
aI1
aI294
aasS'f13_16'
p495
(lp496
(lp497
I6
aI1
aI496
aasS'f13_17'
p498
(lp499
(lp500
I6
aI1
aI500
aasS'f13_18'
p501
(lp502
(lp503
I6
aI1
aI500
aasS'f4_15'
p504
(lp505
(lp506
I6
aI1
aI500
aasS'ID_175_F1_0_F2_9_G_0_SplitPt_204_GenID_0'
p507
(lp508
(lp509
I8
aI3
aI266
aa(lp510
I6
aI175
aI495
aasS'f0_24'
p511
(lp512
(lp513
I8
aI2
aI500
aasS'ID_37_F1_17_F2_16_G_0_SplitPt_64_GenID_0'
p514
(lp515
(lp516
I21
aI58
aI496
aasS'f0_25'
p517
(lp518
(lp519
I8
aI1
aI500
aasS'ID_97_F1_13_F2_6_G_4_SplitPt_103_GenID_0'
p520
(lp521
(lp522
I18
aI55
aI500
aa(lp523
I6
aI1
aI147
aasS'ID_54_F1_16_F2_16_G_4_SplitPt_193_GenID_0'
p524
(lp525
(lp526
I25
aI151
aI295
aasS'ID_159_F1_5_F2_17_G_1_SplitPt_227_GenID_0'
p527
(lp528
(lp529
I8
aI3
aI500
aasS'ID_64_F1_14_F2_6_G_4_SplitPt_130_GenID_0'
p530
(lp531
(lp532
I38
aI96
aI130
aa(lp533
I18
aI98
aI500
aasS'f18_24'
p534
(lp535
(lp536
I27
aI5
aI57
aasS'f18_25'
p537
(lp538
(lp539
I19
aI1
aI500
aasS'f18_26'
p540
(lp541
(lp542
I39
aI7
aI95
aa(lp543
I27
aI1
aI58
aasS'f18_27'
p544
(lp545
(lp546
I19
aI1
aI500
aasS'f18_20'
p547
(lp548
(lp549
I19
aI2
aI500
aasS'f18_21'
p550
(lp551
(lp552
I19
aI3
aI500
aasS'f18_22'
p553
(lp554
(lp555
I19
aI1
aI500
aasS'f18_23'
p556
(lp557
(lp558
I19
aI1
aI500
aasS'f18_28'
p559
(lp560
(lp561
I19
aI2
aI500
aasS'f18_29'
p562
(lp563
(lp564
I19
aI1
aI500
aasS'ID_113_F1_4_F2_12_G_2_SplitPt_119_GenID_0'
p565
(lp566
(lp567
I26
aI115
aI162
aa(lp568
I6
aI1
aI136
aasS'f11_18'
p569
(lp570
(lp571
I22
aI3
aI500
aasS'f11_19'
p572
(lp573
(lp574
I22
aI1
aI500
aasS'ID_235_F1_13_F2_9_G_3_SplitPt_105_GenID_0'
p575
(lp576
(lp577
I40
aI107
aI194
aa(lp578
I41
aI52
aI105
aasS'ID_20_F1_5_F2_6_G_4_SplitPt_67_GenID_0'
p579
(lp580
(lp581
I18
aI36
aI500
aa(lp582
I8
aI1
aI103
aasS'f11_12'
p583
(lp584
(lp585
I22
aI1
aI500
aasS'f11_13'
p586
(lp587
(lp588
I22
aI2
aI500
aasS'f11_10'
p589
(lp590
(lp591
I22
aI1
aI500
aasS'f11_11'
p592
(lp593
(lp594
I22
aI1
aI500
aasS'f11_16'
p595
(lp596
(lp597
I22
aI1
aI500
aasS'f11_17'
p598
(lp599
(lp600
I22
aI9
aI500
aasS'f11_14'
p601
(lp602
(lp603
I22
aI1
aI500
aasS'f11_15'
p604
(lp605
(lp606
I22
aI1
aI500
aasS'f9_14'
p607
(lp608
(lp609
I6
aI1
aI499
aasS'f9_15'
p610
(lp611
(lp612
I6
aI1
aI498
aasS'f9_16'
p613
(lp614
(lp615
I6
aI1
aI498
aasS'ID_215_F1_5_F2_8_G_4_SplitPt_93_GenID_0'
p616
(lp617
(lp618
I3
aI62
aI500
aa(lp619
I8
aI1
aI127
aasS'f9_10'
p620
(lp621
(lp622
I42
aI87
aI139
aasS'f9_11'
p623
(lp624
(lp625
I6
aI1
aI500
aasS'f9_12'
p626
(lp627
(lp628
I6
aI1
aI497
aasS'f9_13'
p629
(lp630
(lp631
I6
aI1
aI498
aasS'ID_94_F1_4_F2_9_G_2_SplitPt_190_GenID_0'
p632
(lp633
(lp634
I6
aI6
aI499
aasS'f9_18'
p635
(lp636
(lp637
I6
aI1
aI500
aasS'f9_19'
p638
(lp639
(lp640
I6
aI1
aI492
aasS'f14_21'
p641
(lp642
(lp643
I4
aI3
aI500
aasS'f17_27'
p644
(lp645
(lp646
I8
aI1
aI500
aasS'ID_252_F1_5_F2_13_G_3_SplitPt_101_GenID_0'
p647
(lp648
(lp649
I8
aI1
aI136
aa(lp650
I6
aI37
aI500
aasS'f19_25'
p651
(lp652
(lp653
I6
aI1
aI500
aasS'ID_225_F1_4_F2_3_G_1_SplitPt_136_GenID_0'
p654
(lp655
(lp656
I35
aI142
aI217
aa(lp657
I6
aI1
aI151
aasS'f7_16'
p658
(lp659
(lp660
I13
aI1
aI500
aasS'f7_17'
p661
(lp662
(lp663
I13
aI2
aI499
aasS'f7_14'
p664
(lp665
(lp666
I13
aI1
aI500
aasS'f7_15'
p667
(lp668
(lp669
I13
aI1
aI500
aasS'f7_12'
p670
(lp671
(lp672
I13
aI1
aI500
aasS'f7_13'
p673
(lp674
(lp675
I13
aI1
aI500
aasS'f7_10'
p676
(lp677
(lp678
I13
aI1
aI500
aasS'f7_11'
p679
(lp680
(lp681
I13
aI3
aI500
aasS'f5_10'
p682
(lp683
(lp684
I8
aI1
aI492
aasS'f5_11'
p685
(lp686
(lp687
I8
aI1
aI498
aasS'f5_12'
p688
(lp689
(lp690
I8
aI1
aI494
aasS'f5_13'
p691
(lp692
(lp693
I8
aI1
aI498
aasS'f5_14'
p694
(lp695
(lp696
I8
aI1
aI500
aasS'f5_15'
p697
(lp698
(lp699
I8
aI1
aI499
aasS'f7_18'
p700
(lp701
(lp702
I13
aI2
aI500
aasS'f7_19'
p703
(lp704
(lp705
I13
aI1
aI500
aasS'ID_161_F1_6_F2_17_G_2_SplitPt_224_GenID_0'
p706
(lp707
(lp708
I18
aI1
aI257
aa(lp709
I8
aI199
aI500
aasS'ID_91_F1_12_F2_9_G_1_SplitPt_245_GenID_0'
p710
(lp711
(lp712
I2
aI1
aI285
aa(lp713
I6
aI238
aI498
aasS'ID_83_F1_3_F2_6_G_2_SplitPt_175_GenID_0'
p714
(lp715
(lp716
I7
aI1
aI184
aa(lp717
I18
aI175
aI499
aasS'f0_14'
p718
(lp719
(lp720
I8
aI1
aI500
aasS'ID_80_F1_8_F2_12_G_1_SplitPt_235_GenID_0'
p721
(lp722
(lp723
I2
aI150
aI500
aa(lp724
I3
aI1
aI281
aasS'ID_24_F1_1_F2_5_G_2_SplitPt_86_GenID_0'
p725
(lp726
(lp727
I43
aI1
aI98
aa(lp728
I8
aI46
aI499
aasS'ID_200_F1_19_F2_0_G_2_SplitPt_185_GenID_0'
p729
(lp730
(lp731
I8
aI177
aI500
aa(lp732
I6
aI1
aI334
aasS'ID_170_F1_8_F2_17_G_2_SplitPt_117_GenID_0'
p733
(lp734
(lp735
I3
aI2
aI139
aa(lp736
I8
aI87
aI500
aasS'ID_35_F1_3_F2_8_G_4_SplitPt_140_GenID_0'
p737
(lp738
(lp739
I12
aI141
aI249
aa(lp740
I7
aI1
aI213
aasS'ID_123_F1_15_F2_14_G_4_SplitPt_50_GenID_0'
p741
(lp742
(lp743
I34
aI1
aI50
aa(lp744
I4
aI51
aI500
aasS'f12_30'
p745
(lp746
(lp747
I2
aI1
aI500
aasS'f13_6'
p748
(lp749
(lp750
I6
aI2
aI500
aasS'f9_24'
p751
(lp752
(lp753
I6
aI2
aI499
aasS'ID_186_F1_19_F2_13_G_0_SplitPt_242_GenID_0'
p754
(lp755
(lp756
I6
aI1
aI500
aasS'f5_9'
p757
(lp758
(lp759
I8
aI1
aI500
aasS'f9_7'
p760
(lp761
(lp762
I6
aI1
aI498
aasS'ID_233_F1_14_F2_17_G_3_SplitPt_137_GenID_0'
p763
(lp764
(lp765
I4
aI1
aI137
aa(lp766
I8
aI104
aI500
aasS'ID_38_F1_18_F2_9_G_0_SplitPt_203_GenID_0'
p767
(lp768
(lp769
I19
aI33
aI223
aa(lp770
I6
aI95
aI499
aasS'f9_5'
p771
(lp772
(lp773
I6
aI1
aI500
aasS'f13_15'
p774
(lp775
(lp776
I6
aI1
aI500
aasS'f13_7'
p777
(lp778
(lp779
I6
aI1
aI500
aasS'ID_79_F1_12_F2_6_G_4_SplitPt_231_GenID_0'
p780
(lp781
(lp782
I2
aI1
aI261
aa(lp783
I18
aI232
aI500
aasS'ID_185_F1_18_F2_15_G_0_SplitPt_99_GenID_0'
p784
(lp785
(lp786
I39
aI7
aI95
aa(lp787
I9
aI81
aI500
aasS'ID_41_F1_19_F2_4_G_4_SplitPt_52_GenID_0'
p788
(lp789
(lp790
I6
aI1
aI500
aasS'ID_89_F1_16_F2_18_G_2_SplitPt_137_GenID_0'
p791
(lp792
(lp793
I19
aI102
aI500
aa(lp794
I21
aI1
aI202
aasS'ID_206_F1_14_F2_1_G_4_SplitPt_193_GenID_0'
p795
(lp796
(lp797
I33
aI175
aI500
aa(lp798
I4
aI1
aI238
aasS'ID_30_F1_0_F2_0_G_2_SplitPt_60_GenID_0'
p799
(lp800
(lp801
I8
aI1
aI500
aasS'ID_143_F1_19_F2_14_G_4_SplitPt_95_GenID_0'
p802
(lp803
(lp804
I28
aI102
aI180
aa(lp805
I38
aI96
aI130
aa(lp806
I6
aI1
aI102
aasS'ID_248_F1_14_F2_6_G_1_SplitPt_144_GenID_0'
p807
(lp808
(lp809
I4
aI1
aI177
aa(lp810
I18
aI131
aI500
aasS'f7_4'
p811
(lp812
(lp813
I44
aI119
aI277
aasS'f7_5'
p814
(lp815
(lp816
I44
aI116
aI224
aasS'f7_6'
p817
(lp818
(lp819
I13
aI1
aI498
aasS'f7_7'
p820
(lp821
(lp822
I13
aI1
aI499
aasS'f7_0'
p823
(lp824
(lp825
I13
aI1
aI500
aasS'f7_1'
p826
(lp827
(lp828
I13
aI1
aI500
aasS'f7_2'
p829
(lp830
(lp831
I13
aI1
aI499
aasS'f7_3'
p832
(lp833
(lp834
I13
aI1
aI499
aasS'f7_8'
p835
(lp836
(lp837
I45
aI100
aI169
aasS'f7_9'
p838
(lp839
(lp840
I13
aI1
aI500
aasS'ID_121_F1_2_F2_3_G_1_SplitPt_229_GenID_0'
p841
(lp842
(lp843
I46
aI338
aI499
aa(lp844
I15
aI1
aI277
aasS'ID_203_F1_0_F2_16_G_2_SplitPt_203_GenID_0'
p845
(lp846
(lp847
I21
aI169
aI500
aa(lp848
I8
aI1
aI207
aasS'f13_8'
p849
(lp850
(lp851
I6
aI1
aI499
aasS'ID_39_F1_7_F2_5_G_0_SplitPt_203_GenID_0'
p852
(lp853
(lp854
I13
aI1
aI204
aa(lp855
I8
aI188
aI497
aasS'ID_59_F1_1_F2_13_G_2_SplitPt_224_GenID_0'
p856
(lp857
(lp858
I33
aI1
aI238
aa(lp859
I6
aI166
aI500
aasS'f19_12'
p860
(lp861
(lp862
I47
aI229
aI317
aasS'ID_126_F1_6_F2_5_G_3_SplitPt_149_GenID_0'
p863
(lp864
(lp865
I18
aI1
aI168
aa(lp866
I8
aI102
aI500
aasS'f5_8'
p867
(lp868
(lp869
I8
aI1
aI499
aasS'ID_181_F1_15_F2_15_G_4_SplitPt_87_GenID_0'
p870
(lp871
(lp872
I48
aI365
aI495
aa(lp873
I1
aI2
aI59
aasS'f19_16'
p874
(lp875
(lp876
I6
aI1
aI500
aasS'ID_194_F1_6_F2_0_G_1_SplitPt_229_GenID_0'
p877
(lp878
(lp879
I18
aI1
aI231
aa(lp880
I8
aI165
aI500
aasS'f19_14'
p881
(lp882
(lp883
I6
aI1
aI498
aasS'ID_244_F1_19_F2_14_G_0_SplitPt_199_GenID_0'
p884
(lp885
(lp886
I4
aI165
aI500
aa(lp887
I6
aI1
aI295
aasS'f5_2'
p888
(lp889
(lp890
I8
aI4
aI500
aasS'f5_3'
p891
(lp892
(lp893
I8
aI14
aI500
aasS'f6_31'
p894
(lp895
(lp896
I18
aI1
aI500
aasS'f6_30'
p897
(lp898
(lp899
I18
aI1
aI500
aasS'f5_6'
p900
(lp901
(lp902
I8
aI2
aI499
aasS'f5_7'
p903
(lp904
(lp905
I8
aI1
aI500
aasS'f5_4'
p906
(lp907
(lp908
I8
aI10
aI500
aasS'f5_5'
p909
(lp910
(lp911
I8
aI108
aI500
aasS'ID_231_F1_5_F2_14_G_1_SplitPt_107_GenID_0'
p912
(lp913
(lp914
I4
aI84
aI499
aa(lp915
I8
aI1
aI130
aasS'ID_50_F1_18_F2_4_G_0_SplitPt_170_GenID_0'
p916
(lp917
(lp918
I19
aI16
aI177
aa(lp919
I6
aI170
aI496
aasS'f9_31'
p920
(lp921
(lp922
I6
aI1
aI500
aasS'ID_32_F1_6_F2_19_G_4_SplitPt_225_GenID_0'
p923
(lp924
(lp925
I47
aI229
aI317
aa(lp926
I18
aI1
aI241
aasS'ID_40_F1_12_F2_0_G_2_SplitPt_199_GenID_0'
p927
(lp928
(lp929
I2
aI1
aI207
aa(lp930
I8
aI157
aI500
aasS'f0_9'
p931
(lp932
(lp933
I8
aI1
aI500
aasS'f0_8'
p934
(lp935
(lp936
I8
aI1
aI500
aasS'f5_28'
p937
(lp938
(lp939
I8
aI2
aI500
aasS'ID_142_F1_8_F2_1_G_0_SplitPt_239_GenID_0'
p940
(lp941
(lp942
I49
aI397
aI490
aa(lp943
I3
aI1
aI193
aasS'ID_26_F1_12_F2_0_G_0_SplitPt_156_GenID_0'
p944
(lp945
(lp946
I2
aI2
aI180
aa(lp947
I8
aI85
aI500
aasS'f0_5'
p948
(lp949
(lp950
I8
aI9
aI500
aasS'f9_28'
p951
(lp952
(lp953
I6
aI1
aI498
aasS'f3_0'
p954
(lp955
(lp956
I7
aI8
aI500
aasS'f3_1'
p957
(lp958
(lp959
I7
aI1
aI491
aasS'f3_2'
p960
(lp961
(lp962
I46
aI338
aI463
aasS'ID_199_F1_0_F2_16_G_0_SplitPt_104_GenID_0'
p963
(lp964
(lp965
I21
aI52
aI499
aa(lp966
I8
aI1
aI107
aasS'f3_4'
p967
(lp968
(lp969
I7
aI1
aI500
aasS'f8_23'
p970
(lp971
(lp972
I37
aI259
aI352
aasS'f3_6'
p973
(lp974
(lp975
I50
aI212
aI278
aasS'f3_7'
p976
(lp977
(lp978
I50
aI202
aI273
aasS'f3_8'
p979
(lp980
(lp981
I7
aI1
aI500
aasS'f3_9'
p982
(lp983
(lp984
I46
aI362
aI484
aasS'f8_28'
p985
(lp986
(lp987
I3
aI1
aI500
aasS'f8_29'
p988
(lp989
(lp990
I3
aI2
aI500
aasS'f1_6'
p991
(lp992
(lp993
I43
aI1
aI86
aasS'f1_7'
p994
(lp995
(lp996
I43
aI1
aI86
aasS'f1_4'
p997
(lp998
(lp999
I43
aI1
aI102
aasS'f1_5'
p1000
(lp1001
(lp1002
I43
aI3
aI104
aasS'f1_2'
p1003
(lp1004
(lp1005
I33
aI1
aI499
aasS'f1_3'
p1006
(lp1007
(lp1008
I33
aI1
aI500
aasS'f1_0'
p1009
(lp1010
(lp1011
I33
aI1
aI500
aasS'f1_1'
p1012
(lp1013
(lp1014
I33
aI1
aI500
aasS'ID_182_F1_7_F2_6_G_0_SplitPt_155_GenID_0'
p1015
(lp1016
(lp1017
I18
aI154
aI497
aasS'f1_8'
p1018
(lp1019
(lp1020
I33
aI1
aI500
aasS'f1_9'
p1021
(lp1022
(lp1023
I51
aI2
aI74
aasS'ID_137_F1_8_F2_6_G_4_SplitPt_202_GenID_0'
p1024
(lp1025
(lp1026
I3
aI1
aI211
aa(lp1027
I18
aI87
aI500
aasS'f9_8'
p1028
(lp1029
(lp1030
I6
aI1
aI500
aasS'f9_9'
p1031
(lp1032
(lp1033
I6
aI1
aI500
aasS'f9_6'
p1034
(lp1035
(lp1036
I6
aI2
aI499
aasS'f19_30'
p1037
(lp1038
(lp1039
I6
aI1
aI500
aasS'f9_4'
p1040
(lp1041
(lp1042
I6
aI1
aI500
aasS'ID_127_F1_12_F2_13_G_4_SplitPt_53_GenID_0'
p1043
(lp1044
(lp1045
I41
aI52
aI105
aa(lp1046
I17
aI1
aI53
aasS'f9_2'
p1047
(lp1048
(lp1049
I6
aI1
aI500
aasS'f9_3'
p1050
(lp1051
(lp1052
I6
aI1
aI500
aasS'f9_0'
p1053
(lp1054
(lp1055
I6
aI1
aI500
aasS'f9_1'
p1056
(lp1057
(lp1058
I6
aI1
aI500
aasS'ID_163_F1_9_F2_1_G_3_SplitPt_156_GenID_0'
p1059
(lp1060
(lp1061
I52
aI159
aI200
aa(lp1062
I6
aI1
aI181
aasS'f14_27'
p1063
(lp1064
(lp1065
I4
aI2
aI500
aasS'ID_132_F1_3_F2_10_G_3_SplitPt_193_GenID_0'
p1066
(lp1067
(lp1068
I5
aI160
aI500
aa(lp1069
I7
aI1
aI238
aasS'ID_250_F1_13_F2_9_G_3_SplitPt_233_GenID_0'
p1070
(lp1071
(lp1072
I53
aI182
aI235
aasS'f10_11'
p1073
(lp1074
(lp1075
I5
aI28
aI500
aasS'f9_29'
p1076
(lp1077
(lp1078
I6
aI1
aI500
aasS'f5_1'
p1079
(lp1080
(lp1081
I8
aI2
aI500
aasS'f10_10'
p1082
(lp1083
(lp1084
I5
aI1
aI500
aasS'f9_25'
p1085
(lp1086
(lp1087
I6
aI5
aI499
aasS'ID_70_F1_3_F2_19_G_2_SplitPt_78_GenID_0'
p1088
(lp1089
(lp1090
I7
aI1
aI114
aa(lp1091
I6
aI62
aI500
aasS'f9_27'
p1092
(lp1093
(lp1094
I6
aI1
aI499
aasS'f9_26'
p1095
(lp1096
(lp1097
I6
aI1
aI499
aasS'f9_21'
p1098
(lp1099
(lp1100
I6
aI1
aI500
aasS'f5_23'
p1101
(lp1102
(lp1103
I8
aI1
aI500
aasS'f9_23'
p1104
(lp1105
(lp1106
I6
aI8
aI499
aasS'f9_22'
p1107
(lp1108
(lp1109
I6
aI1
aI499
aasS'f5_21'
p1110
(lp1111
(lp1112
I8
aI1
aI500
aasS'f5_20'
p1113
(lp1114
(lp1115
I8
aI1
aI500
aasS'f6_24'
p1116
(lp1117
(lp1118
I18
aI1
aI499
aasS'f5_22'
p1119
(lp1120
(lp1121
I8
aI1
aI497
aasS'f5_25'
p1122
(lp1123
(lp1124
I8
aI4
aI499
aasS'f5_24'
p1125
(lp1126
(lp1127
I8
aI1
aI499
aasS'f5_27'
p1128
(lp1129
(lp1130
I8
aI1
aI500
aasS'f5_26'
p1131
(lp1132
(lp1133
I8
aI1
aI500
aasS'f5_29'
p1134
(lp1135
(lp1136
I8
aI1
aI499
aasS'ID_213_F1_0_F2_1_G_2_SplitPt_141_GenID_0'
p1137
(lp1138
(lp1139
I33
aI118
aI500
aa(lp1140
I8
aI1
aI150
aasS'ID_4_F1_17_F2_17_G_4_SplitPt_195_GenID_0'
p1141
(lp1142
(lp1143
I8
aI3
aI500
aasS'ID_90_F1_0_F2_13_G_4_SplitPt_111_GenID_0'
p1144
(lp1145
(lp1146
I8
aI1
aI122
aa(lp1147
I6
aI54
aI500
aasS'f10_14'
p1148
(lp1149
(lp1150
I5
aI3
aI500
aasS'f15_30'
p1151
(lp1152
(lp1153
I32
aI375
aI494
aasS'f4_28'
p1154
(lp1155
(lp1156
I36
aI5
aI65
aasS'f4_29'
p1157
(lp1158
(lp1159
I6
aI1
aI499
aasS'f19_1'
p1160
(lp1161
(lp1162
I6
aI1
aI497
aasS'ID_230_F1_14_F2_0_G_2_SplitPt_107_GenID_0'
p1163
(lp1164
(lp1165
I4
aI5
aI107
aa(lp1166
I8
aI60
aI499
aasS'f10_8'
p1167
(lp1168
(lp1169
I5
aI1
aI500
aasS'f4_22'
p1170
(lp1171
(lp1172
I36
aI2
aI67
aasS'f4_23'
p1173
(lp1174
(lp1175
I6
aI1
aI500
aasS'f4_20'
p1176
(lp1177
(lp1178
I6
aI1
aI500
aasS'f4_21'
p1179
(lp1180
(lp1181
I6
aI1
aI500
aasS'f4_26'
p1182
(lp1183
(lp1184
I6
aI2
aI500
aasS'f4_27'
p1185
(lp1186
(lp1187
I6
aI2
aI500
aasS'f4_24'
p1188
(lp1189
(lp1190
I6
aI2
aI500
aasS'f4_25'
p1191
(lp1192
(lp1193
I6
aI1
aI500
aasS'f2_20'
p1194
(lp1195
(lp1196
I15
aI7
aI496
aasS'ID_135_F1_5_F2_2_G_2_SplitPt_133_GenID_0'
p1197
(lp1198
(lp1199
I15
aI123
aI500
aa(lp1200
I8
aI1
aI147
aasS'ID_243_F1_7_F2_0_G_0_SplitPt_53_GenID_0'
p1201
(lp1202
(lp1203
I8
aI56
aI500
aasS'f10_18'
p1204
(lp1205
(lp1206
I54
aI1
aI64
aa(lp1207
I5
aI6
aI496
aasS'f5_16'
p1208
(lp1209
(lp1210
I8
aI1
aI500
aasS'f0_31'
p1211
(lp1212
(lp1213
I55
aI1
aI52
aasS'f0_30'
p1214
(lp1215
(lp1216
I55
aI1
aI50
aasS'f17_30'
p1217
(lp1218
(lp1219
I8
aI1
aI497
aasS'f17_31'
p1220
(lp1221
(lp1222
I8
aI1
aI500
aasS'f4_10'
p1223
(lp1224
(lp1225
I6
aI1
aI500
aasS'ID_173_F1_4_F2_3_G_0_SplitPt_190_GenID_0'
p1226
(lp1227
(lp1228
I6
aI8
aI209
aasS'ID_45_F1_11_F2_1_G_1_SplitPt_168_GenID_0'
p1229
(lp1230
(lp1231
I22
aI3
aI174
aa(lp1232
I33
aI154
aI499
aasS'f5_17'
p1233
(lp1234
(lp1235
I8
aI1
aI496
aasS'f2_27'
p1236
(lp1237
(lp1238
I15
aI1
aI500
aasS'ID_96_F1_9_F2_4_G_4_SplitPt_158_GenID_0'
p1239
(lp1240
(lp1241
I56
aI95
aI145
aasS'ID_6_F1_0_F2_15_G_3_SplitPt_69_GenID_0'
p1242
(lp1243
(lp1244
I48
aI365
aI495
aa(lp1245
I8
aI1
aI85
aasS'ID_193_F1_12_F2_8_G_2_SplitPt_189_GenID_0'
p1246
(lp1247
(lp1248
I2
aI1
aI271
aa(lp1249
I3
aI139
aI500
aasS'ID_46_F1_19_F2_18_G_0_SplitPt_210_GenID_0'
p1250
(lp1251
(lp1252
I19
aI208
aI499
aa(lp1253
I6
aI1
aI289
aasS'ID_133_F1_3_F2_9_G_0_SplitPt_137_GenID_0'
p1254
(lp1255
(lp1256
I7
aI17
aI135
aasS'ID_85_F1_2_F2_18_G_4_SplitPt_119_GenID_0'
p1257
(lp1258
(lp1259
I15
aI1
aI175
aa(lp1260
I19
aI65
aI500
aasS'f1_18'
p1261
(lp1262
(lp1263
I33
aI1
aI500
aasS'f1_19'
p1264
(lp1265
(lp1266
I33
aI2
aI499
aasS'f5_19'
p1267
(lp1268
(lp1269
I8
aI1
aI500
aasS'f1_14'
p1270
(lp1271
(lp1272
I51
aI1
aI72
aasS'f1_15'
p1273
(lp1274
(lp1275
I51
aI1
aI94
aasS'f1_16'
p1276
(lp1277
(lp1278
I33
aI2
aI500
aasS'f1_17'
p1279
(lp1280
(lp1281
I33
aI1
aI500
aasS'f1_10'
p1282
(lp1283
(lp1284
I51
aI3
aI72
aasS'f1_11'
p1285
(lp1286
(lp1287
I51
aI3
aI72
aasS'f1_12'
p1288
(lp1289
(lp1290
I51
aI1
aI129
aasS'f1_13'
p1291
(lp1292
(lp1293
I51
aI1
aI91
aasS'f4_14'
p1294
(lp1295
(lp1296
I6
aI1
aI500
aasS'ID_180_F1_19_F2_1_G_3_SplitPt_250_GenID_0'
p1297
(lp1298
(lp1299
I33
aI222
aI500
aa(lp1300
I6
aI1
aI263
aasS'f10_31'
p1301
(lp1302
(lp1303
I5
aI1
aI498
aasS'f10_30'
p1304
(lp1305
(lp1306
I5
aI1
aI500
aasS'ID_43_F1_10_F2_6_G_4_SplitPt_100_GenID_0'
p1307
(lp1308
(lp1309
I5
aI1
aI128
aa(lp1310
I18
aI89
aI500
aasS'ID_115_F1_13_F2_19_G_2_SplitPt_235_GenID_0'
p1311
(lp1312
(lp1313
I6
aI5
aI500
aasS'ID_18_F1_9_F2_6_G_4_SplitPt_77_GenID_0'
p1314
(lp1315
(lp1316
I18
aI60
aI500
aa(lp1317
I6
aI1
aI82
aasS'f4_11'
p1318
(lp1319
(lp1320
I6
aI1
aI500
aasS'ID_1_F1_18_F2_8_G_0_SplitPt_162_GenID_0'
p1321
(lp1322
(lp1323
I3
aI142
aI500
aasS'ID_129_F1_18_F2_18_G_3_SplitPt_135_GenID_0'
p1324
(lp1325
(lp1326
I19
aI2
aI495
aasS'ID_7_F1_9_F2_8_G_4_SplitPt_119_GenID_0'
p1327
(lp1328
(lp1329
I3
aI73
aI500
aa(lp1330
I6
aI1
aI143
aasS'ID_65_F1_6_F2_9_G_1_SplitPt_118_GenID_0'
p1331
(lp1332
(lp1333
I18
aI9
aI170
aa(lp1334
I6
aI57
aI500
aasS'ID_211_F1_10_F2_3_G_3_SplitPt_64_GenID_0'
p1335
(lp1336
(lp1337
I54
aI1
aI82
aa(lp1338
I7
aI45
aI498
aasS'f3_19'
p1339
(lp1340
(lp1341
I7
aI1
aI500
aasS'ID_223_F1_6_F2_15_G_0_SplitPt_140_GenID_0'
p1342
(lp1343
(lp1344
I11
aI333
aI500
aa(lp1345
I18
aI1
aI139
aasS'f3_12'
p1346
(lp1347
(lp1348
I7
aI12
aI500
aasS'f3_13'
p1349
(lp1350
(lp1351
I7
aI1
aI499
aasS'f3_10'
p1352
(lp1353
(lp1354
I7
aI1
aI500
aasS'f3_11'
p1355
(lp1356
(lp1357
I46
aI349
aI499
aasS'f3_16'
p1358
(lp1359
(lp1360
I7
aI2
aI499
aasS'f19_5'
p1361
(lp1362
(lp1363
I57
aI245
aI371
aasS'f3_14'
p1364
(lp1365
(lp1366
I7
aI1
aI500
aasS'f3_15'
p1367
(lp1368
(lp1369
I7
aI1
aI500
aasS'ID_212_F1_5_F2_1_G_0_SplitPt_157_GenID_0'
p1370
(lp1371
(lp1372
I33
aI121
aI500
aa(lp1373
I8
aI21
aI195
aasS'ID_242_F1_9_F2_11_G_4_SplitPt_82_GenID_0'
p1374
(lp1375
(lp1376
I22
aI39
aI500
aa(lp1377
I6
aI1
aI85
aasS'f12_3'
p1378
(lp1379
(lp1380
I2
aI1
aI500
aasS'f13_9'
p1381
(lp1382
(lp1383
I6
aI1
aI499
aasS'ID_3_F1_2_F2_19_G_0_SplitPt_73_GenID_0'
p1384
(lp1385
(lp1386
I23
aI7
aI63
aa(lp1387
I6
aI34
aI498
aasS'f18_31'
p1388
(lp1389
(lp1390
I19
aI1
aI500
aasS'f18_30'
p1391
(lp1392
(lp1393
I19
aI3
aI500
aasS'f12_1'
p1394
(lp1395
(lp1396
I2
aI2
aI500
aasS'ID_210_F1_19_F2_17_G_1_SplitPt_186_GenID_0'
p1397
(lp1398
(lp1399
I8
aI167
aI499
aa(lp1400
I6
aI1
aI217
aasS'ID_229_F1_13_F2_0_G_1_SplitPt_127_GenID_0'
p1401
(lp1402
(lp1403
I8
aI128
aI499
aa(lp1404
I6
aI3
aI136
aasS'ID_61_F1_9_F2_3_G_2_SplitPt_93_GenID_0'
p1405
(lp1406
(lp1407
I7
aI59
aI500
aa(lp1408
I6
aI1
aI98
aasS'ID_111_F1_17_F2_2_G_4_SplitPt_234_GenID_0'
p1409
(lp1410
(lp1411
I15
aI198
aI500
aa(lp1412
I8
aI1
aI271
aasS'f12_0'
p1413
(lp1414
(lp1415
I2
aI2
aI500
aasS'f6_9'
p1416
(lp1417
(lp1418
I18
aI6
aI500
aasS'f6_8'
p1419
(lp1420
(lp1421
I18
aI2
aI500
aasS'ID_12_F1_16_F2_18_G_0_SplitPt_215_GenID_0'
p1422
(lp1423
(lp1424
I19
aI213
aI500
aa(lp1425
I21
aI3
aI215
aasS'f6_5'
p1426
(lp1427
(lp1428
I18
aI8
aI500
aasS'f6_4'
p1429
(lp1430
(lp1431
I18
aI2
aI500
aasS'f6_7'
p1432
(lp1433
(lp1434
I18
aI1
aI500
aasS'f6_6'
p1435
(lp1436
(lp1437
I18
aI1
aI500
aasS'f6_1'
p1438
(lp1439
(lp1440
I18
aI8
aI500
aasS'f6_0'
p1441
(lp1442
(lp1443
I18
aI2
aI500
aasS'f6_3'
p1444
(lp1445
(lp1446
I18
aI7
aI500
aasS'f6_2'
p1447
(lp1448
(lp1449
I18
aI1
aI500
aasS'f4_3'
p1450
(lp1451
(lp1452
I6
aI1
aI500
aasS'f4_2'
p1453
(lp1454
(lp1455
I6
aI1
aI499
aasS'f17_8'
p1456
(lp1457
(lp1458
I8
aI2
aI500
aasS'f17_9'
p1459
(lp1460
(lp1461
I8
aI1
aI500
aasS'f4_7'
p1462
(lp1463
(lp1464
I6
aI13
aI500
aasS'f4_6'
p1465
(lp1466
(lp1467
I6
aI1
aI500
aasS'f4_5'
p1468
(lp1469
(lp1470
I6
aI4
aI492
aasS'f4_4'
p1471
(lp1472
(lp1473
I6
aI10
aI498
aasS'f17_2'
p1474
(lp1475
(lp1476
I8
aI1
aI500
aasS'f17_3'
p1477
(lp1478
(lp1479
I8
aI1
aI500
aasS'ID_190_F1_2_F2_3_G_3_SplitPt_84_GenID_0'
p1480
(lp1481
(lp1482
I50
aI193
aI278
aa(lp1483
I15
aI1
aI87
aasS'f17_1'
p1484
(lp1485
(lp1486
I8
aI1
aI500
aasS'f17_6'
p1487
(lp1488
(lp1489
I8
aI1
aI500
aasS'f17_7'
p1490
(lp1491
(lp1492
I8
aI1
aI500
aasS'f17_4'
p1493
(lp1494
(lp1495
I8
aI1
aI500
aasS'f17_5'
p1496
(lp1497
(lp1498
I8
aI1
aI500
aasS'ID_154_F1_16_F2_12_G_2_SplitPt_248_GenID_0'
p1499
(lp1500
(lp1501
I25
aI149
aI248
aa(lp1502
I2
aI248
aI498
aasS'f16_11'
p1503
(lp1504
(lp1505
I21
aI5
aI500
aasS'ID_95_F1_9_F2_6_G_0_SplitPt_110_GenID_0'
p1506
(lp1507
(lp1508
I18
aI115
aI500
aa(lp1509
I6
aI1
aI110
aasS'f7_23'
p1510
(lp1511
(lp1512
I13
aI1
aI500
aasS'f7_22'
p1513
(lp1514
(lp1515
I13
aI1
aI500
aasS'f7_21'
p1516
(lp1517
(lp1518
I13
aI2
aI500
aasS'f7_20'
p1519
(lp1520
(lp1521
I13
aI1
aI499
aasS'f7_27'
p1522
(lp1523
(lp1524
I13
aI1
aI500
aasS'f7_26'
p1525
(lp1526
(lp1527
I13
aI1
aI500
aasS'f7_25'
p1528
(lp1529
(lp1530
I13
aI1
aI499
aasS'f7_24'
p1531
(lp1532
(lp1533
I13
aI1
aI499
aasS'ID_155_F1_5_F2_12_G_1_SplitPt_72_GenID_0'
p1534
(lp1535
(lp1536
I2
aI55
aI500
aa(lp1537
I8
aI1
aI72
aasS'f7_29'
p1538
(lp1539
(lp1540
I13
aI1
aI499
aasS'f7_28'
p1541
(lp1542
(lp1543
I13
aI1
aI500
aasS'f8_9'
p1544
(lp1545
(lp1546
I3
aI1
aI500
aasS'f16_16'
p1547
(lp1548
(lp1549
I21
aI1
aI500
aasS'ID_23_F1_9_F2_0_G_0_SplitPt_66_GenID_0'
p1550
(lp1551
(lp1552
I58
aI6
aI66
aa(lp1553
I8
aI59
aI500
aasS'ID_251_F1_16_F2_18_G_3_SplitPt_120_GenID_0'
p1554
(lp1555
(lp1556
I19
aI117
aI500
aa(lp1557
I21
aI1
aI151
aasS'f11_0'
p1558
(lp1559
(lp1560
I22
aI14
aI500
aasS'f11_1'
p1561
(lp1562
(lp1563
I22
aI1
aI500
aasS'f11_2'
p1564
(lp1565
(lp1566
I22
aI13
aI500
aasS'f11_3'
p1567
(lp1568
(lp1569
I22
aI1
aI500
aasS'f11_4'
p1570
(lp1571
(lp1572
I22
aI1
aI500
aasS'f11_5'
p1573
(lp1574
(lp1575
I22
aI1
aI500
aasS'f11_6'
p1576
(lp1577
(lp1578
I22
aI1
aI500
aasS'f11_7'
p1579
(lp1580
(lp1581
I22
aI17
aI500
aasS'f11_8'
p1582
(lp1583
(lp1584
I22
aI1
aI500
aasS'f11_9'
p1585
(lp1586
(lp1587
I22
aI1
aI500
aasS'f2_9'
p1588
(lp1589
(lp1590
I15
aI2
aI500
aasS'f2_8'
p1591
(lp1592
(lp1593
I15
aI1
aI500
aasS'f13_4'
p1594
(lp1595
(lp1596
I6
aI1
aI500
aasS'f13_5'
p1597
(lp1598
(lp1599
I6
aI1
aI497
aasS'f13_2'
p1600
(lp1601
(lp1602
I6
aI1
aI500
aasS'f13_3'
p1603
(lp1604
(lp1605
I6
aI1
aI500
aasS'f13_0'
p1606
(lp1607
(lp1608
I6
aI1
aI499
aasS'f13_1'
p1609
(lp1610
(lp1611
I6
aI1
aI499
aasS'f2_1'
p1612
(lp1613
(lp1614
I15
aI1
aI500
aasS'f2_0'
p1615
(lp1616
(lp1617
I15
aI1
aI500
aasS'f2_3'
p1618
(lp1619
(lp1620
I15
aI1
aI500
aasS'f2_2'
p1621
(lp1622
(lp1623
I15
aI1
aI500
aasS'f2_5'
p1624
(lp1625
(lp1626
I23
aI7
aI62
aasS'f2_4'
p1627
(lp1628
(lp1629
I23
aI7
aI62
aasS'f2_7'
p1630
(lp1631
(lp1632
I15
aI1
aI499
aasS'f2_6'
p1633
(lp1634
(lp1635
I15
aI1
aI499
aasS'f15_4'
p1636
(lp1637
(lp1638
I1
aI1
aI120
aa(lp1639
I9
aI2
aI500
aasS'f15_5'
p1640
(lp1641
(lp1642
I1
aI1
aI86
aa(lp1643
I9
aI5
aI498
aasS'f15_6'
p1644
(lp1645
(lp1646
I1
aI2
aI89
aa(lp1647
I9
aI7
aI499
aasS'f15_7'
p1648
(lp1649
(lp1650
I1
aI1
aI89
aa(lp1651
I9
aI5
aI499
aasS'f15_0'
p1652
(lp1653
(lp1654
I1
aI1
aI98
aa(lp1655
I9
aI69
aI500
aasS'f15_1'
p1656
(lp1657
(lp1658
I32
aI375
aI495
aa(lp1659
I34
aI1
aI50
aasS'f15_2'
p1660
(lp1661
(lp1662
I9
aI67
aI500
aasS'f15_3'
p1663
(lp1664
(lp1665
I9
aI11
aI500
aasS'f0_7'
p1666
(lp1667
(lp1668
I8
aI3
aI500
aasS'f0_6'
p1669
(lp1670
(lp1671
I8
aI4
aI500
aasS'ID_204_F1_0_F2_10_G_4_SplitPt_193_GenID_0'
p1672
(lp1673
(lp1674
I59
aI96
aI193
aa(lp1675
I55
aI1
aI52
aa(lp1676
I5
aI135
aI500
aasS'f0_4'
p1677
(lp1678
(lp1679
I8
aI19
aI500
aasS'f15_8'
p1680
(lp1681
(lp1682
I1
aI1
aI106
aa(lp1683
I9
aI9
aI500
aasS'f15_9'
p1684
(lp1685
(lp1686
I1
aI1
aI106
aa(lp1687
I9
aI2
aI499
aasS'f0_1'
p1688
(lp1689
(lp1690
I8
aI2
aI500
aasS'f0_0'
p1691
(lp1692
(lp1693
I8
aI5
aI500
aasS'ID_141_F1_11_F2_14_G_3_SplitPt_73_GenID_0'
p1694
(lp1695
(lp1696
I20
aI1
aI74
aa(lp1697
I4
aI68
aI500
aasS'f5_18'
p1698
(lp1699
(lp1700
I8
aI1
aI499
aasS'ID_165_F1_14_F2_14_G_2_SplitPt_125_GenID_0'
p1701
(lp1702
(lp1703
I4
aI7
aI500
aasS'ID_177_F1_9_F2_17_G_4_SplitPt_194_GenID_0'
p1704
(lp1705
(lp1706
I40
aI107
aI194
aa(lp1707
I42
aI87
aI139
aa(lp1708
I8
aI136
aI500
aasS'ID_221_F1_7_F2_17_G_4_SplitPt_96_GenID_0'
p1709
(lp1710
(lp1711
I13
aI1
aI122
aa(lp1712
I8
aI57
aI500
aasS'ID_76_F1_7_F2_18_G_0_SplitPt_220_GenID_0'
p1713
(lp1714
(lp1715
I44
aI116
aI262
aa(lp1716
I19
aI169
aI500
aa(lp1717
I13
aI1
aI251
aasS'f14_19'
p1718
(lp1719
(lp1720
I4
aI1
aI500
aasS'ID_151_F1_1_F2_6_G_4_SplitPt_77_GenID_0'
p1721
(lp1722
(lp1723
I51
aI1
aI105
aa(lp1724
I18
aI28
aI500
aasS'ID_106_F1_19_F2_6_G_3_SplitPt_70_GenID_0'
p1725
(lp1726
(lp1727
I18
aI48
aI500
aa(lp1728
I6
aI1
aI136
aasS'f12_31'
p1729
(lp1730
(lp1731
I2
aI1
aI500
aasS'ID_247_F1_18_F2_13_G_2_SplitPt_65_GenID_0'
p1732
(lp1733
(lp1734
I60
aI1
aI65
aa(lp1735
I6
aI59
aI500
aasS'f16_13'
p1736
(lp1737
(lp1738
I61
aI239
aI335
aasS'f16_12'
p1739
(lp1740
(lp1741
I21
aI1
aI500
aasS'ID_49_F1_1_F2_10_G_1_SplitPt_197_GenID_0'
p1742
(lp1743
(lp1744
I5
aI196
aI499
aa(lp1745
I33
aI1
aI274
aasS'f16_10'
p1746
(lp1747
(lp1748
I21
aI8
aI500
aasS'f16_17'
p1749
(lp1750
(lp1751
I62
aI358
aI459
aasS'ID_232_F1_1_F2_14_G_2_SplitPt_224_GenID_0'
p1752
(lp1753
(lp1754
I63
aI118
aI226
aa(lp1755
I33
aI1
aI224
aa(lp1756
I4
aI148
aI500
aasS'f16_15'
p1757
(lp1758
(lp1759
I21
aI13
aI500
aasS'f16_14'
p1760
(lp1761
(lp1762
I21
aI8
aI500
aasS'ID_101_F1_11_F2_16_G_2_SplitPt_146_GenID_0'
p1763
(lp1764
(lp1765
I22
aI2
aI146
aa(lp1766
I21
aI124
aI500
aasS'f16_19'
p1767
(lp1768
(lp1769
I21
aI1
aI497
aasS'f16_18'
p1770
(lp1771
(lp1772
I21
aI1
aI500
aasS'ID_122_F1_9_F2_14_G_2_SplitPt_167_GenID_0'
p1773
(lp1774
(lp1775
I4
aI111
aI500
aa(lp1776
I6
aI1
aI193
aasS'ID_47_F1_12_F2_10_G_3_SplitPt_201_GenID_0'
p1777
(lp1778
(lp1779
I5
aI170
aI500
aa(lp1780
I2
aI1
aI247
aasS'ID_176_F1_4_F2_8_G_2_SplitPt_171_GenID_0'
p1781
(lp1782
(lp1783
I3
aI62
aI500
aa(lp1784
I6
aI1
aI257
aasS'f19_2'
p1785
(lp1786
(lp1787
I6
aI3
aI498
aasS'ID_195_F1_19_F2_17_G_0_SplitPt_236_GenID_0'
p1788
(lp1789
(lp1790
I8
aI194
aI498
aa(lp1791
I6
aI9
aI261
aasS'ID_58_F1_19_F2_14_G_2_SplitPt_141_GenID_0'
p1792
(lp1793
(lp1794
I4
aI102
aI500
aa(lp1795
I6
aI1
aI169
aasS'f6_25'
p1796
(lp1797
(lp1798
I18
aI1
aI499
aasS'f6_26'
p1799
(lp1800
(lp1801
I18
aI2
aI500
aasS'f6_27'
p1802
(lp1803
(lp1804
I18
aI5
aI500
aasS'f6_20'
p1805
(lp1806
(lp1807
I18
aI1
aI500
aasS'f6_21'
p1808
(lp1809
(lp1810
I18
aI1
aI499
aasS'f6_22'
p1811
(lp1812
(lp1813
I18
aI1
aI500
aasS'ID_75_F1_17_F2_11_G_0_SplitPt_153_GenID_0'
p1814
(lp1815
(lp1816
I22
aI105
aI500
aasS'ID_218_F1_4_F2_2_G_2_SplitPt_244_GenID_0'
p1817
(lp1818
(lp1819
I64
aI411
aI487
aa(lp1820
I6
aI1
aI322
aasS'f6_28'
p1821
(lp1822
(lp1823
I18
aI2
aI500
aasS'f6_29'
p1824
(lp1825
(lp1826
I18
aI3
aI500
aasS'f14_11'
p1827
(lp1828
(lp1829
I4
aI2
aI500
aasS'f6_18'
p1830
(lp1831
(lp1832
I18
aI2
aI500
aasS'f1_25'
p1833
(lp1834
(lp1835
I33
aI1
aI499
aasS'f1_24'
p1836
(lp1837
(lp1838
I33
aI1
aI499
aasS'f1_27'
p1839
(lp1840
(lp1841
I33
aI37
aI499
aasS'f1_26'
p1842
(lp1843
(lp1844
I33
aI1
aI499
aasS'f1_21'
p1845
(lp1846
(lp1847
I63
aI118
aI231
aasS'f1_20'
p1848
(lp1849
(lp1850
I33
aI2
aI498
aasS'f1_23'
p1851
(lp1852
(lp1853
I33
aI1
aI500
aasS'f1_22'
p1854
(lp1855
(lp1856
I49
aI396
aI490
aasS'f14_15'
p1857
(lp1858
(lp1859
I4
aI7
aI500
aasS'f14_14'
p1860
(lp1861
(lp1862
I4
aI1
aI494
aasS'f14_17'
p1863
(lp1864
(lp1865
I4
aI1
aI500
aasS'f14_16'
p1866
(lp1867
(lp1868
I4
aI1
aI500
aasS'f1_29'
p1869
(lp1870
(lp1871
I33
aI1
aI500
aasS'f1_28'
p1872
(lp1873
(lp1874
I33
aI1
aI500
aasS'f14_13'
p1875
(lp1876
(lp1877
I4
aI1
aI500
aasS'ID_15_F1_12_F2_4_G_4_SplitPt_142_GenID_0'
p1878
(lp1879
(lp1880
I2
aI1
aI301
aa(lp1881
I6
aI80
aI500
aasS'f19_17'
p1882
(lp1883
(lp1884
I6
aI1
aI499
aasS'ID_160_F1_19_F2_2_G_3_SplitPt_91_GenID_0'
p1885
(lp1886
(lp1887
I15
aI57
aI500
aa(lp1888
I6
aI1
aI106
aasS'f8_25'
p1889
(lp1890
(lp1891
I3
aI2
aI500
aasS'ID_17_F1_14_F2_13_G_3_SplitPt_225_GenID_0'
p1892
(lp1893
(lp1894
I4
aI1
aI253
aa(lp1895
I6
aI220
aI500
aasS'f2_31'
p1896
(lp1897
(lp1898
I15
aI1
aI491
aasS'f2_30'
p1899
(lp1900
(lp1901
I15
aI1
aI498
aasS'f19_4'
p1902
(lp1903
(lp1904
I6
aI1
aI499
aasS'ID_11_F1_0_F2_5_G_0_SplitPt_86_GenID_0'
p1905
(lp1906
(lp1907
I8
aI71
aI500
aasS'f8_8'
p1908
(lp1909
(lp1910
I3
aI1
aI500
aasS'ID_48_F1_17_F2_15_G_3_SplitPt_226_GenID_0'
p1911
(lp1912
(lp1913
I65
aI182
aI233
aasS'ID_71_F1_4_F2_1_G_4_SplitPt_239_GenID_0'
p1914
(lp1915
(lp1916
I33
aI216
aI500
aa(lp1917
I6
aI1
aI293
aasS'ID_254_F1_5_F2_0_G_4_SplitPt_242_GenID_0'
p1918
(lp1919
(lp1920
I8
aI1
aI500
aasS'f13_30'
p1921
(lp1922
(lp1923
I6
aI3
aI496
aasS'f13_31'
p1924
(lp1925
(lp1926
I6
aI1
aI499
aasS'ID_209_F1_7_F2_17_G_2_SplitPt_220_GenID_0'
p1927
(lp1928
(lp1929
I13
aI3
aI234
aa(lp1930
I8
aI220
aI500
aasS'f8_13'
p1931
(lp1932
(lp1933
I3
aI1
aI500
aasS'f8_12'
p1934
(lp1935
(lp1936
I3
aI1
aI500
aasS'f8_11'
p1937
(lp1938
(lp1939
I3
aI3
aI500
aasS'f8_10'
p1940
(lp1941
(lp1942
I3
aI2
aI500
aasS'f8_17'
p1943
(lp1944
(lp1945
I3
aI2
aI500
aasS'f8_16'
p1946
(lp1947
(lp1948
I3
aI1
aI500
aasS'f8_15'
p1949
(lp1950
(lp1951
I3
aI2
aI499
aasS'f8_14'
p1952
(lp1953
(lp1954
I3
aI1
aI500
aasS'f8_19'
p1955
(lp1956
(lp1957
I3
aI2
aI499
aasS'f8_18'
p1958
(lp1959
(lp1960
I3
aI1
aI500
aasS'f19_15'
p1961
(lp1962
(lp1963
I6
aI3
aI498
aasS'ID_134_F1_12_F2_7_G_4_SplitPt_223_GenID_0'
p1964
(lp1965
(lp1966
I13
aI117
aI500
aa(lp1967
I2
aI1
aI274
aasS'ID_140_F1_5_F2_2_G_2_SplitPt_186_GenID_0'
p1968
(lp1969
(lp1970
I66
aI184
aI255
aa(lp1971
I8
aI1
aI219
aasS'ID_228_F1_3_F2_19_G_0_SplitPt_223_GenID_0'
p1972
(lp1973
(lp1974
I7
aI1
aI231
aa(lp1975
I6
aI209
aI499
aasS'ID_27_F1_9_F2_18_G_0_SplitPt_211_GenID_0'
p1976
(lp1977
(lp1978
I19
aI170
aI500
aa(lp1979
I6
aI1
aI245
aasS'ID_9_F1_13_F2_14_G_4_SplitPt_171_GenID_0'
p1980
(lp1981
(lp1982
I4
aI148
aI500
aa(lp1983
I6
aI1
aI204
aasS'f0_17'
p1984
(lp1985
(lp1986
I8
aI1
aI500
aasS'ID_168_F1_11_F2_19_G_4_SplitPt_231_GenID_0'
p1987
(lp1988
(lp1989
I22
aI1
aI346
aa(lp1990
I6
aI163
aI500
aasS'ID_202_F1_11_F2_5_G_3_SplitPt_135_GenID_0'
p1991
(lp1992
(lp1993
I22
aI1
aI209
aa(lp1994
I8
aI121
aI498
aasS'f18_1'
p1995
(lp1996
(lp1997
I19
aI4
aI500
aasS'f18_0'
p1998
(lp1999
(lp2000
I19
aI1
aI495
aasS'f18_3'
p2001
(lp2002
(lp2003
I19
aI2
aI500
aasS'f18_2'
p2004
(lp2005
(lp2006
I19
aI9
aI500
aasS'f18_5'
p2007
(lp2008
(lp2009
I60
aI1
aI65
aasS'f18_4'
p2010
(lp2011
(lp2012
I60
aI1
aI62
aasS'f18_7'
p2013
(lp2014
(lp2015
I60
aI1
aI64
aasS'f18_6'
p2016
(lp2017
(lp2018
I60
aI1
aI64
aasS'f18_9'
p2019
(lp2020
(lp2021
I19
aI3
aI500
aasS'f18_8'
p2022
(lp2023
(lp2024
I19
aI1
aI499
aasS'ID_237_F1_8_F2_11_G_4_SplitPt_100_GenID_0'
p2025
(lp2026
(lp2027
I29
aI382
aI499
aa(lp2028
I3
aI1
aI115
aasS'ID_56_F1_15_F2_14_G_4_SplitPt_103_GenID_0'
p2029
(lp2030
(lp2031
I1
aI1
aI106
aa(lp2032
I4
aI85
aI500
aasS'f14_18'
p2033
(lp2034
(lp2035
I4
aI1
aI500
aasS'ID_77_F1_19_F2_14_G_4_SplitPt_190_GenID_0'
p2036
(lp2037
(lp2038
I4
aI173
aI500
aa(lp2039
I6
aI1
aI295
aasS'f0_16'
p2040
(lp2041
(lp2042
I8
aI2
aI499
aasS'f9_30'
p2043
(lp2044
(lp2045
I58
aI6
aI66
aasS'f8_21'
p2046
(lp2047
(lp2048
I3
aI2
aI500
aasS'f5_30'
p2049
(lp2050
(lp2051
I8
aI1
aI500
aasS'f5_31'
p2052
(lp2053
(lp2054
I8
aI3
aI499
aasS'f19_11'
p2055
(lp2056
(lp2057
I6
aI1
aI499
aasS'ID_171_F1_8_F2_12_G_0_SplitPt_117_GenID_0'
p2058
(lp2059
(lp2060
I2
aI116
aI500
aa(lp2061
I3
aI1
aI185
aasS'ID_108_F1_1_F2_6_G_3_SplitPt_235_GenID_0'
p2062
(lp2063
(lp2064
I33
aI1
aI264
aa(lp2065
I18
aI201
aI499
aasS'f16_28'
p2066
(lp2067
(lp2068
I21
aI1
aI500
aasS'f16_29'
p2069
(lp2070
(lp2071
I21
aI1
aI500
aasS'ID_198_F1_13_F2_16_G_3_SplitPt_238_GenID_0'
p2072
(lp2073
(lp2074
I61
aI239
aI335
aa(lp2075
I6
aI1
aI294
aasS'f14_8'
p2076
(lp2077
(lp2078
I4
aI2
aI500
aasS'f19_18'
p2079
(lp2080
(lp2081
I6
aI1
aI500
aasS'f16_22'
p2082
(lp2083
(lp2084
I21
aI1
aI492
aasS'f16_23'
p2085
(lp2086
(lp2087
I21
aI1
aI500
aasS'f16_20'
p2088
(lp2089
(lp2090
I21
aI1
aI500
aasS'f16_21'
p2091
(lp2092
(lp2093
I62
aI358
aI466
aasS'f16_26'
p2094
(lp2095
(lp2096
I21
aI1
aI500
aasS'f16_27'
p2097
(lp2098
(lp2099
I21
aI1
aI500
aasS'f16_24'
p2100
(lp2101
(lp2102
I21
aI1
aI500
aasS'f14_2'
p2103
(lp2104
(lp2105
I67
aI243
aI372
aasS'f16_3'
p2106
(lp2107
(lp2108
I21
aI1
aI500
aasS'f16_2'
p2109
(lp2110
(lp2111
I21
aI1
aI500
aasS'f16_1'
p2112
(lp2113
(lp2114
I21
aI1
aI500
aasS'f16_0'
p2115
(lp2116
(lp2117
I21
aI2
aI500
aasS'f16_7'
p2118
(lp2119
(lp2120
I21
aI1
aI500
aasS'f16_6'
p2121
(lp2122
(lp2123
I21
aI1
aI500
aasS'f16_5'
p2124
(lp2125
(lp2126
I21
aI1
aI500
aasS'f0_29'
p2127
(lp2128
(lp2129
I55
aI1
aI50
aasS'f0_26'
p2130
(lp2131
(lp2132
I8
aI1
aI500
aasS'f0_27'
p2133
(lp2134
(lp2135
I8
aI1
aI500
aasS'f16_9'
p2136
(lp2137
(lp2138
I21
aI1
aI500
aasS'f16_8'
p2139
(lp2140
(lp2141
I21
aI1
aI500
aasS'f0_22'
p2142
(lp2143
(lp2144
I8
aI1
aI500
aasS'f0_23'
p2145
(lp2146
(lp2147
I8
aI1
aI500
aasS'f0_20'
p2148
(lp2149
(lp2150
I8
aI1
aI500
aasS'f0_21'
p2151
(lp2152
(lp2153
I8
aI1
aI500
aasS'f17_21'
p2154
(lp2155
(lp2156
I68
aI2
aI64
aa(lp2157
I8
aI4
aI500
aasS'f17_20'
p2158
(lp2159
(lp2160
I68
aI2
aI63
aa(lp2161
I8
aI4
aI500
aasS'f17_23'
p2162
(lp2163
(lp2164
I69
aI218
aI329
aa(lp2165
I68
aI2
aI63
aasS'f17_22'
p2166
(lp2167
(lp2168
I68
aI2
aI63
aa(lp2169
I8
aI23
aI500
aasS'f17_25'
p2170
(lp2171
(lp2172
I8
aI1
aI500
aasS'f17_24'
p2173
(lp2174
(lp2175
I8
aI1
aI500
aasS'ID_124_F1_0_F2_11_G_4_SplitPt_106_GenID_0'
p2176
(lp2177
(lp2178
I22
aI62
aI500
aa(lp2179
I8
aI1
aI133
aasS'f17_26'
p2180
(lp2181
(lp2182
I8
aI1
aI500
aasS'f17_29'
p2183
(lp2184
(lp2185
I8
aI1
aI500
aasS'ID_69_F1_1_F2_14_G_3_SplitPt_200_GenID_0'
p2186
(lp2187
(lp2188
I67
aI243
aI372
aa(lp2189
I52
aI146
aI200
aasS'ID_136_F1_17_F2_7_G_1_SplitPt_162_GenID_0'
p2190
(lp2191
(lp2192
I13
aI158
aI500
aa(lp2193
I8
aI1
aI188
aasS'f14_10'
p2194
(lp2195
(lp2196
I4
aI2
aI500
aasS'f14_12'
p2197
(lp2198
(lp2199
I4
aI1
aI498
aasS'ID_119_F1_18_F2_1_G_4_SplitPt_145_GenID_0'
p2200
(lp2201
(lp2202
I52
aI146
aI200
aa(lp2203
I60
aI1
aI65
aasS'ID_138_F1_2_F2_6_G_3_SplitPt_151_GenID_0'
p2204
(lp2205
(lp2206
I15
aI1
aI182
aa(lp2207
I18
aI89
aI500
aasS'ID_246_F1_13_F2_7_G_1_SplitPt_173_GenID_0'
p2208
(lp2209
(lp2210
I13
aI163
aI500
aa(lp2211
I6
aI5
aI172
aasS'ID_72_F1_9_F2_16_G_3_SplitPt_171_GenID_0'
p2212
(lp2213
(lp2214
I21
aI151
aI499
aa(lp2215
I6
aI1
aI333
aasS'ID_68_F1_1_F2_2_G_2_SplitPt_54_GenID_0'
p2216
(lp2217
(lp2218
I15
aI43
aI499
aasS'ID_57_F1_17_F2_13_G_4_SplitPt_179_GenID_0'
p2219
(lp2220
(lp2221
I53
aI182
aI235
aa(lp2222
I8
aI1
aI217
aasS'f10_9'
p2223
(lp2224
(lp2225
I5
aI1
aI500
aasS'f15_31'
p2226
(lp2227
(lp2228
I9
aI1
aI500
aasS'ID_5_F1_17_F2_1_G_2_SplitPt_217_GenID_0'
p2229
(lp2230
(lp2231
I33
aI201
aI500
aa(lp2232
I8
aI1
aI264
aasS'f10_1'
p2233
(lp2234
(lp2235
I5
aI6
aI500
aasS'f10_0'
p2236
(lp2237
(lp2238
I5
aI1
aI500
aasS'f10_3'
p2239
(lp2240
(lp2241
I5
aI1
aI500
aasS'f10_2'
p2242
(lp2243
(lp2244
I5
aI4
aI500
aasS'f10_5'
p2245
(lp2246
(lp2247
I5
aI1
aI500
aasS'f10_4'
p2248
(lp2249
(lp2250
I5
aI1
aI500
aasS'f10_7'
p2251
(lp2252
(lp2253
I5
aI1
aI500
aasS'f10_6'
p2254
(lp2255
(lp2256
I5
aI1
aI500
aasS'f4_17'
p2257
(lp2258
(lp2259
I36
aI1
aI66
aasS'f4_16'
p2260
(lp2261
(lp2262
I36
aI1
aI66
aasS'ID_162_F1_5_F2_13_G_2_SplitPt_105_GenID_0'
p2263
(lp2264
(lp2265
I8
aI1
aI226
aa(lp2266
I6
aI43
aI500
aasS'ID_130_F1_7_F2_17_G_4_SplitPt_183_GenID_0'
p2267
(lp2268
(lp2269
I65
aI182
aI233
aa(lp2270
I69
aI187
aI329
aasS'f4_13'
p2271
(lp2272
(lp2273
I6
aI1
aI499
aasS'f4_12'
p2274
(lp2275
(lp2276
I6
aI1
aI500
aasS'f12_9'
p2277
(lp2278
(lp2279
I2
aI1
aI500
aasS'f12_8'
p2280
(lp2281
(lp2282
I2
aI1
aI500
aasS'f12_7'
p2283
(lp2284
(lp2285
I17
aI1
aI53
aasS'f12_6'
p2286
(lp2287
(lp2288
I17
aI1
aI53
aasS'f12_5'
p2289
(lp2290
(lp2291
I17
aI1
aI53
aasS'f12_4'
p2292
(lp2293
(lp2294
I17
aI3
aI52
aasS'ID_33_F1_0_F2_11_G_2_SplitPt_51_GenID_0'
p2295
(lp2296
(lp2297
I55
aI1
aI52
aa(lp2298
I22
aI45
aI500
aasS'f12_2'
p2299
(lp2300
(lp2301
I2
aI1
aI500
aasS'f4_19'
p2302
(lp2303
(lp2304
I36
aI1
aI67
aasS'ID_92_F1_16_F2_7_G_1_SplitPt_92_GenID_0'
p2305
(lp2306
(lp2307
I21
aI1
aI146
aa(lp2308
I13
aI94
aI499
aasS'f3_27'
p2309
(lp2310
(lp2311
I7
aI1
aI500
aasS'f3_26'
p2312
(lp2313
(lp2314
I7
aI1
aI500
aasS'f3_25'
p2315
(lp2316
(lp2317
I7
aI1
aI499
aasS'f3_24'
p2318
(lp2319
(lp2320
I7
aI1
aI499
aasS'f3_23'
p2321
(lp2322
(lp2323
I7
aI1
aI500
aasS'f3_22'
p2324
(lp2325
(lp2326
I7
aI1
aI500
aasS'f3_21'
p2327
(lp2328
(lp2329
I7
aI1
aI500
aasS'f3_20'
p2330
(lp2331
(lp2332
I7
aI3
aI500
aasS'ID_117_F1_19_F2_4_G_3_SplitPt_149_GenID_0'
p2333
(lp2334
(lp2335
I6
aI1
aI500
aasS'ID_226_F1_0_F2_7_G_3_SplitPt_183_GenID_0'
p2336
(lp2337
(lp2338
I70
aI141
aI183
aa(lp2339
I13
aI151
aI500
aasS'f3_29'
p2340
(lp2341
(lp2342
I7
aI1
aI500
aasS'f3_28'
p2343
(lp2344
(lp2345
I7
aI1
aI500
aasS'f6_19'
p2346
(lp2347
(lp2348
I18
aI3
aI500
aasS'ID_187_F1_14_F2_3_G_0_SplitPt_195_GenID_0'
p2349
(lp2350
(lp2351
I7
aI195
aI500
aa(lp2352
I4
aI1
aI263
aasS'f13_22'
p2353
(lp2354
(lp2355
I6
aI1
aI500
aasS'f6_15'
p2356
(lp2357
(lp2358
I18
aI1
aI500
aasS'f6_14'
p2359
(lp2360
(lp2361
I18
aI1
aI500
aasS'f6_17'
p2362
(lp2363
(lp2364
I18
aI1
aI500
aasS'f6_16'
p2365
(lp2366
(lp2367
I18
aI2
aI500
aasS'f6_11'
p2368
(lp2369
(lp2370
I18
aI1
aI500
aasS'f6_10'
p2371
(lp2372
(lp2373
I18
aI1
aI500
aasS'f6_13'
p2374
(lp2375
(lp2376
I18
aI3
aI500
aasS'f6_12'
p2377
(lp2378
(lp2379
I18
aI1
aI499
aasS'f4_18'
p2380
(lp2381
(lp2382
I6
aI1
aI499
aasS'ID_167_F1_4_F2_4_G_2_SplitPt_234_GenID_0'
p2383
(lp2384
(lp2385
I6
aI1
aI500
aasS'ID_249_F1_8_F2_5_G_0_SplitPt_77_GenID_0'
p2386
(lp2387
(lp2388
I8
aI15
aI499
aasS'f12_15'
p2389
(lp2390
(lp2391
I2
aI1
aI500
aasS'f4_30'
p2392
(lp2393
(lp2394
I6
aI1
aI499
aasS'ID_239_F1_3_F2_19_G_4_SplitPt_142_GenID_0'
p2395
(lp2396
(lp2397
I7
aI1
aI200
aa(lp2398
I6
aI44
aI500
aasS'ID_222_F1_5_F2_0_G_4_SplitPt_92_GenID_0'
p2399
(lp2400
(lp2401
I59
aI96
aI193
aasS'ID_192_F1_0_F2_15_G_1_SplitPt_162_GenID_0'
p2402
(lp2403
(lp2404
I9
aI131
aI500
aa(lp2405
I8
aI1
aI165
aasS'f19_23'
p2406
(lp2407
(lp2408
I6
aI1
aI500
aasS'f9_20'
p2409
(lp2410
(lp2411
I6
aI1
aI498
aasS'ID_25_F1_2_F2_0_G_1_SplitPt_152_GenID_0'
p2412
(lp2413
(lp2414
I15
aI1
aI202
aa(lp2415
I8
aI140
aI500
aasS'f7_30'
p2416
(lp2417
(lp2418
I13
aI2
aI500
aasS'ID_74_F1_3_F2_11_G_2_SplitPt_208_GenID_0'
p2419
(lp2420
(lp2421
I29
aI370
aI500
aa(lp2422
I7
aI2
aI211
aasS'ID_227_F1_10_F2_6_G_1_SplitPt_124_GenID_0'
p2423
(lp2424
(lp2425
I5
aI1
aI152
aa(lp2426
I18
aI125
aI499
aasS'ID_217_F1_4_F2_12_G_2_SplitPt_81_GenID_0'
p2427
(lp2428
(lp2429
I2
aI79
aI499
aa(lp2430
I6
aI2
aI151
aasS'f12_17'
p2431
(lp2432
(lp2433
I2
aI1
aI500
aasS'f12_16'
p2434
(lp2435
(lp2436
I2
aI1
aI500
aasS'ID_128_F1_18_F2_5_G_0_SplitPt_232_GenID_0'
p2437
(lp2438
(lp2439
I19
aI6
aI242
aa(lp2440
I8
aI233
aI497
aasS'f12_14'
p2441
(lp2442
(lp2443
I2
aI1
aI500
aasS'f12_13'
p2444
(lp2445
(lp2446
I2
aI1
aI500
aasS'f12_12'
p2447
(lp2448
(lp2449
I17
aI1
aI53
aasS'f12_11'
p2450
(lp2451
(lp2452
I71
aI326
aI458
aasS'f12_10'
p2453
(lp2454
(lp2455
I2
aI1
aI500
aasS'ID_22_F1_10_F2_13_G_1_SplitPt_204_GenID_0'
p2456
(lp2457
(lp2458
I5
aI1
aI235
aa(lp2459
I6
aI155
aI500
aasS'f12_19'
p2460
(lp2461
(lp2462
I2
aI2
aI500
aasS'f12_18'
p2463
(lp2464
(lp2465
I2
aI1
aI500
aasS'ID_99_F1_3_F2_1_G_0_SplitPt_94_GenID_0'
p2466
(lp2467
(lp2468
I33
aI59
aI500
aa(lp2469
I7
aI1
aI94
aasS'ID_201_F1_19_F2_4_G_3_SplitPt_168_GenID_0'
p2470
(lp2471
(lp2472
I6
aI1
aI500
aasS'ID_8_F1_8_F2_4_G_0_SplitPt_97_GenID_0'
p2473
(lp2474
(lp2475
I3
aI1
aI127
aa(lp2476
I6
aI80
aI500
aasS'ID_214_F1_9_F2_16_G_1_SplitPt_135_GenID_0'
p2477
(lp2478
(lp2479
I21
aI89
aI500
aa(lp2480
I6
aI1
aI182
aasS'f4_9'
p2481
(lp2482
(lp2483
I6
aI1
aI499
aasS'f11_30'
p2484
(lp2485
(lp2486
I20
aI1
aI72
aa(lp2487
I29
aI376
aI500
aasS'f11_31'
p2488
(lp2489
(lp2490
I20
aI1
aI72
aasS'ID_63_F1_8_F2_14_G_0_SplitPt_169_GenID_0'
p2491
(lp2492
(lp2493
I3
aI2
aI307
aa(lp2494
I4
aI80
aI500
aasS'ID_105_F1_0_F2_5_G_3_SplitPt_122_GenID_0'
p2495
(lp2496
(lp2497
I8
aI1
aI500
aasS'ID_116_F1_3_F2_8_G_0_SplitPt_177_GenID_0'
p2498
(lp2499
(lp2500
I7
aI2
aI219
aa(lp2501
I3
aI151
aI500
aasS'ID_81_F1_18_F2_14_G_4_SplitPt_175_GenID_0'
p2502
(lp2503
(lp2504
I19
aI1
aI229
aa(lp2505
I4
aI114
aI500
aasS'ID_207_F1_9_F2_18_G_1_SplitPt_164_GenID_0'
p2506
(lp2507
(lp2508
I19
aI142
aI500
aa(lp2509
I6
aI1
aI181
aasS'ID_144_F1_10_F2_6_G_1_SplitPt_209_GenID_0'
p2510
(lp2511
(lp2512
I5
aI1
aI227
aa(lp2513
I18
aI209
aI500
aasS'ID_29_F1_8_F2_10_G_0_SplitPt_147_GenID_0'
p2514
(lp2515
(lp2516
I5
aI142
aI498
aa(lp2517
I3
aI9
aI218
aasS'ID_253_F1_5_F2_19_G_1_SplitPt_159_GenID_0'
p2518
(lp2519
(lp2520
I31
aI163
aI218
aa(lp2521
I8
aI2
aI184
aasS'ID_153_F1_13_F2_14_G_1_SplitPt_176_GenID_0'
p2522
(lp2523
(lp2524
I4
aI166
aI500
aa(lp2525
I6
aI1
aI178
aasS'ID_131_F1_19_F2_19_G_4_SplitPt_175_GenID_0'
p2526
(lp2527
(lp2528
I6
aI1
aI500
aasS'ID_36_F1_19_F2_0_G_1_SplitPt_153_GenID_0'
p2529
(lp2530
(lp2531
I8
aI59
aI500
aa(lp2532
I6
aI1
aI166
aasS'f19_8'
p2533
(lp2534
(lp2535
I6
aI1
aI499
aasS'f19_0'
p2536
(lp2537
(lp2538
I6
aI1
aI500
aasS'f19_9'
p2539
(lp2540
(lp2541
I6
aI1
aI499
aasS'f14_9'
p2542
(lp2543
(lp2544
I4
aI4
aI500
aasS'f3_18'
p2545
(lp2546
(lp2547
I30
aI277
aI398
aasS'f7_31'
p2548
(lp2549
(lp2550
I13
aI1
aI500
aasS'f0_18'
p2551
(lp2552
(lp2553
I8
aI9
aI500
aasS'ID_21_F1_6_F2_0_G_3_SplitPt_233_GenID_0'
p2554
(lp2555
(lp2556
I72
aI169
aI235
aa(lp2557
I8
aI229
aI500
aasS'ID_255_F1_1_F2_17_G_3_SplitPt_96_GenID_0'
p2558
(lp2559
(lp2560
I33
aI1
aI98
aa(lp2561
I8
aI51
aI499
aasS'f13_19'
p2562
(lp2563
(lp2564
I6
aI1
aI500
aasS'f18_19'
p2565
(lp2566
(lp2567
I19
aI1
aI500
aasS'f18_18'
p2568
(lp2569
(lp2570
I19
aI2
aI500
aasS'ID_238_F1_4_F2_19_G_2_SplitPt_235_GenID_0'
p2571
(lp2572
(lp2573
I6
aI6
aI500
aasS'f18_11'
p2574
(lp2575
(lp2576
I19
aI1
aI500
aasS'f18_10'
p2577
(lp2578
(lp2579
I19
aI1
aI500
aasS'f18_13'
p2580
(lp2581
(lp2582
I19
aI1
aI498
aasS'f18_12'
p2583
(lp2584
(lp2585
I19
aI1
aI499
aasS'f18_15'
p2586
(lp2587
(lp2588
I19
aI5
aI499
aasS'f18_14'
p2589
(lp2590
(lp2591
I19
aI5
aI498
aasS'f18_17'
p2592
(lp2593
(lp2594
I19
aI1
aI500
aasS'f18_16'
p2595
(lp2596
(lp2597
I19
aI2
aI500
aasS'ID_150_F1_14_F2_19_G_1_SplitPt_132_GenID_0'
p2598
(lp2599
(lp2600
I4
aI6
aI130
aa(lp2601
I6
aI135
aI500
aasS'f0_13'
p2602
(lp2603
(lp2604
I8
aI2
aI500
aasS'ID_191_F1_12_F2_4_G_2_SplitPt_211_GenID_0'
p2605
(lp2606
(lp2607
I2
aI1
aI301
aa(lp2608
I6
aI122
aI500
aasS'f0_12'
p2609
(lp2610
(lp2611
I8
aI1
aI500
aasS'ID_114_F1_8_F2_5_G_1_SplitPt_142_GenID_0'
p2612
(lp2613
(lp2614
I3
aI2
aI213
aa(lp2615
I8
aI131
aI500
aasS'ID_112_F1_6_F2_19_G_0_SplitPt_65_GenID_0'
p2616
(lp2617
(lp2618
I6
aI35
aI500
aasS'f0_11'
p2619
(lp2620
(lp2621
I8
aI1
aI500
aasS'ID_104_F1_4_F2_8_G_1_SplitPt_238_GenID_0'
p2622
(lp2623
(lp2624
I3
aI62
aI500
aa(lp2625
I6
aI1
aI287
aasS'f14_28'
p2626
(lp2627
(lp2628
I4
aI1
aI500
aasS'f14_29'
p2629
(lp2630
(lp2631
I4
aI2
aI500
aasS'f0_10'
p2632
(lp2633
(lp2634
I8
aI2
aI500
aasS'ID_93_F1_16_F2_1_G_0_SplitPt_101_GenID_0'
p2635
(lp2636
(lp2637
I33
aI72
aI499
aasS'f1_30'
p2638
(lp2639
(lp2640
I33
aI1
aI498
aasS'f1_31'
p2641
(lp2642
(lp2643
I33
aI1
aI486
aasS'f14_20'
p2644
(lp2645
(lp2646
I4
aI5
aI500
aasS'f12_22'
p2647
(lp2648
(lp2649
I2
aI1
aI500
aasS'f14_22'
p2650
(lp2651
(lp2652
I4
aI9
aI500
aasS'f14_23'
p2653
(lp2654
(lp2655
I4
aI5
aI500
aasS'f14_24'
p2656
(lp2657
(lp2658
I4
aI1
aI500
aasS'f14_25'
p2659
(lp2660
(lp2661
I4
aI3
aI499
aasS'f14_26'
p2662
(lp2663
(lp2664
I4
aI1
aI500
aasS'f3_17'
p2665
(lp2666
(lp2667
I7
aI2
aI500
aasS'f2_28'
p2668
(lp2669
(lp2670
I15
aI1
aI495
aasS'f2_29'
p2671
(lp2672
(lp2673
I15
aI1
aI498
aasS'f10_13'
p2674
(lp2675
(lp2676
I5
aI1
aI500
aasS'f10_12'
p2677
(lp2678
(lp2679
I5
aI3
aI500
aasS'f10_15'
p2680
(lp2681
(lp2682
I5
aI4
aI499
aasS'ID_10_F1_2_F2_19_G_2_SplitPt_243_GenID_0'
p2683
(lp2684
(lp2685
I57
aI245
aI371
aa(lp2686
I66
aI184
aI255
aasS'f10_17'
p2687
(lp2688
(lp2689
I54
aI5
aI63
aasS'f10_16'
p2690
(lp2691
(lp2692
I54
aI1
aI78
aasS'f10_19'
p2693
(lp2694
(lp2695
I54
aI1
aI64
aa(lp2696
I5
aI5
aI500
aasS'f2_21'
p2697
(lp2698
(lp2699
I15
aI2
aI498
aasS'f2_22'
p2700
(lp2701
(lp2702
I15
aI2
aI500
aasS'f2_23'
p2703
(lp2704
(lp2705
I15
aI1
aI500
aasS'f2_24'
p2706
(lp2707
(lp2708
I15
aI8
aI500
aasS'f2_25'
p2709
(lp2710
(lp2711
I15
aI2
aI495
aasS'f2_26'
p2712
(lp2713
(lp2714
I15
aI1
aI500
aasS'ID_125_F1_6_F2_18_G_4_SplitPt_125_GenID_0'
p2715
(lp2716
(lp2717
I19
aI69
aI500
aa(lp2718
I18
aI1
aI161
aasS'ID_100_F1_16_F2_2_G_3_SplitPt_60_GenID_0'
p2719
(lp2720
(lp2721
I64
aI411
aI487
aa(lp2722
I21
aI1
aI87
aasS'ID_219_F1_18_F2_4_G_1_SplitPt_231_GenID_0'
p2723
(lp2724
(lp2725
I19
aI1
aI262
aa(lp2726
I6
aI234
aI500
aasS'ID_118_F1_8_F2_7_G_0_SplitPt_143_GenID_0'
p2727
(lp2728
(lp2729
I24
aI77
aI134
aa(lp2730
I13
aI97
aI500
aasS'ID_196_F1_17_F2_13_G_2_SplitPt_63_GenID_0'
p2731
(lp2732
(lp2733
I68
aI2
aI64
aa(lp2734
I6
aI36
aI500
aasS'f6_23'
p2735
(lp2736
(lp2737
I18
aI1
aI500
aasS'ID_205_F1_9_F2_11_G_3_SplitPt_91_GenID_0'
p2738
(lp2739
(lp2740
I22
aI74
aI500
aa(lp2741
I6
aI1
aI97
aasS'f13_25'
p2742
(lp2743
(lp2744
I6
aI43
aI500
aasS'f13_24'
p2745
(lp2746
(lp2747
I73
aI238
aI296
aasS'f13_27'
p2748
(lp2749
(lp2750
I6
aI2
aI500
aasS'f13_26'
p2751
(lp2752
(lp2753
I6
aI1
aI500
aasS'f13_21'
p2754
(lp2755
(lp2756
I6
aI3
aI500
aasS'f13_20'
p2757
(lp2758
(lp2759
I6
aI1
aI500
aasS'ID_14_F1_19_F2_12_G_1_SplitPt_223_GenID_0'
p2760
(lp2761
(lp2762
I2
aI167
aI500
aa(lp2763
I6
aI1
aI305
aasS'f13_14'
p2764
(lp2765
(lp2766
I6
aI1
aI500
aasS'ID_19_F1_11_F2_5_G_1_SplitPt_176_GenID_0'
p2767
(lp2768
(lp2769
I22
aI1
aI318
aa(lp2770
I8
aI123
aI500
aasS'f13_29'
p2771
(lp2772
(lp2773
I6
aI2
aI500
aasS'f13_28'
p2774
(lp2775
(lp2776
I6
aI3
aI500
aasS'ID_236_F1_6_F2_6_G_0_SplitPt_228_GenID_0'
p2777
(lp2778
(lp2779
I18
aI41
aI499
aasS'ID_184_F1_0_F2_15_G_0_SplitPt_72_GenID_0'
p2780
(lp2781
(lp2782
I10
aI142
aI244
aasS'ID_220_F1_5_F2_16_G_2_SplitPt_104_GenID_0'
p2783
(lp2784
(lp2785
I62
aI358
aI466
aa(lp2786
I8
aI2
aI138
aasS'f4_0'
p2787
(lp2788
(lp2789
I6
aI3
aI500
aasS'ID_145_F1_8_F2_19_G_3_SplitPt_249_GenID_0'
p2790
(lp2791
(lp2792
I14
aI133
aI274
aa(lp2793
I6
aI245
aI500
aasS'ID_169_F1_7_F2_8_G_4_SplitPt_168_GenID_0'
p2794
(lp2795
(lp2796
I13
aI1
aI221
aa(lp2797
I3
aI46
aI500
aasS'ID_240_F1_10_F2_19_G_4_SplitPt_227_GenID_0'
p2798
(lp2799
(lp2800
I5
aI1
aI269
aa(lp2801
I6
aI218
aI500
aasS'f17_11'
p2802
(lp2803
(lp2804
I8
aI2
aI500
aasS'ID_157_F1_7_F2_10_G_3_SplitPt_239_GenID_0'
p2805
(lp2806
(lp2807
I45
aI100
aI169
aa(lp2808
I5
aI189
aI500
aasS'ID_103_F1_19_F2_15_G_0_SplitPt_165_GenID_0'
p2809
(lp2810
(lp2811
I9
aI123
aI500
aa(lp2812
I6
aI2
aI178
aasS'ID_166_F1_16_F2_14_G_4_SplitPt_50_GenID_0'
p2813
(lp2814
(lp2815
I21
aI1
aI76
aa(lp2816
I4
aI30
aI500
aasS'ID_208_F1_12_F2_12_G_2_SplitPt_123_GenID_0'
p2817
(lp2818
(lp2819
I2
aI1
aI500
aasS'f19_3'
p2820
(lp2821
(lp2822
I6
aI1
aI500
aasS'ID_216_F1_16_F2_0_G_3_SplitPt_237_GenID_0'
p2823
(lp2824
(lp2825
I21
aI1
aI251
aa(lp2826
I8
aI235
aI500
aasS'f19_13'
p2827
(lp2828
(lp2829
I6
aI1
aI500
aasS'f16_31'
p2830
(lp2831
(lp2832
I21
aI1
aI500
aasS'f16_30'
p2833
(lp2834
(lp2835
I21
aI1
aI500
aasS'f19_10'
p2836
(lp2837
(lp2838
I6
aI1
aI499
aasS'f0_19'
p2839
(lp2840
(lp2841
I8
aI2
aI500
aasS'ID_13_F1_4_F2_2_G_3_SplitPt_149_GenID_0'
p2842
(lp2843
(lp2844
I15
aI142
aI500
aa(lp2845
I6
aI1
aI152
aasS'f12_28'
p2846
(lp2847
(lp2848
I2
aI1
aI500
aasS'f12_29'
p2849
(lp2850
(lp2851
I2
aI1
aI500
aasS'f12_26'
p2852
(lp2853
(lp2854
I2
aI1
aI500
aasS'f12_27'
p2855
(lp2856
(lp2857
I2
aI1
aI500
aasS'f12_24'
p2858
(lp2859
(lp2860
I2
aI1
aI500
aasS'f12_25'
p2861
(lp2862
(lp2863
I71
aI326
aI458
aasS'ID_31_F1_2_F2_13_G_2_SplitPt_57_GenID_0'
p2864
(lp2865
(lp2866
I73
aI238
aI296
aa(lp2867
I15
aI1
aI83
aasS'f12_23'
p2868
(lp2869
(lp2870
I2
aI1
aI499
aasS'ID_52_F1_0_F2_9_G_1_SplitPt_82_GenID_0'
p2871
(lp2872
(lp2873
I16
aI249
aI352
aa(lp2874
I56
aI95
aI146
aa(lp2875
I8
aI1
aI88
aasS'f12_21'
p2876
(lp2877
(lp2878
I2
aI1
aI499
aasS'ID_179_F1_1_F2_1_G_0_SplitPt_99_GenID_0'
p2879
(lp2880
(lp2881
I51
aI1
aI95
aasS'f17_18'
p2882
(lp2883
(lp2884
I8
aI4
aI500
aasS'f17_19'
p2885
(lp2886
(lp2887
I69
aI187
aI319
aasS'ID_98_F1_19_F2_0_G_3_SplitPt_140_GenID_0'
p2888
(lp2889
(lp2890
I70
aI141
aI183
aa(lp2891
I6
aI1
aI157
aasS'ID_224_F1_7_F2_6_G_2_SplitPt_203_GenID_0'
p2892
(lp2893
(lp2894
I13
aI1
aI203
aa(lp2895
I18
aI129
aI500
aasS'f17_14'
p2896
(lp2897
(lp2898
I8
aI2
aI500
aasS'f17_15'
p2899
(lp2900
(lp2901
I8
aI1
aI500
aasS'f17_16'
p2902
(lp2903
(lp2904
I8
aI20
aI496
aasS'f17_17'
p2905
(lp2906
(lp2907
I8
aI31
aI499
aasS'f17_10'
p2908
(lp2909
(lp2910
I8
aI1
aI500
aasS'ID_174_F1_11_F2_6_G_4_SplitPt_174_GenID_0'
p2911
(lp2912
(lp2913
I72
aI169
aI235
aa(lp2914
I22
aI1
aI175
aasS'f17_12'
p2915
(lp2916
(lp2917
I8
aI1
aI500
aasS'f17_13'
p2918
(lp2919
(lp2920
I8
aI1
aI500
aasS'f14_0'
p2921
(lp2922
(lp2923
I4
aI1
aI500
aasS'ID_16_F1_5_F2_17_G_4_SplitPt_151_GenID_0'
p2924
(lp2925
(lp2926
I8
aI1
aI500
aasS'f5_0'
p2927
(lp2928
(lp2929
I8
aI2
aI500
aas.