(dp1
S'f5_1'
p2
(lp3
(lp4
I1
aI46
aI219
aa(lp5
I2
aI1
aI128
aasS'f14_31'
p6
(lp7
(lp8
I3
aI50
aI500
aasS'f17_24'
p9
(lp10
(lp11
I4
aI117
aI497
aasS'f5_7'
p12
(lp13
(lp14
I5
aI319
aI494
aasS'ID_341_F1_1_F2_18_G_2_SplitPt_181_GenID_0'
p15
(lp16
(lp17
I6
aI1
aI324
aasS'ID_25_F1_13_F2_7_G_4_SplitPt_194_GenID_0'
p18
(lp19
(lp20
I7
aI1
aI242
aa(lp21
I8
aI180
aI500
aasS'f15_29'
p22
(lp23
(lp24
I9
aI3
aI249
aa(lp25
I10
aI107
aI500
aasS'f15_28'
p26
(lp27
(lp28
I9
aI1
aI249
aa(lp29
I10
aI96
aI500
aasS'f15_27'
p30
(lp31
(lp32
I11
aI1
aI85
aa(lp33
I12
aI99
aI500
aasS'f15_26'
p34
(lp35
(lp36
I11
aI1
aI97
aa(lp37
I12
aI99
aI500
aasS'f15_25'
p38
(lp39
(lp40
I12
aI107
aI500
aasS'f15_24'
p41
(lp42
(lp43
I12
aI126
aI500
aasS'ID_489_F1_19_F2_14_G_4_SplitPt_102_GenID_0'
p44
(lp45
(lp46
I13
aI1
aI114
aa(lp47
I14
aI95
aI500
aasS'f15_22'
p48
(lp49
(lp50
I15
aI1
aI281
aa(lp51
I16
aI78
aI500
aasS'f15_21'
p52
(lp53
(lp54
I15
aI15
aI235
aa(lp55
I16
aI78
aI500
aasS'f15_20'
p56
(lp57
(lp58
I16
aI115
aI499
aasS'ID_419_F1_13_F2_16_G_2_SplitPt_120_GenID_0'
p59
(lp60
(lp61
I17
aI97
aI499
aasS'ID_132_F1_16_F2_11_G_4_SplitPt_195_GenID_0'
p62
(lp63
(lp64
I18
aI184
aI500
aa(lp65
I19
aI1
aI222
aasS'ID_122_F1_7_F2_7_G_3_SplitPt_226_GenID_0'
p66
(lp67
(lp68
I20
aI1
aI227
aa(lp69
I21
aI227
aI499
aasS'f3_30'
p70
(lp71
(lp72
I22
aI4
aI133
aasS'f3_31'
p73
(lp74
(lp75
I22
aI1
aI132
aasS'ID_242_F1_1_F2_9_G_2_SplitPt_111_GenID_0'
p76
(lp77
(lp78
I23
aI100
aI495
aasS'ID_149_F1_4_F2_4_G_3_SplitPt_165_GenID_0'
p79
(lp80
(lp81
I24
aI1
aI191
aa(lp82
I25
aI143
aI500
aasS'f15_14'
p83
(lp84
(lp85
I26
aI119
aI496
aasS'ID_270_F1_12_F2_18_G_4_SplitPt_224_GenID_0'
p86
(lp87
(lp88
I27
aI1
aI290
aa(lp89
I28
aI221
aI500
aasS'ID_156_F1_18_F2_19_G_4_SplitPt_117_GenID_0'
p90
(lp91
(lp92
I29
aI1
aI166
aa(lp93
I30
aI103
aI500
aasS'ID_432_F1_18_F2_4_G_2_SplitPt_77_GenID_0'
p94
(lp95
(lp96
I31
aI11
aI75
aa(lp97
I25
aI61
aI492
aasS'ID_27_F1_14_F2_1_G_2_SplitPt_99_GenID_0'
p98
(lp99
(lp100
I32
aI102
aI499
aasS'ID_142_F1_9_F2_12_G_3_SplitPt_153_GenID_0'
p101
(lp102
(lp103
I33
aI1
aI151
aa(lp104
I34
aI150
aI497
aasS'ID_304_F1_19_F2_9_G_2_SplitPt_194_GenID_0'
p105
(lp106
(lp107
I35
aI7
aI188
aa(lp108
I23
aI180
aI500
aasS'ID_431_F1_10_F2_19_G_3_SplitPt_129_GenID_0'
p109
(lp110
(lp111
I36
aI127
aI238
aa(lp112
I37
aI1
aI131
aasS'f4_1'
p113
(lp114
(lp115
I38
aI3
aI229
aa(lp116
I39
aI1
aI136
aasS'ID_300_F1_10_F2_5_G_1_SplitPt_218_GenID_0'
p117
(lp118
(lp119
I40
aI14
aI101
aasS'f2_11'
p120
(lp121
(lp122
I41
aI140
aI490
aasS'f2_10'
p123
(lp124
(lp125
I42
aI1
aI287
aa(lp126
I41
aI231
aI452
aasS'f2_13'
p127
(lp128
(lp129
I42
aI1
aI287
aasS'f4_0'
p130
(lp131
(lp132
I39
aI3
aI136
aa(lp133
I25
aI241
aI416
aasS'f2_15'
p134
(lp135
(lp136
I43
aI213
aI500
aa(lp137
I42
aI1
aI175
aasS'f2_14'
p138
(lp139
(lp140
I43
aI218
aI499
aasS'f2_17'
p141
(lp142
(lp143
I44
aI197
aI390
aasS'f2_16'
p144
(lp145
(lp146
I45
aI29
aI110
aa(lp147
I46
aI96
aI499
aasS'f2_18'
p148
(lp149
(lp150
I44
aI237
aI391
aasS'f4_4'
p151
(lp152
(lp153
I25
aI111
aI498
aasS'f12_22'
p154
(lp155
(lp156
I34
aI156
aI499
aasS'f19_26'
p157
(lp158
(lp159
I47
aI24
aI492
aa(lp160
I35
aI3
aI246
aasS'ID_133_F1_11_F2_8_G_2_SplitPt_180_GenID_0'
p161
(lp162
(lp163
I48
aI208
aI350
aasS'f19_25'
p164
(lp165
(lp166
I47
aI42
aI473
aa(lp167
I35
aI5
aI241
aasS'ID_345_F1_14_F2_11_G_4_SplitPt_113_GenID_0'
p168
(lp169
(lp170
I49
aI114
aI214
aa(lp171
I50
aI1
aI120
aasS'ID_409_F1_12_F2_4_G_3_SplitPt_169_GenID_0'
p172
(lp173
(lp174
I51
aI172
aI307
aa(lp175
I27
aI1
aI168
aasS'f17_0'
p176
(lp177
(lp178
I52
aI240
aI495
aa(lp179
I53
aI1
aI299
aasS'ID_62_F1_4_F2_8_G_4_SplitPt_97_GenID_0'
p180
(lp181
(lp182
I54
aI98
aI224
aa(lp183
I55
aI1
aI97
aasS'ID_159_F1_3_F2_15_G_4_SplitPt_107_GenID_0'
p184
(lp185
(lp186
I56
aI1
aI118
aa(lp187
I15
aI102
aI281
aasS'f17_1'
p188
(lp189
(lp190
I52
aI197
aI497
aa(lp191
I53
aI5
aI299
aasS'f8_31'
p192
(lp193
(lp194
I57
aI6
aI170
aa(lp195
I58
aI93
aI500
aasS'f8_30'
p196
(lp197
(lp198
I59
aI107
aI327
aa(lp199
I57
aI7
aI174
aasS'f12_23'
p200
(lp201
(lp202
I34
aI139
aI499
aasS'f2_21'
p203
(lp204
(lp205
I60
aI1
aI219
aa(lp206
I61
aI22
aI467
aasS'ID_370_F1_1_F2_9_G_4_SplitPt_107_GenID_0'
p207
(lp208
(lp209
I62
aI1
aI109
aa(lp210
I63
aI80
aI500
aasS'f19_0'
p211
(lp212
(lp213
I64
aI243
aI500
aasS'ID_447_F1_14_F2_15_G_2_SplitPt_228_GenID_0'
p214
(lp215
(lp216
I65
aI232
aI356
aasS'f12_20'
p217
(lp218
(lp219
I34
aI154
aI495
aasS'f7_17'
p220
(lp221
(lp222
I21
aI208
aI485
aasS'ID_398_F1_19_F2_19_G_3_SplitPt_212_GenID_0'
p223
(lp224
(lp225
I66
aI212
aI500
aa(lp226
I67
aI16
aI220
aasS'ID_386_F1_1_F2_19_G_4_SplitPt_182_GenID_0'
p227
(lp228
(lp229
I68
aI1
aI193
aa(lp230
I64
aI172
aI500
aasS'ID_455_F1_15_F2_18_G_3_SplitPt_65_GenID_0'
p231
(lp232
(lp233
I69
aI29
aI497
aasS'f19_23'
p234
(lp235
(lp236
I70
aI1
aI240
aa(lp237
I30
aI113
aI500
aasS'f19_1'
p238
(lp239
(lp240
I64
aI244
aI500
aasS'ID_222_F1_0_F2_16_G_2_SplitPt_201_GenID_0'
p241
(lp242
(lp243
I71
aI5
aI208
aa(lp244
I17
aI285
aI485
aasS'ID_13_F1_10_F2_6_G_4_SplitPt_207_GenID_0'
p245
(lp246
(lp247
I72
aI179
aI500
aa(lp248
I73
aI1
aI216
aasS'ID_415_F1_7_F2_8_G_4_SplitPt_130_GenID_0'
p249
(lp250
(lp251
I54
aI143
aI224
aa(lp252
I74
aI1
aI130
aasS'ID_54_F1_4_F2_6_G_3_SplitPt_89_GenID_0'
p253
(lp254
(lp255
I39
aI1
aI98
aa(lp256
I75
aI77
aI500
aasS'ID_87_F1_16_F2_13_G_2_SplitPt_180_GenID_0'
p257
(lp258
(lp259
I76
aI35
aI369
aa(lp260
I77
aI2
aI178
aa(lp261
I78
aI202
aI493
aasS'ID_445_F1_0_F2_9_G_4_SplitPt_147_GenID_0'
p262
(lp263
(lp264
I71
aI1
aI151
aa(lp265
I79
aI147
aI500
aasS'f12_21'
p266
(lp267
(lp268
I34
aI112
aI497
aasS'ID_65_F1_13_F2_18_G_2_SplitPt_64_GenID_0'
p269
(lp270
(lp271
I69
aI86
aI498
aasS'ID_367_F1_19_F2_7_G_3_SplitPt_85_GenID_0'
p272
(lp273
(lp274
I80
aI2
aI85
aa(lp275
I21
aI87
aI498
aasS'f11_23'
p276
(lp277
(lp278
I81
aI14
aI500
aasS'f11_22'
p279
(lp280
(lp281
I81
aI66
aI500
aasS'f11_21'
p282
(lp283
(lp284
I81
aI66
aI488
aasS'f11_20'
p285
(lp286
(lp287
I81
aI14
aI463
aasS'f11_26'
p288
(lp289
(lp290
I82
aI216
aI494
aasS'f11_25'
p291
(lp292
(lp293
I82
aI244
aI498
aasS'f11_24'
p294
(lp295
(lp296
I82
aI223
aI421
aasS'ID_4_F1_15_F2_13_G_3_SplitPt_248_GenID_0'
p297
(lp298
(lp299
I83
aI4
aI101
aa(lp300
I84
aI112
aI249
aa(lp301
I85
aI391
aI487
aasS'f11_28'
p302
(lp303
(lp304
I86
aI5
aI89
aa(lp305
I87
aI64
aI500
aasS'ID_286_F1_11_F2_9_G_3_SplitPt_67_GenID_0'
p306
(lp307
(lp308
I88
aI63
aI234
aasS'ID_342_F1_2_F2_5_G_4_SplitPt_142_GenID_0'
p309
(lp310
(lp311
I89
aI143
aI500
aa(lp312
I60
aI1
aI151
aasS'ID_109_F1_12_F2_2_G_4_SplitPt_153_GenID_0'
p313
(lp314
(lp315
I90
aI1
aI154
aa(lp316
I91
aI154
aI500
aasS'ID_471_F1_7_F2_13_G_3_SplitPt_198_GenID_0'
p317
(lp318
(lp319
I92
aI3
aI216
aa(lp320
I93
aI199
aI496
aasS'ID_195_F1_12_F2_7_G_4_SplitPt_182_GenID_0'
p321
(lp322
(lp323
I94
aI347
aI500
aa(lp324
I95
aI1
aI193
aasS'ID_38_F1_8_F2_1_G_3_SplitPt_119_GenID_0'
p325
(lp326
(lp327
I96
aI123
aI490
aa(lp328
I58
aI1
aI231
aasS'ID_411_F1_15_F2_0_G_2_SplitPt_216_GenID_0'
p329
(lp330
(lp331
I97
aI218
aI475
aasS'f7_18'
p332
(lp333
(lp334
I21
aI91
aI496
aasS'ID_76_F1_1_F2_6_G_3_SplitPt_246_GenID_0'
p335
(lp336
(lp337
I98
aI19
aI265
aa(lp338
I99
aI262
aI494
aasS'ID_279_F1_4_F2_0_G_4_SplitPt_187_GenID_0'
p339
(lp340
(lp341
I100
aI1
aI191
aa(lp342
I101
aI182
aI500
aasS'ID_323_F1_6_F2_4_G_3_SplitPt_172_GenID_0'
p343
(lp344
(lp345
I102
aI2
aI178
aa(lp346
I25
aI170
aI499
aasS'ID_3_F1_15_F2_15_G_2_SplitPt_179_GenID_0'
p347
(lp348
(lp349
I103
aI3
aI213
aa(lp350
I26
aI119
aI498
aasS'f7_22'
p351
(lp352
(lp353
I104
aI1
aI170
aa(lp354
I21
aI65
aI500
aasS'f1_15'
p355
(lp356
(lp357
I68
aI1
aI189
aa(lp358
I105
aI188
aI498
aasS'ID_357_F1_15_F2_0_G_4_SplitPt_85_GenID_0'
p359
(lp360
(lp361
I11
aI1
aI97
aa(lp362
I101
aI86
aI500
aasS'f8_5'
p363
(lp364
(lp365
I58
aI12
aI483
aasS'f16_22'
p366
(lp367
(lp368
I106
aI1
aI199
aasS'ID_179_F1_4_F2_4_G_4_SplitPt_110_GenID_0'
p369
(lp370
(lp371
I24
aI1
aI139
aa(lp372
I25
aI107
aI500
aasS'f8_4'
p373
(lp374
(lp375
I58
aI10
aI500
aasS'f14_4'
p376
(lp377
(lp378
I107
aI4
aI217
aa(lp379
I108
aI37
aI495
aasS'f3_7'
p380
(lp381
(lp382
I109
aI48
aI500
aasS'ID_449_F1_7_F2_15_G_2_SplitPt_116_GenID_0'
p383
(lp384
(lp385
I12
aI149
aI414
aasS'ID_226_F1_8_F2_9_G_2_SplitPt_214_GenID_0'
p386
(lp387
(lp388
I110
aI12
aI239
aa(lp389
I111
aI170
aI473
aasS'f8_2'
p390
(lp391
(lp392
I58
aI1
aI500
aasS'f3_0'
p393
(lp394
(lp395
I109
aI15
aI496
aasS'f14_6'
p396
(lp397
(lp398
I107
aI1
aI217
aa(lp399
I108
aI34
aI460
aasS'f8_1'
p400
(lp401
(lp402
I58
aI1
aI499
aasS'f8_27'
p403
(lp404
(lp405
I112
aI1
aI186
aa(lp406
I113
aI225
aI500
aasS'f14_1'
p407
(lp408
(lp409
I114
aI256
aI460
aasS'f19_5'
p410
(lp411
(lp412
I67
aI1
aI167
aa(lp413
I64
aI182
aI500
aasS'f8_0'
p414
(lp415
(lp416
I58
aI1
aI500
aasS'f3_2'
p417
(lp418
(lp419
I115
aI2
aI163
aa(lp420
I109
aI67
aI500
aasS'f16_27'
p421
(lp422
(lp423
I116
aI28
aI469
aasS'f3_3'
p424
(lp425
(lp426
I115
aI1
aI164
aa(lp427
I109
aI5
aI500
aasS'ID_364_F1_9_F2_17_G_3_SplitPt_214_GenID_0'
p428
(lp429
(lp430
I88
aI4
aI232
aa(lp431
I4
aI232
aI500
aasS'f14_30'
p432
(lp433
(lp434
I3
aI121
aI465
aasS'f3_4'
p435
(lp436
(lp437
I109
aI5
aI496
aasS'f16_25'
p438
(lp439
(lp440
I116
aI188
aI437
aasS'ID_494_F1_16_F2_7_G_2_SplitPt_105_GenID_0'
p441
(lp442
(lp443
I117
aI154
aI301
aasS'f3_5'
p444
(lp445
(lp446
I109
aI67
aI496
aasS'f15_16'
p447
(lp448
(lp449
I118
aI1
aI227
aa(lp450
I119
aI268
aI497
aasS'f15_17'
p451
(lp452
(lp453
I118
aI1
aI229
aa(lp454
I119
aI247
aI496
aasS'f19_29'
p455
(lp456
(lp457
I47
aI28
aI373
aa(lp458
I66
aI211
aI500
aasS'f19_28'
p459
(lp460
(lp461
I66
aI219
aI500
aasS'f15_12'
p462
(lp463
(lp464
I26
aI50
aI500
aasS'f15_13'
p465
(lp466
(lp467
I26
aI107
aI500
aasS'f15_10'
p468
(lp469
(lp470
I120
aI1
aI184
aa(lp471
I121
aI152
aI500
aasS'f15_11'
p472
(lp473
(lp474
I120
aI1
aI184
aa(lp475
I121
aI155
aI494
aasS'f19_6'
p476
(lp477
(lp478
I67
aI3
aI220
aa(lp479
I64
aI193
aI500
aasS'f19_22'
p480
(lp481
(lp482
I70
aI4
aI240
aa(lp483
I30
aI119
aI490
aasS'f19_21'
p484
(lp485
(lp486
I30
aI103
aI498
aasS'f19_20'
p487
(lp488
(lp489
I30
aI149
aI467
aasS'f19_27'
p490
(lp491
(lp492
I47
aI41
aI496
aa(lp493
I35
aI3
aI276
aasS'ID_126_F1_0_F2_13_G_3_SplitPt_192_GenID_0'
p494
(lp495
(lp496
I122
aI3
aI219
aa(lp497
I93
aI193
aI500
aasS'f15_18'
p498
(lp499
(lp500
I123
aI2
aI99
aa(lp501
I118
aI11
aI222
aasS'f15_19'
p502
(lp503
(lp504
I65
aI232
aI356
aa(lp505
I123
aI2
aI85
aa(lp506
I119
aI246
aI495
aasS'f10_28'
p507
(lp508
(lp509
I124
aI111
aI498
aasS'f10_29'
p510
(lp511
(lp512
I124
aI109
aI475
aasS'f10_24'
p513
(lp514
(lp515
I125
aI3
aI197
aasS'f10_25'
p516
(lp517
(lp518
I126
aI56
aI495
aa(lp519
I125
aI1
aI190
aasS'f10_26'
p520
(lp521
(lp522
I126
aI56
aI495
aa(lp523
I125
aI6
aI153
aasS'f10_27'
p524
(lp525
(lp526
I126
aI157
aI444
aa(lp527
I125
aI1
aI183
aasS'f10_20'
p528
(lp529
(lp530
I127
aI315
aI493
aasS'f10_21'
p531
(lp532
(lp533
I127
aI297
aI484
aasS'f10_22'
p534
(lp535
(lp536
I128
aI20
aI469
aa(lp537
I37
aI2
aI128
aasS'f10_23'
p538
(lp539
(lp540
I128
aI111
aI485
aa(lp541
I37
aI1
aI131
aasS'ID_35_F1_2_F2_16_G_3_SplitPt_108_GenID_0'
p542
(lp543
(lp544
I129
aI2
aI108
aa(lp545
I17
aI114
aI500
aasS'f16_5'
p546
(lp547
(lp548
I77
aI2
aI178
aasS'f19_7'
p549
(lp550
(lp551
I67
aI3
aI348
aa(lp552
I64
aI178
aI500
aasS'ID_16_F1_12_F2_10_G_3_SplitPt_102_GenID_0'
p553
(lp554
(lp555
I130
aI1
aI98
aa(lp556
I131
aI104
aI495
aasS'f0_29'
p557
(lp558
(lp559
I132
aI1
aI105
aa(lp560
I101
aI88
aI485
aasS'ID_468_F1_10_F2_7_G_4_SplitPt_91_GenID_0'
p561
(lp562
(lp563
I40
aI1
aI91
aa(lp564
I21
aI91
aI500
aasS'ID_238_F1_15_F2_7_G_3_SplitPt_97_GenID_0'
p565
(lp566
(lp567
I123
aI2
aI99
aa(lp568
I8
aI98
aI500
aasS'f13_12'
p569
(lp570
(lp571
I133
aI2
aI214
aa(lp572
I93
aI166
aI492
aasS'f13_13'
p573
(lp574
(lp575
I134
aI102
aI230
aasS'f13_14'
p576
(lp577
(lp578
I133
aI1
aI208
aa(lp579
I93
aI65
aI488
aasS'f13_15'
p580
(lp581
(lp582
I93
aI214
aI494
aasS'f13_16'
p583
(lp584
(lp585
I135
aI1
aI160
aa(lp586
I136
aI185
aI500
aasS'f13_17'
p587
(lp588
(lp589
I135
aI1
aI177
aa(lp590
I136
aI180
aI495
aasS'f13_18'
p591
(lp592
(lp593
I135
aI3
aI176
aa(lp594
I136
aI49
aI488
aasS'ID_135_F1_1_F2_18_G_4_SplitPt_154_GenID_0'
p595
(lp596
(lp597
I137
aI79
aI154
aa(lp598
I28
aI153
aI500
aasS'f8_29'
p599
(lp600
(lp601
I58
aI178
aI500
aasS'f0_24'
p602
(lp603
(lp604
I101
aI86
aI500
aasS'f0_25'
p605
(lp606
(lp607
I101
aI87
aI500
aasS'ID_158_F1_8_F2_10_G_2_SplitPt_119_GenID_0'
p608
(lp609
(lp610
I128
aI35
aI485
aa(lp611
I127
aI297
aI493
aasS'ID_118_F1_2_F2_2_G_4_SplitPt_119_GenID_0'
p612
(lp613
(lp614
I61
aI95
aI500
aa(lp615
I138
aI1
aI188
aasS'f0_23'
p616
(lp617
(lp618
I139
aI26
aI174
aa(lp619
I101
aI203
aI500
aasS'f18_24'
p620
(lp621
(lp622
I28
aI128
aI500
aasS'f18_25'
p623
(lp624
(lp625
I28
aI107
aI498
aasS'f18_26'
p626
(lp627
(lp628
I28
aI155
aI500
aasS'f18_27'
p629
(lp630
(lp631
I28
aI155
aI500
aasS'f18_20'
p632
(lp633
(lp634
I28
aI121
aI500
aasS'f18_21'
p635
(lp636
(lp637
I28
aI124
aI500
aasS'f18_22'
p638
(lp639
(lp640
I28
aI77
aI499
aasS'f18_23'
p641
(lp642
(lp643
I28
aI13
aI499
aasS'ID_63_F1_15_F2_11_G_4_SplitPt_229_GenID_0'
p644
(lp645
(lp646
I118
aI1
aI229
aa(lp647
I81
aI146
aI500
aasS'ID_175_F1_18_F2_13_G_3_SplitPt_202_GenID_0'
p648
(lp649
(lp650
I29
aI7
aI200
aa(lp651
I78
aI202
aI500
aasS'f18_28'
p652
(lp653
(lp654
I28
aI13
aI500
aasS'f18_29'
p655
(lp656
(lp657
I28
aI125
aI498
aasS'ID_52_F1_14_F2_10_G_2_SplitPt_225_GenID_0'
p658
(lp659
(lp660
I140
aI400
aI498
aa(lp661
I3
aI6
aI237
aasS'ID_139_F1_4_F2_9_G_3_SplitPt_169_GenID_0'
p662
(lp663
(lp664
I141
aI5
aI161
aa(lp665
I23
aI168
aI500
aasS'ID_380_F1_18_F2_10_G_2_SplitPt_155_GenID_0'
p666
(lp667
(lp668
I142
aI29
aI144
aa(lp669
I124
aI166
aI472
aasS'f11_18'
p670
(lp671
(lp672
I143
aI15
aI233
aa(lp673
I18
aI194
aI498
aasS'f11_19'
p674
(lp675
(lp676
I143
aI1
aI247
aa(lp677
I18
aI184
aI498
aasS'ID_289_F1_2_F2_1_G_3_SplitPt_180_GenID_0'
p678
(lp679
(lp680
I144
aI11
aI348
aa(lp681
I138
aI1
aI181
aa(lp682
I105
aI153
aI497
aasS'f11_12'
p683
(lp684
(lp685
I145
aI3
aI214
aa(lp686
I146
aI53
aI500
aasS'f11_13'
p687
(lp688
(lp689
I145
aI3
aI204
aa(lp690
I146
aI58
aI500
aasS'ID_190_F1_11_F2_5_G_3_SplitPt_68_GenID_0'
p691
(lp692
(lp693
I147
aI110
aI296
aa(lp694
I148
aI1
aI68
aasS'f11_16'
p695
(lp696
(lp697
I18
aI184
aI500
aasS'f11_17'
p698
(lp699
(lp700
I18
aI184
aI500
aasS'f11_14'
p701
(lp702
(lp703
I149
aI1
aI102
aa(lp704
I146
aI53
aI499
aasS'f11_15'
p705
(lp706
(lp707
I149
aI1
aI102
aa(lp708
I145
aI51
aI221
aa(lp709
I146
aI144
aI500
aasS'f9_14'
p710
(lp711
(lp712
I150
aI239
aI499
aa(lp713
I79
aI101
aI366
aasS'f9_15'
p714
(lp715
(lp716
I150
aI236
aI500
aa(lp717
I79
aI14
aI451
aasS'ID_501_F1_4_F2_11_G_2_SplitPt_123_GenID_0'
p718
(lp719
(lp720
I87
aI239
aI481
aasS'f9_17'
p721
(lp722
(lp723
I23
aI102
aI496
aasS'f9_10'
p724
(lp725
(lp726
I33
aI1
aI130
aa(lp727
I79
aI18
aI487
aasS'f9_11'
p728
(lp729
(lp730
I33
aI1
aI151
aa(lp731
I79
aI19
aI478
aasS'f9_12'
p732
(lp733
(lp734
I150
aI264
aI497
aasS'ID_326_F1_5_F2_7_G_2_SplitPt_205_GenID_0'
p735
(lp736
(lp737
I76
aI35
aI369
aa(lp738
I151
aI7
aI205
aa(lp739
I8
aI283
aI481
aasS'ID_214_F1_17_F2_18_G_2_SplitPt_135_GenID_0'
p740
(lp741
(lp742
I28
aI124
aI497
aasS'ID_157_F1_10_F2_14_G_4_SplitPt_151_GenID_0'
p743
(lp744
(lp745
I152
aI1
aI159
aa(lp746
I3
aI150
aI500
aasS'f9_18'
p747
(lp748
(lp749
I153
aI2
aI105
aa(lp750
I23
aI86
aI500
aasS'f9_19'
p751
(lp752
(lp753
I153
aI2
aI111
aa(lp754
I23
aI53
aI500
aasS'ID_261_F1_11_F2_11_G_3_SplitPt_92_GenID_0'
p755
(lp756
(lp757
I86
aI2
aI93
aa(lp758
I154
aI69
aI200
aasS'f12_8'
p759
(lp760
(lp761
I155
aI1
aI497
aasS'ID_422_F1_8_F2_1_G_2_SplitPt_245_GenID_0'
p762
(lp763
(lp764
I105
aI221
aI414
aasS'ID_253_F1_5_F2_15_G_3_SplitPt_208_GenID_0'
p765
(lp766
(lp767
I156
aI187
aI348
aa(lp768
I10
aI208
aI500
aa(lp769
I151
aI5
aI213
aasS'f17_26'
p770
(lp771
(lp772
I4
aI57
aI500
aasS'ID_106_F1_5_F2_11_G_2_SplitPt_213_GenID_0'
p773
(lp774
(lp775
I82
aI216
aI499
aa(lp776
I1
aI17
aI215
aasS'ID_237_F1_4_F2_12_G_4_SplitPt_136_GenID_0'
p777
(lp778
(lp779
I39
aI1
aI136
aa(lp780
I155
aI77
aI500
aasS'f7_14'
p781
(lp782
(lp783
I157
aI7
aI233
aa(lp784
I21
aI208
aI500
aasS'f7_15'
p785
(lp786
(lp787
I157
aI1
aI233
aa(lp788
I21
aI19
aI500
aasS'f7_12'
p789
(lp790
(lp791
I157
aI1
aI213
aa(lp792
I21
aI35
aI498
aasS'f7_13'
p793
(lp794
(lp795
I117
aI154
aI297
aa(lp796
I157
aI39
aI194
aasS'f7_10'
p797
(lp798
(lp799
I21
aI132
aI378
aasS'f7_11'
p800
(lp801
(lp802
I158
aI284
aI405
aasS'f5_12'
p803
(lp804
(lp805
I147
aI111
aI289
aasS'f5_13'
p806
(lp807
(lp808
I147
aI110
aI296
aa(lp809
I159
aI242
aI498
aasS'f5_14'
p810
(lp811
(lp812
I159
aI68
aI499
aasS'f5_15'
p813
(lp814
(lp815
I159
aI10
aI500
aasS'f5_16'
p816
(lp817
(lp818
I151
aI5
aI198
aasS'f5_17'
p819
(lp820
(lp821
I151
aI11
aI209
aasS'ID_201_F1_6_F2_10_G_3_SplitPt_225_GenID_0'
p822
(lp823
(lp824
I160
aI370
aI480
aa(lp825
I161
aI1
aI230
aasS'ID_361_F1_5_F2_3_G_4_SplitPt_123_GenID_0'
p826
(lp827
(lp828
I2
aI1
aI128
aa(lp829
I109
aI124
aI500
aasS'f11_7'
p830
(lp831
(lp832
I154
aI2
aI254
aa(lp833
I162
aI179
aI471
aasS'f3_11'
p834
(lp835
(lp836
I163
aI78
aI500
aasS'ID_30_F1_17_F2_8_G_3_SplitPt_138_GenID_0'
p837
(lp838
(lp839
I53
aI1
aI138
aa(lp840
I58
aI140
aI496
aasS'f3_6'
p841
(lp842
(lp843
I109
aI77
aI496
aasS'f12_31'
p844
(lp845
(lp846
I164
aI6
aI448
aasS'f12_30'
p847
(lp848
(lp849
I165
aI158
aI376
aasS'ID_113_F1_14_F2_6_G_2_SplitPt_103_GenID_0'
p850
(lp851
(lp852
I75
aI97
aI498
aasS'ID_394_F1_12_F2_14_G_3_SplitPt_115_GenID_0'
p853
(lp854
(lp855
I95
aI2
aI107
aa(lp856
I14
aI103
aI500
aasS'ID_272_F1_14_F2_15_G_3_SplitPt_116_GenID_0'
p857
(lp858
(lp859
I121
aI123
aI500
aa(lp860
I50
aI1
aI176
aasS'ID_264_F1_4_F2_2_G_2_SplitPt_233_GenID_0'
p861
(lp862
(lp863
I41
aI227
aI472
aasS'ID_84_F1_17_F2_13_G_3_SplitPt_217_GenID_0'
p864
(lp865
(lp866
I166
aI2
aI227
aa(lp867
I93
aI188
aI500
aasS'ID_462_F1_8_F2_3_G_2_SplitPt_181_GenID_0'
p868
(lp869
(lp870
I167
aI194
aI470
aasS'f14_5'
p871
(lp872
(lp873
I107
aI4
aI216
aa(lp874
I108
aI84
aI500
aasS'f5_0'
p875
(lp876
(lp877
I1
aI17
aI256
aa(lp878
I2
aI1
aI126
aasS'f18_13'
p879
(lp880
(lp881
I31
aI11
aI88
aasS'f2_9'
p882
(lp883
(lp884
I41
aI2
aI490
aasS'f9_5'
p885
(lp886
(lp887
I63
aI106
aI500
aasS'ID_417_F1_0_F2_18_G_2_SplitPt_129_GenID_0'
p888
(lp889
(lp890
I28
aI128
aI497
aasS'f13_7'
p891
(lp892
(lp893
I93
aI4
aI499
aasS'ID_1_F1_3_F2_13_G_3_SplitPt_157_GenID_0'
p894
(lp895
(lp896
I168
aI1
aI54
aa(lp897
I93
aI160
aI483
aasS'ID_413_F1_13_F2_3_G_2_SplitPt_56_GenID_0'
p898
(lp899
(lp900
I163
aI64
aI471
aasS'ID_172_F1_8_F2_8_G_4_SplitPt_243_GenID_0'
p901
(lp902
(lp903
I169
aI1
aI64
aasS'f13_0'
p904
(lp905
(lp906
I7
aI1
aI204
aa(lp907
I93
aI4
aI424
aasS'ID_95_F1_1_F2_19_G_4_SplitPt_235_GenID_0'
p908
(lp909
(lp910
I170
aI144
aI273
aa(lp911
I171
aI1
aI260
aa(lp912
I66
aI224
aI500
aasS'ID_256_F1_12_F2_13_G_3_SplitPt_228_GenID_0'
p913
(lp914
(lp915
I95
aI5
aI228
aa(lp916
I136
aI194
aI485
aasS'ID_153_F1_10_F2_2_G_4_SplitPt_188_GenID_0'
p917
(lp918
(lp919
I125
aI1
aI198
aa(lp920
I41
aI185
aI500
aasS'ID_73_F1_16_F2_19_G_2_SplitPt_103_GenID_0'
p921
(lp922
(lp923
I172
aI43
aI496
aasS'ID_339_F1_6_F2_15_G_2_SplitPt_244_GenID_0'
p924
(lp925
(lp926
I119
aI246
aI495
aasS'ID_146_F1_11_F2_3_G_4_SplitPt_102_GenID_0'
p927
(lp928
(lp929
I173
aI103
aI164
aa(lp930
I149
aI1
aI102
aasS'ID_440_F1_0_F2_10_G_1_SplitPt_147_GenID_0'
p931
(lp932
(lp933
I131
aI280
aI434
aasS'ID_93_F1_13_F2_18_G_4_SplitPt_176_GenID_0'
p934
(lp935
(lp936
I135
aI1
aI184
aa(lp937
I28
aI165
aI500
aasS'f7_4'
p938
(lp939
(lp940
I174
aI1
aI55
aa(lp941
I21
aI59
aI500
aasS'f7_5'
p942
(lp943
(lp944
I94
aI347
aI500
aa(lp945
I175
aI1
aI123
aasS'f7_6'
p946
(lp947
(lp948
I175
aI1
aI103
aa(lp949
I21
aI57
aI498
aasS'f7_7'
p950
(lp951
(lp952
I175
aI1
aI106
aa(lp953
I21
aI80
aI500
aasS'f7_0'
p954
(lp955
(lp956
I176
aI3
aI98
aa(lp957
I21
aI124
aI496
aasS'f7_1'
p958
(lp959
(lp960
I176
aI3
aI98
aa(lp961
I21
aI112
aI496
aasS'f7_2'
p962
(lp963
(lp964
I176
aI1
aI98
aa(lp965
I21
aI101
aI500
aasS'f7_3'
p966
(lp967
(lp968
I176
aI1
aI99
aa(lp969
I21
aI102
aI500
aasS'f8_10'
p970
(lp971
(lp972
I58
aI97
aI468
aasS'ID_11_F1_8_F2_12_G_4_SplitPt_158_GenID_0'
p973
(lp974
(lp975
I177
aI1
aI184
aa(lp976
I178
aI159
aI500
aasS'f7_8'
p977
(lp978
(lp979
I92
aI3
aI193
aa(lp980
I21
aI127
aI496
aasS'f7_9'
p981
(lp982
(lp983
I92
aI16
aI224
aa(lp984
I21
aI35
aI482
aasS'f2_7'
p985
(lp986
(lp987
I41
aI2
aI496
aasS'ID_401_F1_1_F2_13_G_3_SplitPt_189_GenID_0'
p988
(lp989
(lp990
I179
aI30
aI190
aa(lp991
I136
aI182
aI500
aasS'ID_277_F1_4_F2_6_G_3_SplitPt_88_GenID_0'
p992
(lp993
(lp994
I55
aI1
aI95
aa(lp995
I75
aI88
aI484
aasS'f15_23'
p996
(lp997
(lp998
I15
aI1
aI243
aa(lp999
I16
aI110
aI500
aasS'f2_6'
p1000
(lp1001
(lp1002
I41
aI6
aI498
aasS'ID_379_F1_5_F2_9_G_3_SplitPt_59_GenID_0'
p1003
(lp1004
(lp1005
I23
aI62
aI495
aasS'f19_12'
p1006
(lp1007
(lp1008
I180
aI1
aI132
aa(lp1009
I172
aI2
aI420
aasS'f19_13'
p1010
(lp1011
(lp1012
I180
aI1
aI148
aa(lp1013
I172
aI65
aI471
aasS'f5_8'
p1014
(lp1015
(lp1016
I159
aI144
aI500
aasS'f5_9'
p1017
(lp1018
(lp1019
I181
aI4
aI151
aasS'f19_16'
p1020
(lp1021
(lp1022
I13
aI1
aI102
aa(lp1023
I182
aI124
aI233
aasS'f19_17'
p1024
(lp1025
(lp1026
I13
aI1
aI102
aa(lp1027
I30
aI156
aI500
aasS'f19_14'
p1028
(lp1029
(lp1030
I172
aI12
aI472
aasS'f19_15'
p1031
(lp1032
(lp1033
I172
aI106
aI469
aasS'f5_2'
p1034
(lp1035
(lp1036
I2
aI1
aI127
aasS'f5_3'
p1037
(lp1038
(lp1039
I2
aI1
aI127
aasS'f19_18'
p1040
(lp1041
(lp1042
I13
aI1
aI123
aa(lp1043
I30
aI118
aI500
aasS'f6_30'
p1044
(lp1045
(lp1046
I183
aI1
aI123
aa(lp1047
I184
aI103
aI227
aasS'f5_6'
p1048
(lp1049
(lp1050
I185
aI88
aI500
aa(lp1051
I1
aI1
aI257
aasS'ID_10_F1_10_F2_5_G_2_SplitPt_239_GenID_0'
p1052
(lp1053
(lp1054
I5
aI236
aI499
aa(lp1055
I186
aI12
aI252
aasS'f5_4'
p1056
(lp1057
(lp1058
I5
aI236
aI499
aa(lp1059
I185
aI56
aI422
aa(lp1060
I1
aI46
aI233
aasS'f5_5'
p1061
(lp1062
(lp1063
I185
aI18
aI460
aasS'f2_12'
p1064
(lp1065
(lp1066
I42
aI2
aI190
aa(lp1067
I41
aI193
aI495
aasS'ID_350_F1_2_F2_14_G_3_SplitPt_90_GenID_0'
p1068
(lp1069
(lp1070
I187
aI4
aI91
aa(lp1071
I108
aI88
aI492
aasS'ID_307_F1_2_F2_7_G_4_SplitPt_186_GenID_0'
p1072
(lp1073
(lp1074
I42
aI1
aI190
aa(lp1075
I8
aI186
aI500
aasS'f0_9'
p1076
(lp1077
(lp1078
I188
aI1
aI87
aa(lp1079
I189
aI39
aI497
aasS'ID_390_F1_18_F2_16_G_2_SplitPt_233_GenID_0'
p1080
(lp1081
(lp1082
I190
aI59
aI222
aa(lp1083
I17
aI258
aI498
aasS'ID_101_F1_0_F2_17_G_4_SplitPt_172_GenID_0'
p1084
(lp1085
(lp1086
I191
aI1
aI65
aa(lp1087
I53
aI173
aI500
aasS'f15_3'
p1088
(lp1089
(lp1090
I103
aI3
aI179
aa(lp1091
I192
aI244
aI475
aasS'f14_21'
p1092
(lp1093
(lp1094
I14
aI2
aI434
aa(lp1095
I50
aI1
aI254
aasS'ID_123_F1_17_F2_15_G_4_SplitPt_124_GenID_0'
p1096
(lp1097
(lp1098
I193
aI1
aI138
aa(lp1099
I12
aI106
aI500
aasS'ID_424_F1_6_F2_7_G_2_SplitPt_216_GenID_0'
p1100
(lp1101
(lp1102
I94
aI347
aI500
aasS'ID_182_F1_6_F2_9_G_3_SplitPt_57_GenID_0'
p1103
(lp1104
(lp1105
I194
aI4
aI54
aa(lp1106
I23
aI58
aI490
aasS'ID_70_F1_7_F2_15_G_4_SplitPt_98_GenID_0'
p1107
(lp1108
(lp1109
I176
aI1
aI99
aa(lp1110
I12
aI99
aI500
aasS'ID_312_F1_15_F2_13_G_2_SplitPt_224_GenID_0'
p1111
(lp1112
(lp1113
I93
aI227
aI499
aasS'f9_29'
p1114
(lp1115
(lp1116
I111
aI53
aI499
aa(lp1117
I195
aI9
aI189
aasS'ID_344_F1_11_F2_12_G_2_SplitPt_172_GenID_0'
p1118
(lp1119
(lp1120
I178
aI171
aI459
aasS'ID_236_F1_10_F2_9_G_2_SplitPt_229_GenID_0'
p1121
(lp1122
(lp1123
I79
aI189
aI447
aa(lp1124
I131
aI2
aI312
aasS'f9_28'
p1125
(lp1126
(lp1127
I111
aI125
aI488
aa(lp1128
I195
aI1
aI189
aasS'f8_26'
p1129
(lp1130
(lp1131
I112
aI31
aI158
aa(lp1132
I113
aI223
aI495
aasS'f3_1'
p1133
(lp1134
(lp1135
I196
aI58
aI144
aasS'f8_24'
p1136
(lp1137
(lp1138
I59
aI107
aI327
aa(lp1139
I197
aI1
aI63
aa(lp1140
I113
aI247
aI479
aasS'f8_25'
p1141
(lp1142
(lp1143
I197
aI1
aI62
aa(lp1144
I113
aI239
aI494
aa(lp1145
I58
aI76
aI463
aasS'f8_22'
p1146
(lp1147
(lp1148
I177
aI1
aI180
aasS'f8_23'
p1149
(lp1150
(lp1151
I48
aI208
aI350
aa(lp1152
I177
aI1
aI165
aasS'f8_20'
p1153
(lp1154
(lp1155
I198
aI261
aI450
aa(lp1156
I177
aI1
aI147
aasS'f8_21'
p1157
(lp1158
(lp1159
I199
aI185
aI426
aa(lp1160
I177
aI1
aI153
aasS'f3_8'
p1161
(lp1162
(lp1163
I56
aI1
aI112
aa(lp1164
I163
aI92
aI500
aasS'f3_9'
p1165
(lp1166
(lp1167
I56
aI2
aI118
aa(lp1168
I163
aI170
aI500
aasS'f9_16'
p1169
(lp1170
(lp1171
I23
aI160
aI493
aasS'f8_28'
p1172
(lp1173
(lp1174
I58
aI103
aI499
aasS'ID_47_F1_5_F2_14_G_2_SplitPt_97_GenID_0'
p1175
(lp1176
(lp1177
I114
aI256
aI498
aa(lp1178
I108
aI105
aI483
aasS'f1_6'
p1179
(lp1180
(lp1181
I200
aI16
aI184
aa(lp1182
I201
aI345
aI493
aasS'f1_7'
p1183
(lp1184
(lp1185
I200
aI11
aI210
aa(lp1186
I201
aI345
aI437
aasS'f1_4'
p1187
(lp1188
(lp1189
I202
aI1
aI105
aa(lp1190
I201
aI293
aI462
aasS'f1_5'
p1191
(lp1192
(lp1193
I202
aI1
aI113
aa(lp1194
I203
aI54
aI499
aasS'f1_2'
p1195
(lp1196
(lp1197
I171
aI1
aI241
aa(lp1198
I105
aI94
aI495
aasS'f1_3'
p1199
(lp1200
(lp1201
I171
aI1
aI238
aa(lp1202
I105
aI125
aI500
aasS'f1_0'
p1203
(lp1204
(lp1205
I204
aI25
aI473
aa(lp1206
I171
aI3
aI260
aa(lp1207
I105
aI215
aI499
aasS'f1_1'
p1208
(lp1209
(lp1210
I205
aI25
aI473
aa(lp1211
I171
aI11
aI246
aa(lp1212
I105
aI291
aI482
aasS'ID_472_F1_10_F2_15_G_2_SplitPt_70_GenID_0'
p1213
(lp1214
(lp1215
I192
aI82
aI451
aasS'f1_8'
p1216
(lp1217
(lp1218
I206
aI13
aI234
aasS'f1_9'
p1219
(lp1220
(lp1221
I206
aI3
aI234
aasS'ID_486_F1_17_F2_7_G_3_SplitPt_110_GenID_0'
p1222
(lp1223
(lp1224
I207
aI131
aI282
aasS'f9_8'
p1225
(lp1226
(lp1227
I208
aI6
aI226
aa(lp1228
I79
aI65
aI500
aasS'f9_9'
p1229
(lp1230
(lp1231
I208
aI7
aI206
aa(lp1232
I79
aI19
aI500
aasS'f9_6'
p1233
(lp1234
(lp1235
I88
aI5
aI212
aa(lp1236
I63
aI86
aI500
aasS'f9_7'
p1237
(lp1238
(lp1239
I88
aI4
aI203
aa(lp1240
I63
aI63
aI500
aasS'f9_4'
p1241
(lp1242
(lp1243
I63
aI71
aI500
aasS'f9_13'
p1244
(lp1245
(lp1246
I150
aI285
aI451
aasS'f9_2'
p1247
(lp1248
(lp1249
I209
aI52
aI483
aasS'f9_3'
p1250
(lp1251
(lp1252
I63
aI3
aI402
aasS'f9_0'
p1253
(lp1254
(lp1255
I209
aI51
aI483
aasS'f9_1'
p1256
(lp1257
(lp1258
I63
aI3
aI486
aasS'ID_338_F1_4_F2_7_G_4_SplitPt_101_GenID_0'
p1259
(lp1260
(lp1261
I210
aI1
aI129
aa(lp1262
I8
aI87
aI500
aasS'ID_17_F1_0_F2_1_G_3_SplitPt_233_GenID_0'
p1263
(lp1264
(lp1265
I211
aI346
aI457
aa(lp1266
I71
aI1
aI233
aasS'f14_27'
p1267
(lp1268
(lp1269
I3
aI150
aI500
aasS'ID_414_F1_17_F2_8_G_3_SplitPt_127_GenID_0'
p1270
(lp1271
(lp1272
I166
aI1
aI154
aa(lp1273
I58
aI127
aI500
aasS'f2_28'
p1274
(lp1275
(lp1276
I41
aI185
aI500
aasS'ID_324_F1_16_F2_2_G_3_SplitPt_234_GenID_0'
p1277
(lp1278
(lp1279
I212
aI4
aI230
aa(lp1280
I41
aI214
aI500
aasS'ID_336_F1_7_F2_5_G_3_SplitPt_234_GenID_0'
p1281
(lp1282
(lp1283
I157
aI1
aI233
aa(lp1284
I89
aI236
aI495
aasS'f2_29'
p1285
(lp1286
(lp1287
I60
aI77
aI192
aa(lp1288
I41
aI185
aI496
aasS'ID_23_F1_5_F2_16_G_2_SplitPt_72_GenID_0'
p1289
(lp1290
(lp1291
I213
aI161
aI328
aasS'f9_24'
p1292
(lp1293
(lp1294
I23
aI25
aI478
aasS'f9_26'
p1295
(lp1296
(lp1297
I23
aI137
aI426
aasS'f9_21'
p1298
(lp1299
(lp1300
I214
aI7
aI150
aa(lp1301
I23
aI27
aI490
aasS'f9_20'
p1302
(lp1303
(lp1304
I214
aI8
aI151
aa(lp1305
I23
aI25
aI495
aasS'f9_23'
p1306
(lp1307
(lp1308
I215
aI38
aI303
aa(lp1309
I23
aI62
aI494
aasS'f9_22'
p1310
(lp1311
(lp1312
I23
aI68
aI495
aasS'f5_21'
p1313
(lp1314
(lp1315
I216
aI1
aI81
aa(lp1316
I217
aI204
aI500
aasS'f5_20'
p1317
(lp1318
(lp1319
I216
aI1
aI84
aa(lp1320
I217
aI127
aI500
aasS'f5_23'
p1321
(lp1322
(lp1323
I217
aI200
aI500
aasS'f5_22'
p1324
(lp1325
(lp1326
I217
aI195
aI500
aasS'ID_254_F1_2_F2_17_G_0_SplitPt_88_GenID_0'
p1327
(lp1328
(lp1329
I138
aI11
aI141
aasS'f5_24'
p1330
(lp1331
(lp1332
I218
aI2
aI228
aasS'f5_27'
p1333
(lp1334
(lp1335
I219
aI2
aI468
aa(lp1336
I218
aI1
aI235
aasS'f5_26'
p1337
(lp1338
(lp1339
I218
aI2
aI354
aasS'f5_29'
p1340
(lp1341
(lp1342
I89
aI3
aI500
aasS'f5_25'
p1343
(lp1344
(lp1345
I219
aI20
aI468
aa(lp1346
I218
aI19
aI237
aasS'ID_187_F1_2_F2_3_G_3_SplitPt_118_GenID_0'
p1347
(lp1348
(lp1349
I220
aI116
aI194
aa(lp1350
I45
aI29
aI110
aasS'ID_86_F1_14_F2_1_G_3_SplitPt_219_GenID_0'
p1351
(lp1352
(lp1353
I107
aI1
aI223
aa(lp1354
I105
aI188
aI499
aasS'f10_9'
p1355
(lp1356
(lp1357
I221
aI181
aI494
aasS'ID_325_F1_8_F2_10_G_2_SplitPt_171_GenID_0'
p1358
(lp1359
(lp1360
I160
aI370
aI480
aasS'f14_25'
p1361
(lp1362
(lp1363
I3
aI51
aI500
aasS'f15_31'
p1364
(lp1365
(lp1366
I156
aI186
aI348
aa(lp1367
I9
aI4
aI211
aasS'f4_22'
p1368
(lp1369
(lp1370
I222
aI31
aI498
aasS'f4_23'
p1371
(lp1372
(lp1373
I222
aI172
aI500
aa(lp1374
I24
aI1
aI208
aasS'f4_20'
p1375
(lp1376
(lp1377
I222
aI172
aI499
aa(lp1378
I24
aI1
aI192
aasS'f15_9'
p1379
(lp1380
(lp1381
I120
aI1
aI184
aa(lp1382
I121
aI149
aI500
aasS'f4_26'
p1383
(lp1384
(lp1385
I223
aI266
aI496
aa(lp1386
I55
aI4
aI95
aasS'f4_27'
p1387
(lp1388
(lp1389
I223
aI232
aI495
aa(lp1390
I141
aI2
aI230
aa(lp1391
I55
aI1
aI97
aasS'f4_24'
p1392
(lp1393
(lp1394
I141
aI5
aI241
aasS'f4_25'
p1395
(lp1396
(lp1397
I141
aI13
aI263
aasS'ID_184_F1_6_F2_14_G_4_SplitPt_174_GenID_0'
p1398
(lp1399
(lp1400
I224
aI169
aI500
aa(lp1401
I102
aI1
aI175
aasS'f2_20'
p1402
(lp1403
(lp1404
I60
aI1
aI203
aa(lp1405
I61
aI22
aI451
aasS'f5_28'
p1406
(lp1407
(lp1408
I89
aI3
aI500
aasS'f0_31'
p1409
(lp1410
(lp1411
I101
aI200
aI484
aasS'f0_30'
p1412
(lp1413
(lp1414
I101
aI88
aI500
aasS'f17_30'
p1415
(lp1416
(lp1417
I225
aI2
aI133
aa(lp1418
I4
aI79
aI500
aasS'f17_31'
p1419
(lp1420
(lp1421
I225
aI2
aI122
aa(lp1422
I4
aI57
aI500
aasS'ID_372_F1_9_F2_10_G_4_SplitPt_189_GenID_0'
p1423
(lp1424
(lp1425
I221
aI182
aI500
aa(lp1426
I195
aI1
aI199
aasS'ID_288_F1_4_F2_3_G_4_SplitPt_164_GenID_0'
p1427
(lp1428
(lp1429
I226
aI1
aI164
aa(lp1430
I109
aI162
aI500
aa(lp1431
I25
aI7
aI325
aasS'ID_481_F1_6_F2_8_G_3_SplitPt_81_GenID_0'
p1432
(lp1433
(lp1434
I227
aI249
aI355
aasS'ID_502_F1_4_F2_14_G_2_SplitPt_210_GenID_0'
p1435
(lp1436
(lp1437
I228
aI213
aI352
aa(lp1438
I24
aI1
aI208
aasS'f2_27'
p1439
(lp1440
(lp1441
I91
aI154
aI500
aa(lp1442
I138
aI5
aI188
aasS'ID_387_F1_17_F2_15_G_2_SplitPt_216_GenID_0'
p1443
(lp1444
(lp1445
I229
aI1
aI235
aasS'ID_194_F1_17_F2_13_G_2_SplitPt_228_GenID_0'
p1446
(lp1447
(lp1448
I78
aI291
aI494
aasS'ID_144_F1_11_F2_17_G_3_SplitPt_215_GenID_0'
p1449
(lp1450
(lp1451
I49
aI114
aI214
aa(lp1452
I230
aI208
aI499
aasS'ID_229_F1_6_F2_11_G_2_SplitPt_249_GenID_0'
p1453
(lp1454
(lp1455
I231
aI4
aI200
aasS'ID_55_F1_8_F2_17_G_2_SplitPt_247_GenID_0'
p1456
(lp1457
(lp1458
I53
aI263
aI486
aasS'ID_169_F1_3_F2_15_G_4_SplitPt_231_GenID_0'
p1459
(lp1460
(lp1461
I232
aI1
aI239
aa(lp1462
I121
aI232
aI500
aasS'ID_196_F1_1_F2_0_G_3_SplitPt_212_GenID_0'
p1463
(lp1464
(lp1465
I200
aI11
aI210
aa(lp1466
I189
aI95
aI500
aasS'f5_18'
p1467
(lp1468
(lp1469
I151
aI50
aI205
aasS'f14_24'
p1470
(lp1471
(lp1472
I3
aI100
aI500
aasS'f1_18'
p1473
(lp1474
(lp1475
I32
aI38
aI496
aasS'f1_19'
p1476
(lp1477
(lp1478
I32
aI13
aI495
aasS'f5_19'
p1479
(lp1480
(lp1481
I151
aI7
aI213
aasS'f1_14'
p1482
(lp1483
(lp1484
I68
aI1
aI193
aa(lp1485
I105
aI94
aI499
aasS'ID_155_F1_3_F2_12_G_4_SplitPt_233_GenID_0'
p1486
(lp1487
(lp1488
I22
aI1
aI132
aa(lp1489
I164
aI227
aI500
aasS'f1_16'
p1490
(lp1491
(lp1492
I233
aI2
aI170
aasS'f1_17'
p1493
(lp1494
(lp1495
I233
aI1
aI170
aa(lp1496
I32
aI18
aI499
aasS'f1_10'
p1497
(lp1498
(lp1499
I68
aI32
aI141
aasS'f1_11'
p1500
(lp1501
(lp1502
I205
aI25
aI473
aa(lp1503
I206
aI1
aI235
aasS'f1_12'
p1504
(lp1505
(lp1506
I68
aI5
aI193
aa(lp1507
I105
aI170
aI497
aasS'f1_13'
p1508
(lp1509
(lp1510
I68
aI4
aI190
aa(lp1511
I105
aI284
aI497
aasS'ID_354_F1_4_F2_10_G_3_SplitPt_100_GenID_0'
p1512
(lp1513
(lp1514
I210
aI5
aI98
aa(lp1515
I234
aI60
aI498
aasS'f10_31'
p1516
(lp1517
(lp1518
I124
aI166
aI497
aasS'ID_491_F1_9_F2_1_G_3_SplitPt_148_GenID_0'
p1519
(lp1520
(lp1521
I211
aI346
aI457
aa(lp1522
I214
aI7
aI151
aasS'ID_150_F1_3_F2_16_G_3_SplitPt_215_GenID_0'
p1523
(lp1524
(lp1525
I235
aI8
aI221
aa(lp1526
I17
aI215
aI500
aasS'f8_3'
p1527
(lp1528
(lp1529
I58
aI1
aI499
aasS'ID_189_F1_10_F2_2_G_3_SplitPt_149_GenID_0'
p1530
(lp1531
(lp1532
I125
aI1
aI153
aa(lp1533
I41
aI140
aI490
aasS'f4_21'
p1534
(lp1535
(lp1536
I51
aI172
aI307
aa(lp1537
I222
aI239
aI500
aa(lp1538
I24
aI1
aI191
aasS'f12_9'
p1539
(lp1540
(lp1541
I155
aI2
aI496
aasS'f4_10'
p1542
(lp1543
(lp1544
I236
aI1
aI117
aa(lp1545
I237
aI6
aI230
aa(lp1546
I25
aI48
aI499
aasS'f19_8'
p1547
(lp1548
(lp1549
I80
aI4
aI84
aa(lp1550
I172
aI8
aI500
aasS'f19_9'
p1551
(lp1552
(lp1553
I80
aI2
aI85
aasS'f3_18'
p1554
(lp1555
(lp1556
I232
aI1
aI238
aa(lp1557
I167
aI74
aI500
aasS'f3_19'
p1558
(lp1559
(lp1560
I238
aI253
aI361
aa(lp1561
I232
aI1
aI229
aasS'ID_170_F1_5_F2_13_G_4_SplitPt_126_GenID_0'
p1562
(lp1563
(lp1564
I2
aI1
aI127
aa(lp1565
I78
aI127
aI500
aasS'f3_12'
p1566
(lp1567
(lp1568
I235
aI2
aI215
aa(lp1569
I163
aI109
aI500
aasS'f3_13'
p1570
(lp1571
(lp1572
I235
aI1
aI215
aa(lp1573
I163
aI117
aI500
aasS'f3_10'
p1574
(lp1575
(lp1576
I239
aI98
aI346
aa(lp1577
I163
aI159
aI475
aasS'f19_2'
p1578
(lp1579
(lp1580
I67
aI16
aI348
aa(lp1581
I64
aI231
aI499
aasS'f3_16'
p1582
(lp1583
(lp1584
I240
aI150
aI357
aa(lp1585
I232
aI74
aI230
aasS'f3_17'
p1586
(lp1587
(lp1588
I232
aI13
aI219
aa(lp1589
I167
aI126
aI500
aasS'f3_14'
p1590
(lp1591
(lp1592
I235
aI2
aI244
aa(lp1593
I163
aI82
aI477
aasS'f3_15'
p1594
(lp1595
(lp1596
I235
aI3
aI160
aa(lp1597
I163
aI64
aI500
aasS'ID_34_F1_14_F2_8_G_2_SplitPt_89_GenID_0'
p1598
(lp1599
(lp1600
I58
aI89
aI470
aasS'ID_145_F1_15_F2_7_G_2_SplitPt_158_GenID_0'
p1601
(lp1602
(lp1603
I8
aI187
aI498
aasS'ID_274_F1_12_F2_18_G_4_SplitPt_135_GenID_0'
p1604
(lp1605
(lp1606
I241
aI1
aI160
aa(lp1607
I28
aI127
aI500
aasS'ID_334_F1_1_F2_0_G_2_SplitPt_106_GenID_0'
p1608
(lp1609
(lp1610
I189
aI172
aI497
aasS'ID_321_F1_14_F2_2_G_3_SplitPt_155_GenID_0'
p1611
(lp1612
(lp1613
I242
aI1
aI146
aa(lp1614
I41
aI138
aI498
aasS'f18_31'
p1615
(lp1616
(lp1617
I28
aI124
aI496
aasS'f18_30'
p1618
(lp1619
(lp1620
I28
aI13
aI446
aasS'f12_1'
p1621
(lp1622
(lp1623
I178
aI2
aI500
aasS'f14_11'
p1624
(lp1625
(lp1626
I224
aI291
aI489
aasS'f7_19'
p1627
(lp1628
(lp1629
I21
aI59
aI497
aasS'ID_362_F1_12_F2_14_G_2_SplitPt_81_GenID_0'
p1630
(lp1631
(lp1632
I3
aI106
aI499
aasS'ID_199_F1_17_F2_6_G_3_SplitPt_127_GenID_0'
p1633
(lp1634
(lp1635
I225
aI2
aI133
aa(lp1636
I75
aI131
aI500
aasS'ID_103_F1_8_F2_9_G_4_SplitPt_63_GenID_0'
p1637
(lp1638
(lp1639
I197
aI1
aI63
aa(lp1640
I208
aI63
aI206
aasS'f6_9'
p1641
(lp1642
(lp1643
I99
aI262
aI479
aasS'f6_8'
p1644
(lp1645
(lp1646
I99
aI262
aI492
aasS'ID_121_F1_10_F2_8_G_3_SplitPt_162_GenID_0'
p1647
(lp1648
(lp1649
I243
aI1
aI173
aa(lp1650
I58
aI167
aI500
aasS'f6_5'
p1651
(lp1652
(lp1653
I244
aI4
aI500
aasS'f6_4'
p1654
(lp1655
(lp1656
I244
aI152
aI500
aasS'f6_7'
p1657
(lp1658
(lp1659
I244
aI131
aI499
aasS'f6_6'
p1660
(lp1661
(lp1662
I244
aI4
aI500
aasS'f6_1'
p1663
(lp1664
(lp1665
I245
aI6
aI111
aa(lp1666
I72
aI152
aI500
aasS'f6_0'
p1667
(lp1668
(lp1669
I72
aI115
aI500
aasS'f6_3'
p1670
(lp1671
(lp1672
I245
aI1
aI89
aa(lp1673
I72
aI133
aI499
aasS'f6_2'
p1674
(lp1675
(lp1676
I245
aI1
aI89
aa(lp1677
I72
aI129
aI500
aasS'f4_3'
p1678
(lp1679
(lp1680
I39
aI1
aI136
aa(lp1681
I222
aI27
aI393
aa(lp1682
I25
aI179
aI500
aasS'f4_2'
p1683
(lp1684
(lp1685
I39
aI1
aI136
aa(lp1686
I25
aI143
aI499
aasS'f17_8'
p1687
(lp1688
(lp1689
I246
aI1
aI58
aa(lp1690
I53
aI11
aI493
aasS'f17_9'
p1691
(lp1692
(lp1693
I246
aI1
aI58
aasS'f4_7'
p1694
(lp1695
(lp1696
I247
aI17
aI233
aa(lp1697
I25
aI99
aI498
aasS'f4_6'
p1698
(lp1699
(lp1700
I247
aI3
aI250
aa(lp1701
I25
aI99
aI499
aasS'f4_5'
p1702
(lp1703
(lp1704
I247
aI19
aI235
aa(lp1705
I25
aI97
aI500
aasS'ID_260_F1_15_F2_3_G_3_SplitPt_191_GenID_0'
p1706
(lp1707
(lp1708
I248
aI9
aI109
aa(lp1709
I163
aI197
aI500
aasS'f17_2'
p1710
(lp1711
(lp1712
I53
aI1
aI216
aasS'f17_3'
p1713
(lp1714
(lp1715
I52
aI212
aI497
aa(lp1716
I53
aI1
aI225
aasS'f4_9'
p1717
(lp1718
(lp1719
I237
aI13
aI230
aa(lp1720
I210
aI2
aI114
aa(lp1721
I25
aI29
aI492
aasS'f4_8'
p1722
(lp1723
(lp1724
I210
aI1
aI106
aa(lp1725
I25
aI41
aI499
aasS'f17_6'
p1726
(lp1727
(lp1728
I193
aI1
aI149
aasS'f17_7'
p1729
(lp1730
(lp1731
I193
aI7
aI154
aasS'f17_4'
p1732
(lp1733
(lp1734
I230
aI213
aI493
aa(lp1735
I193
aI3
aI149
aasS'f17_5'
p1736
(lp1737
(lp1738
I230
aI208
aI499
aa(lp1739
I166
aI3
aI261
aa(lp1740
I193
aI1
aI153
aasS'ID_198_F1_16_F2_0_G_2_SplitPt_173_GenID_0'
p1741
(lp1742
(lp1743
I106
aI1
aI204
aa(lp1744
I101
aI230
aI492
aasS'ID_490_F1_11_F2_10_G_2_SplitPt_146_GenID_0'
p1745
(lp1746
(lp1747
I249
aI181
aI397
aasS'f8_7'
p1748
(lp1749
(lp1750
I169
aI1
aI64
aasS'f8_6'
p1751
(lp1752
(lp1753
I169
aI1
aI71
aasS'f7_21'
p1754
(lp1755
(lp1756
I104
aI1
aI203
aa(lp1757
I21
aI108
aI500
aasS'f7_20'
p1758
(lp1759
(lp1760
I104
aI1
aI189
aa(lp1761
I21
aI70
aI500
aasS'f7_27'
p1762
(lp1763
(lp1764
I74
aI1
aI239
aa(lp1765
I8
aI108
aI500
aasS'f7_26'
p1766
(lp1767
(lp1768
I74
aI1
aI189
aa(lp1769
I8
aI108
aI500
aasS'f7_25'
p1770
(lp1771
(lp1772
I74
aI1
aI188
aa(lp1773
I8
aI61
aI500
aasS'f7_24'
p1774
(lp1775
(lp1776
I74
aI1
aI179
aa(lp1777
I8
aI98
aI499
aasS'f7_29'
p1778
(lp1779
(lp1780
I207
aI131
aI282
aasS'f7_28'
p1781
(lp1782
(lp1783
I8
aI102
aI500
aasS'f8_9'
p1784
(lp1785
(lp1786
I58
aI18
aI496
aasS'f8_8'
p1787
(lp1788
(lp1789
I58
aI15
aI495
aasS'ID_511_F1_7_F2_18_G_2_SplitPt_180_GenID_0'
p1790
(lp1791
(lp1792
I157
aI1
aI223
aa(lp1793
I28
aI163
aI495
aasS'ID_476_F1_1_F2_9_G_4_SplitPt_235_GenID_0'
p1794
(lp1795
(lp1796
I150
aI236
aI500
aa(lp1797
I206
aI1
aI235
aasS'f11_0'
p1798
(lp1799
(lp1800
I250
aI2
aI138
aa(lp1801
I162
aI7
aI500
aasS'f11_1'
p1802
(lp1803
(lp1804
I251
aI188
aI247
aa(lp1805
I148
aI7
aI68
aasS'f11_2'
p1806
(lp1807
(lp1808
I148
aI1
aI67
aa(lp1809
I162
aI7
aI454
aasS'f11_3'
p1810
(lp1811
(lp1812
I148
aI1
aI68
aa(lp1813
I162
aI166
aI469
aasS'f11_4'
p1814
(lp1815
(lp1816
I251
aI188
aI247
aa(lp1817
I154
aI1
aI200
aasS'f11_5'
p1818
(lp1819
(lp1820
I154
aI1
aI200
aa(lp1821
I162
aI106
aI495
aasS'f11_6'
p1822
(lp1823
(lp1824
I252
aI2
aI113
aa(lp1825
I162
aI55
aI470
aasS'ID_136_F1_14_F2_9_G_2_SplitPt_75_GenID_0'
p1826
(lp1827
(lp1828
I111
aI72
aI500
aasS'f11_8'
p1829
(lp1830
(lp1831
I253
aI64
aI236
aasS'ID_143_F1_19_F2_1_G_2_SplitPt_99_GenID_0'
p1832
(lp1833
(lp1834
I96
aI105
aI480
aasS'ID_112_F1_7_F2_3_G_4_SplitPt_188_GenID_0'
p1835
(lp1836
(lp1837
I238
aI253
aI361
aa(lp1838
I104
aI1
aI205
aasS'ID_301_F1_13_F2_15_G_3_SplitPt_249_GenID_0'
p1839
(lp1840
(lp1841
I254
aI1
aI247
aa(lp1842
I26
aI214
aI500
aasS'f13_6'
p1843
(lp1844
(lp1845
I93
aI145
aI500
aasS'ID_376_F1_11_F2_15_G_4_SplitPt_200_GenID_0'
p1846
(lp1847
(lp1848
I154
aI1
aI203
aa(lp1849
I192
aI166
aI500
aasS'f13_4'
p1850
(lp1851
(lp1852
I93
aI192
aI500
aasS'f13_5'
p1853
(lp1854
(lp1855
I93
aI151
aI500
aasS'f13_2'
p1856
(lp1857
(lp1858
I7
aI1
aI234
aasS'f13_3'
p1859
(lp1860
(lp1861
I7
aI1
aI193
aasS'ID_273_F1_9_F2_17_G_3_SplitPt_114_GenID_0'
p1862
(lp1863
(lp1864
I153
aI2
aI111
aa(lp1865
I4
aI109
aI500
aasS'f13_1'
p1866
(lp1867
(lp1868
I7
aI1
aI190
aasS'f2_1'
p1869
(lp1870
(lp1871
I129
aI3
aI108
aa(lp1872
I41
aI69
aI500
aasS'f2_0'
p1873
(lp1874
(lp1875
I129
aI2
aI107
aa(lp1876
I255
aI9
aI241
aa(lp1877
I41
aI29
aI470
aasS'f2_3'
p1878
(lp1879
(lp1880
I255
aI1
aI249
aa(lp1881
I41
aI23
aI500
aasS'f2_2'
p1882
(lp1883
(lp1884
I255
aI1
aI248
aa(lp1885
I41
aI6
aI500
aasS'f2_5'
p1886
(lp1887
(lp1888
I41
aI111
aI499
aasS'f2_4'
p1889
(lp1890
(lp1891
I255
aI9
aI242
aa(lp1892
I41
aI114
aI500
aasS'f13_8'
p1893
(lp1894
(lp1895
I93
aI47
aI500
aasS'f13_9'
p1896
(lp1897
(lp1898
I93
aI122
aI497
aasS'f15_4'
p1899
(lp1900
(lp1901
I192
aI6
aI500
aasS'f15_5'
p1902
(lp1903
(lp1904
I248
aI9
aI109
aasS'f15_6'
p1905
(lp1906
(lp1907
I256
aI4
aI189
aasS'f15_7'
p1908
(lp1909
(lp1910
I256
aI4
aI192
aa(lp1911
I192
aI13
aI500
aasS'f15_0'
p1912
(lp1913
(lp1914
I103
aI3
aI190
aasS'f15_1'
p1915
(lp1916
(lp1917
I103
aI3
aI213
aasS'f15_2'
p1918
(lp1919
(lp1920
I257
aI3
aI385
aa(lp1921
I103
aI1
aI173
aasS'f0_8'
p1922
(lp1923
(lp1924
I258
aI1
aI190
aa(lp1925
I189
aI190
aI498
aasS'f0_7'
p1926
(lp1927
(lp1928
I259
aI125
aI344
aasS'f0_6'
p1929
(lp1930
(lp1931
I260
aI23
aI452
aa(lp1932
I261
aI22
aI259
aasS'f0_5'
p1933
(lp1934
(lp1935
I261
aI5
aI259
aasS'f0_4'
p1936
(lp1937
(lp1938
I260
aI23
aI452
aa(lp1939
I261
aI6
aI253
aasS'f0_3'
p1940
(lp1941
(lp1942
I97
aI218
aI475
aa(lp1943
I71
aI1
aI233
aasS'f0_2'
p1944
(lp1945
(lp1946
I259
aI125
aI344
aa(lp1947
I97
aI234
aI459
aa(lp1948
I71
aI3
aI187
aasS'f0_1'
p1949
(lp1950
(lp1951
I71
aI1
aI233
aasS'f0_0'
p1952
(lp1953
(lp1954
I262
aI11
aI424
aa(lp1955
I97
aI218
aI463
aa(lp1956
I71
aI1
aI232
aasS'ID_40_F1_19_F2_7_G_3_SplitPt_247_GenID_0'
p1957
(lp1958
(lp1959
I36
aI127
aI238
aa(lp1960
I21
aI253
aI500
aasS'ID_160_F1_14_F2_13_G_2_SplitPt_131_GenID_0'
p1961
(lp1962
(lp1963
I93
aI145
aI499
aasS'ID_389_F1_15_F2_16_G_3_SplitPt_184_GenID_0'
p1964
(lp1965
(lp1966
I120
aI1
aI184
aa(lp1967
I263
aI182
aI488
aasS'ID_443_F1_9_F2_13_G_2_SplitPt_179_GenID_0'
p1968
(lp1969
(lp1970
I78
aI183
aI496
aasS'f14_19'
p1971
(lp1972
(lp1973
I14
aI103
aI500
aasS'ID_399_F1_7_F2_3_G_3_SplitPt_163_GenID_0'
p1974
(lp1975
(lp1976
I264
aI356
aI489
aa(lp1977
I104
aI9
aI170
aasS'ID_450_F1_11_F2_11_G_2_SplitPt_155_GenID_0'
p1978
(lp1979
(lp1980
I154
aI4
aI238
aa(lp1981
I87
aI197
aI485
aasS'f16_13'
p1982
(lp1983
(lp1984
I19
aI1
aI195
aa(lp1985
I17
aI74
aI500
aasS'f16_12'
p1986
(lp1987
(lp1988
I19
aI2
aI221
aa(lp1989
I17
aI110
aI499
aasS'f16_11'
p1990
(lp1991
(lp1992
I212
aI12
aI229
aa(lp1993
I17
aI122
aI494
aasS'f16_10'
p1994
(lp1995
(lp1996
I212
aI4
aI230
aa(lp1997
I17
aI126
aI494
aasS'f16_17'
p1998
(lp1999
(lp2000
I263
aI83
aI498
aasS'f16_16'
p2001
(lp2002
(lp2003
I263
aI177
aI498
aasS'f16_15'
p2004
(lp2005
(lp2006
I19
aI1
aI192
aa(lp2007
I17
aI118
aI500
aasS'f16_14'
p2008
(lp2009
(lp2010
I19
aI1
aI200
aa(lp2011
I17
aI118
aI498
aasS'ID_483_F1_15_F2_8_G_2_SplitPt_133_GenID_0'
p2012
(lp2013
(lp2014
I58
aI137
aI483
aasS'ID_506_F1_6_F2_2_G_3_SplitPt_201_GenID_0'
p2015
(lp2016
(lp2017
I265
aI108
aI202
aa(lp2018
I41
aI188
aI495
aasS'f16_18'
p2019
(lp2020
(lp2021
I263
aI184
aI500
aasS'ID_20_F1_13_F2_16_G_2_SplitPt_73_GenID_0'
p2022
(lp2023
(lp2024
I116
aI64
aI494
aasS'ID_82_F1_6_F2_18_G_2_SplitPt_97_GenID_0'
p2025
(lp2026
(lp2027
I28
aI119
aI466
aasS'ID_131_F1_4_F2_17_G_3_SplitPt_239_GenID_0'
p2028
(lp2029
(lp2030
I247
aI3
aI249
aa(lp2031
I52
aI240
aI495
aasS'ID_420_F1_5_F2_7_G_3_SplitPt_97_GenID_0'
p2032
(lp2033
(lp2034
I2
aI4
aI98
aa(lp2035
I21
aI104
aI500
aasS'ID_487_F1_13_F2_8_G_2_SplitPt_228_GenID_0'
p2036
(lp2037
(lp2038
I134
aI100
aI230
aa(lp2039
I198
aI265
aI450
aa(lp2040
I133
aI1
aI214
aasS'ID_314_F1_18_F2_17_G_2_SplitPt_113_GenID_0'
p2041
(lp2042
(lp2043
I4
aI108
aI497
aasS'ID_223_F1_16_F2_19_G_4_SplitPt_155_GenID_0'
p2044
(lp2045
(lp2046
I182
aI153
aI238
aa(lp2047
I77
aI1
aI155
aa(lp2048
I30
aI155
aI500
aasS'ID_210_F1_2_F2_15_G_4_SplitPt_213_GenID_0'
p2049
(lp2050
(lp2051
I60
aI1
aI220
aa(lp2052
I16
aI200
aI500
aasS'f6_24'
p2053
(lp2054
(lp2055
I266
aI7
aI195
aa(lp2056
I75
aI110
aI498
aasS'f6_25'
p2057
(lp2058
(lp2059
I266
aI7
aI202
aa(lp2060
I75
aI108
aI500
aasS'f6_26'
p2061
(lp2062
(lp2063
I266
aI5
aI202
aa(lp2064
I75
aI115
aI493
aasS'f6_27'
p2065
(lp2066
(lp2067
I75
aI50
aI498
aasS'f6_20'
p2068
(lp2069
(lp2070
I102
aI5
aI162
aasS'f6_21'
p2071
(lp2072
(lp2073
I102
aI5
aI176
aa(lp2074
I75
aI61
aI493
aasS'f6_22'
p2075
(lp2076
(lp2077
I102
aI1
aI178
aa(lp2078
I75
aI134
aI477
aasS'f6_23'
p2079
(lp2080
(lp2081
I102
aI1
aI174
aa(lp2082
I75
aI64
aI391
aasS'ID_283_F1_18_F2_1_G_2_SplitPt_224_GenID_0'
p2083
(lp2084
(lp2085
I201
aI293
aI493
aa(lp2086
I29
aI1
aI218
aasS'f6_28'
p2087
(lp2088
(lp2089
I183
aI2
aI117
aa(lp2090
I75
aI26
aI498
aasS'f6_29'
p2091
(lp2092
(lp2093
I184
aI107
aI247
aasS'ID_43_F1_5_F2_8_G_2_SplitPt_136_GenID_0'
p2094
(lp2095
(lp2096
I227
aI249
aI355
aa(lp2097
I181
aI4
aI160
aasS'ID_397_F1_4_F2_6_G_2_SplitPt_62_GenID_0'
p2098
(lp2099
(lp2100
I75
aI61
aI477
aasS'f1_25'
p2101
(lp2102
(lp2103
I267
aI1
aI160
aa(lp2104
I268
aI83
aI490
aasS'f1_24'
p2105
(lp2106
(lp2107
I267
aI1
aI138
aasS'f1_27'
p2108
(lp2109
(lp2110
I98
aI19
aI263
aa(lp2111
I267
aI1
aI153
aasS'f1_26'
p2112
(lp2113
(lp2114
I98
aI19
aI253
aa(lp2115
I267
aI1
aI154
aa(lp2116
I268
aI79
aI500
aasS'f1_21'
p2117
(lp2118
(lp2119
I269
aI4
aI226
aa(lp2120
I32
aI61
aI494
aasS'f1_20'
p2121
(lp2122
(lp2123
I269
aI2
aI226
aasS'f1_23'
p2124
(lp2125
(lp2126
I269
aI13
aI199
aa(lp2127
I32
aI98
aI494
aasS'ID_318_F1_18_F2_3_G_3_SplitPt_50_GenID_0'
p2128
(lp2129
(lp2130
I270
aI1
aI55
aa(lp2131
I109
aI61
aI498
aasS'f14_15'
p2132
(lp2133
(lp2134
I224
aI206
aI496
aasS'f14_17'
p2135
(lp2136
(lp2137
I242
aI1
aI235
aa(lp2138
I14
aI69
aI500
aasS'f14_16'
p2139
(lp2140
(lp2141
I242
aI1
aI240
aa(lp2142
I14
aI2
aI500
aasS'f1_29'
p2143
(lp2144
(lp2145
I62
aI1
aI109
aa(lp2146
I96
aI57
aI500
aasS'f1_28'
p2147
(lp2148
(lp2149
I62
aI1
aI108
aa(lp2150
I96
aI18
aI500
aasS'ID_75_F1_5_F2_16_G_3_SplitPt_109_GenID_0'
p2151
(lp2152
(lp2153
I271
aI111
aI495
aa(lp2154
I218
aI1
aI150
aasS'ID_85_F1_13_F2_7_G_3_SplitPt_97_GenID_0'
p2155
(lp2156
(lp2157
I272
aI1
aI98
aa(lp2158
I21
aI91
aI496
aasS'ID_50_F1_4_F2_10_G_3_SplitPt_120_GenID_0'
p2159
(lp2160
(lp2161
I226
aI1
aI121
aa(lp2162
I131
aI111
aI500
aasS'ID_209_F1_14_F2_11_G_2_SplitPt_101_GenID_0'
p2163
(lp2164
(lp2165
I146
aI104
aI498
aasS'ID_119_F1_0_F2_3_G_4_SplitPt_243_GenID_0'
p2166
(lp2167
(lp2168
I273
aI1
aI259
aa(lp2169
I274
aI244
aI500
aasS'ID_128_F1_2_F2_19_G_4_SplitPt_242_GenID_0'
p2170
(lp2171
(lp2172
I255
aI1
aI246
aa(lp2173
I64
aI230
aI500
aasS'ID_461_F1_3_F2_6_G_2_SplitPt_75_GenID_0'
p2174
(lp2175
(lp2176
I75
aI177
aI482
aasS'f2_31'
p2177
(lp2178
(lp2179
I138
aI17
aI232
aa(lp2180
I41
aI233
aI499
aasS'f2_30'
p2181
(lp2182
(lp2183
I41
aI197
aI500
aasS'ID_436_F1_10_F2_17_G_2_SplitPt_133_GenID_0'
p2184
(lp2185
(lp2186
I275
aI132
aI500
aasS'f7_23'
p2187
(lp2188
(lp2189
I104
aI1
aI157
aa(lp2190
I21
aI59
aI500
aasS'ID_315_F1_4_F2_3_G_3_SplitPt_234_GenID_0'
p2191
(lp2192
(lp2193
I237
aI6
aI230
aa(lp2194
I167
aI136
aI500
aasS'ID_317_F1_12_F2_14_G_3_SplitPt_241_GenID_0'
p2195
(lp2196
(lp2197
I14
aI223
aI499
aa(lp2198
I178
aI3
aI246
aasS'f13_30'
p2199
(lp2200
(lp2201
I272
aI1
aI98
aa(lp2202
I78
aI99
aI487
aasS'f13_31'
p2203
(lp2204
(lp2205
I78
aI108
aI484
aasS'ID_28_F1_19_F2_6_G_3_SplitPt_131_GenID_0'
p2206
(lp2207
(lp2208
I180
aI1
aI148
aa(lp2209
I244
aI131
aI500
aasS'f8_13'
p2210
(lp2211
(lp2212
I58
aI4
aI499
aasS'f8_12'
p2213
(lp2214
(lp2215
I58
aI4
aI499
aasS'ID_36_F1_14_F2_4_G_3_SplitPt_231_GenID_0'
p2216
(lp2217
(lp2218
I223
aI232
aI496
aa(lp2219
I242
aI1
aI240
aasS'ID_482_F1_17_F2_3_G_2_SplitPt_52_GenID_0'
p2220
(lp2221
(lp2222
I109
aI38
aI445
aasS'ID_60_F1_17_F2_7_G_4_SplitPt_58_GenID_0'
p2223
(lp2224
(lp2225
I276
aI59
aI106
aa(lp2226
I246
aI1
aI58
aasS'f8_16'
p2227
(lp2228
(lp2229
I110
aI61
aI234
aasS'ID_330_F1_12_F2_1_G_3_SplitPt_142_GenID_0'
p2230
(lp2231
(lp2232
I277
aI1
aI147
aa(lp2233
I32
aI144
aI494
aasS'f8_14'
p2234
(lp2235
(lp2236
I58
aI1
aI493
aasS'ID_340_F1_2_F2_8_G_3_SplitPt_177_GenID_0'
p2237
(lp2238
(lp2239
I138
aI1
aI178
aa(lp2240
I58
aI163
aI500
aasS'f8_19'
p2241
(lp2242
(lp2243
I278
aI40
aI500
aasS'f8_18'
p2244
(lp2245
(lp2246
I110
aI12
aI207
aa(lp2247
I278
aI98
aI500
aasS'ID_100_F1_19_F2_1_G_2_SplitPt_248_GenID_0'
p2248
(lp2249
(lp2250
I35
aI7
aI241
aa(lp2251
I32
aI249
aI493
aasS'ID_371_F1_0_F2_15_G_4_SplitPt_102_GenID_0'
p2252
(lp2253
(lp2254
I279
aI1
aI105
aa(lp2255
I26
aI102
aI500
aasS'ID_92_F1_16_F2_13_G_2_SplitPt_219_GenID_0'
p2256
(lp2257
(lp2258
I85
aI391
aI487
aa(lp2259
I280
aI3
aI215
aasS'ID_385_F1_17_F2_1_G_2_SplitPt_237_GenID_0'
p2260
(lp2261
(lp2262
I281
aI2
aI256
aasS'ID_384_F1_8_F2_0_G_3_SplitPt_202_GenID_0'
p2263
(lp2264
(lp2265
I101
aI203
aI499
aa(lp2266
I58
aI5
aI202
aasS'ID_346_F1_5_F2_6_G_4_SplitPt_109_GenID_0'
p2267
(lp2268
(lp2269
I265
aI108
aI202
aa(lp2270
I2
aI1
aI110
aasS'ID_110_F1_14_F2_18_G_4_SplitPt_230_GenID_0'
p2271
(lp2272
(lp2273
I50
aI1
aI257
aa(lp2274
I28
aI180
aI500
aasS'ID_359_F1_10_F2_13_G_2_SplitPt_70_GenID_0'
p2275
(lp2276
(lp2277
I78
aI70
aI499
aasS'f18_1'
p2278
(lp2279
(lp2280
I29
aI6
aI194
aa(lp2281
I69
aI88
aI488
aasS'f18_0'
p2282
(lp2283
(lp2284
I29
aI7
aI200
aa(lp2285
I69
aI86
aI487
aasS'f18_3'
p2286
(lp2287
(lp2288
I29
aI1
aI201
aa(lp2289
I69
aI92
aI498
aasS'f18_2'
p2290
(lp2291
(lp2292
I29
aI1
aI218
aa(lp2293
I69
aI155
aI489
aasS'ID_402_F1_6_F2_19_G_4_SplitPt_112_GenID_0'
p2294
(lp2295
(lp2296
I183
aI1
aI118
aa(lp2297
I182
aI124
aI240
aasS'f18_4'
p2298
(lp2299
(lp2300
I282
aI1
aI110
aa(lp2301
I69
aI66
aI499
aasS'f18_7'
p2302
(lp2303
(lp2304
I283
aI63
aI213
aa(lp2305
I282
aI1
aI114
aa(lp2306
I69
aI96
aI482
aasS'f18_6'
p2307
(lp2308
(lp2309
I283
aI55
aI213
aa(lp2310
I282
aI1
aI99
aasS'f18_9'
p2311
(lp2312
(lp2313
I270
aI1
aI48
aa(lp2314
I284
aI11
aI181
aasS'f18_8'
p2315
(lp2316
(lp2317
I270
aI1
aI53
aa(lp2318
I69
aI47
aI495
aasS'ID_353_F1_12_F2_13_G_2_SplitPt_95_GenID_0'
p2319
(lp2320
(lp2321
I136
aI71
aI489
aasS'ID_285_F1_5_F2_0_G_2_SplitPt_80_GenID_0'
p2322
(lp2323
(lp2324
I101
aI50
aI493
aasS'f14_18'
p2325
(lp2326
(lp2327
I14
aI101
aI500
aasS'ID_234_F1_17_F2_16_G_2_SplitPt_61_GenID_0'
p2328
(lp2329
(lp2330
I17
aI37
aI402
aasS'f1_22'
p2331
(lp2332
(lp2333
I32
aI61
aI494
aasS'f9_30'
p2334
(lp2335
(lp2336
I215
aI38
aI303
aa(lp2337
I111
aI53
aI499
aa(lp2338
I195
aI4
aI189
aasS'f9_31'
p2339
(lp2340
(lp2341
I111
aI74
aI500
aa(lp2342
I195
aI1
aI201
aasS'f5_30'
p2343
(lp2344
(lp2345
I218
aI45
aI354
aa(lp2346
I89
aI162
aI500
aasS'f5_31'
p2347
(lp2348
(lp2349
I89
aI3
aI384
aasS'f19_11'
p2350
(lp2351
(lp2352
I172
aI8
aI471
aasS'ID_114_F1_18_F2_3_G_4_SplitPt_99_GenID_0'
p2353
(lp2354
(lp2355
I282
aI1
aI114
aa(lp2356
I109
aI88
aI500
aasS'f16_28'
p2357
(lp2358
(lp2359
I285
aI291
aI500
aa(lp2360
I280
aI1
aI215
aa(lp2361
I116
aI114
aI384
aasS'f16_29'
p2362
(lp2363
(lp2364
I116
aI64
aI498
aasS'f14_9'
p2365
(lp2366
(lp2367
I224
aI177
aI497
aasS'ID_427_F1_11_F2_2_G_3_SplitPt_149_GenID_0'
p2368
(lp2369
(lp2370
I154
aI1
aI209
aa(lp2371
I41
aI153
aI498
aasS'ID_297_F1_15_F2_4_G_4_SplitPt_243_GenID_0'
p2372
(lp2373
(lp2374
I286
aI176
aI235
aa(lp2375
I222
aI207
aI500
aasS'ID_407_F1_1_F2_7_G_4_SplitPt_103_GenID_0'
p2376
(lp2377
(lp2378
I202
aI1
aI115
aa(lp2379
I21
aI101
aI500
aasS'f16_23'
p2380
(lp2381
(lp2382
I106
aI1
aI174
aasS'f16_20'
p2383
(lp2384
(lp2385
I271
aI1
aI495
aasS'f16_21'
p2386
(lp2387
(lp2388
I271
aI1
aI495
aasS'f16_26'
p2389
(lp2390
(lp2391
I285
aI291
aI500
aa(lp2392
I116
aI70
aI498
aasS'f14_0'
p2393
(lp2394
(lp2395
I114
aI299
aI498
aa(lp2396
I108
aI35
aI492
aasS'f14_3'
p2397
(lp2398
(lp2399
I228
aI213
aI352
aasS'f14_2'
p2400
(lp2401
(lp2402
I107
aI17
aI208
aa(lp2403
I108
aI89
aI497
aasS'f16_3'
p2404
(lp2405
(lp2406
I213
aI161
aI327
aasS'f16_1'
p2407
(lp2408
(lp2409
I287
aI1
aI162
aa(lp2410
I17
aI114
aI500
aasS'f16_0'
p2411
(lp2412
(lp2413
I287
aI1
aI97
aa(lp2414
I17
aI11
aI500
aasS'f16_6'
p2415
(lp2416
(lp2417
I288
aI12
aI434
aasS'f0_28'
p2418
(lp2419
(lp2420
I132
aI1
aI118
aa(lp2421
I101
aI111
aI500
aasS'f16_4'
p2422
(lp2423
(lp2424
I288
aI12
aI434
aa(lp2425
I77
aI1
aI178
aasS'f0_26'
p2426
(lp2427
(lp2428
I101
aI106
aI489
aasS'f0_27'
p2429
(lp2430
(lp2431
I101
aI88
aI486
aasS'f16_9'
p2432
(lp2433
(lp2434
I17
aI128
aI500
aasS'f16_8'
p2435
(lp2436
(lp2437
I17
aI11
aI500
aasS'f0_22'
p2438
(lp2439
(lp2440
I139
aI29
aI174
aa(lp2441
I101
aI203
aI500
aasS'ID_365_F1_17_F2_2_G_2_SplitPt_168_GenID_0'
p2442
(lp2443
(lp2444
I44
aI197
aI402
aa(lp2445
I193
aI1
aI154
aasS'f0_20'
p2446
(lp2447
(lp2448
I139
aI1
aI180
aa(lp2449
I101
aI281
aI499
aasS'f0_21'
p2450
(lp2451
(lp2452
I191
aI1
aI65
aa(lp2453
I101
aI242
aI487
aasS'f17_21'
p2454
(lp2455
(lp2456
I229
aI1
aI234
aa(lp2457
I275
aI77
aI500
aasS'f17_20'
p2458
(lp2459
(lp2460
I229
aI1
aI212
aa(lp2461
I275
aI63
aI495
aasS'f17_23'
p2462
(lp2463
(lp2464
I229
aI33
aI216
aa(lp2465
I275
aI62
aI496
aasS'f17_22'
p2466
(lp2467
(lp2468
I229
aI1
aI218
aa(lp2469
I275
aI44
aI494
aasS'f17_25'
p2470
(lp2471
(lp2472
I4
aI108
aI500
aasS'f19_19'
p2473
(lp2474
(lp2475
I70
aI1
aI244
aa(lp2476
I30
aI99
aI500
aasS'f17_27'
p2477
(lp2478
(lp2479
I289
aI360
aI495
aasS'ID_423_F1_8_F2_6_G_4_SplitPt_53_GenID_0'
p2480
(lp2481
(lp2482
I169
aI1
aI74
aa(lp2483
I290
aI54
aI500
aasS'f17_29'
p2484
(lp2485
(lp2486
I289
aI360
aI495
aasS'f17_28'
p2487
(lp2488
(lp2489
I4
aI226
aI498
aasS'ID_358_F1_5_F2_3_G_2_SplitPt_87_GenID_0'
p2490
(lp2491
(lp2492
I163
aI78
aI486
aasS'ID_224_F1_9_F2_13_G_2_SplitPt_132_GenID_0'
p2493
(lp2494
(lp2495
I136
aI139
aI488
aasS'f14_10'
p2496
(lp2497
(lp2498
I224
aI274
aI490
aasS'ID_503_F1_5_F2_17_G_4_SplitPt_235_GenID_0'
p2499
(lp2500
(lp2501
I289
aI389
aI478
aa(lp2502
I218
aI1
aI237
aasS'ID_265_F1_7_F2_15_G_4_SplitPt_106_GenID_0'
p2503
(lp2504
(lp2505
I276
aI59
aI106
aa(lp2506
I84
aI112
aI249
aa(lp2507
I174
aI1
aI55
aasS'ID_89_F1_10_F2_9_G_2_SplitPt_124_GenID_0'
p2508
(lp2509
(lp2510
I40
aI15
aI112
aa(lp2511
I23
aI118
aI486
aasS'ID_225_F1_3_F2_7_G_4_SplitPt_196_GenID_0'
p2512
(lp2513
(lp2514
I158
aI284
aI405
aa(lp2515
I220
aI117
aI194
aasS'ID_186_F1_8_F2_7_G_4_SplitPt_97_GenID_0'
p2516
(lp2517
(lp2518
I21
aI82
aI500
aa(lp2519
I58
aI1
aI97
aasS'ID_231_F1_9_F2_6_G_2_SplitPt_106_GenID_0'
p2520
(lp2521
(lp2522
I184
aI101
aI248
aa(lp2523
I75
aI104
aI475
aasS'f11_29'
p2524
(lp2525
(lp2526
I86
aI2
aI93
aa(lp2527
I87
aI203
aI499
aasS'f15_30'
p2528
(lp2529
(lp2530
I83
aI4
aI101
aa(lp2531
I10
aI144
aI497
aasS'f10_8'
p2532
(lp2533
(lp2534
I221
aI203
aI396
aasS'ID_492_F1_8_F2_5_G_4_SplitPt_194_GenID_0'
p2535
(lp2536
(lp2537
I217
aI134
aI500
aa(lp2538
I58
aI1
aI195
aasS'ID_94_F1_9_F2_2_G_3_SplitPt_211_GenID_0'
p2539
(lp2540
(lp2541
I43
aI213
aI500
aa(lp2542
I208
aI6
aI220
aasS'f10_1'
p2543
(lp2544
(lp2545
I186
aI12
aI238
aa(lp2546
I131
aI98
aI405
aasS'f10_0'
p2547
(lp2548
(lp2549
I186
aI12
aI257
aa(lp2550
I131
aI97
aI492
aasS'f10_3'
p2551
(lp2552
(lp2553
I40
aI1
aI91
aasS'f10_2'
p2554
(lp2555
(lp2556
I186
aI15
aI214
aa(lp2557
I40
aI1
aI112
aasS'f10_5'
p2558
(lp2559
(lp2560
I152
aI17
aI134
aasS'f10_4'
p2561
(lp2562
(lp2563
I152
aI17
aI140
aasS'f10_7'
p2564
(lp2565
(lp2566
I152
aI1
aI151
aa(lp2567
I131
aI19
aI495
aasS'f10_6'
p2568
(lp2569
(lp2570
I152
aI5
aI155
aa(lp2571
I131
aI111
aI500
aasS'f4_17'
p2572
(lp2573
(lp2574
I100
aI1
aI191
aasS'f4_16'
p2575
(lp2576
(lp2577
I291
aI74
aI333
aa(lp2578
I100
aI2
aI188
aasS'f4_15'
p2579
(lp2580
(lp2581
I226
aI1
aI164
aa(lp2582
I25
aI157
aI500
aasS'f4_14'
p2583
(lp2584
(lp2585
I25
aI7
aI500
aasS'f4_13'
p2586
(lp2587
(lp2588
I226
aI7
aI146
aa(lp2589
I25
aI266
aI500
aasS'f4_12'
p2590
(lp2591
(lp2592
I226
aI1
aI174
aa(lp2593
I25
aI41
aI498
aasS'f4_11'
p2594
(lp2595
(lp2596
I226
aI20
aI140
aa(lp2597
I25
aI56
aI500
aasS'ID_480_F1_12_F2_2_G_4_SplitPt_242_GenID_0'
p2598
(lp2599
(lp2600
I292
aI1
aI120
aa(lp2601
I41
aI219
aI500
aasS'f12_7'
p2602
(lp2603
(lp2604
I293
aI31
aI352
aa(lp2605
I95
aI2
aI209
aasS'f12_6'
p2606
(lp2607
(lp2608
I95
aI8
aI228
aa(lp2609
I178
aI75
aI461
aasS'f12_5'
p2610
(lp2611
(lp2612
I294
aI112
aI341
aa(lp2613
I95
aI1
aI178
aasS'f12_4'
p2614
(lp2615
(lp2616
I293
aI31
aI352
aa(lp2617
I95
aI1
aI193
aasS'f12_3'
p2618
(lp2619
(lp2620
I292
aI1
aI129
aasS'f12_2'
p2621
(lp2622
(lp2623
I292
aI1
aI120
aasS'f4_19'
p2624
(lp2625
(lp2626
I100
aI42
aI185
aasS'f12_0'
p2627
(lp2628
(lp2629
I294
aI112
aI341
aasS'f3_27'
p2630
(lp2631
(lp2632
I264
aI356
aI489
aa(lp2633
I168
aI1
aI61
aa(lp2634
I163
aI166
aI423
aasS'f3_26'
p2635
(lp2636
(lp2637
I295
aI42
aI492
aa(lp2638
I168
aI1
aI59
aasS'f3_24'
p2639
(lp2640
(lp2641
I239
aI98
aI346
aasS'f3_23'
p2642
(lp2643
(lp2644
I238
aI253
aI361
aasS'f3_22'
p2645
(lp2646
(lp2647
I274
aI1
aI497
aasS'f3_21'
p2648
(lp2649
(lp2650
I240
aI150
aI357
aasS'f3_20'
p2651
(lp2652
(lp2653
I274
aI67
aI500
aasS'ID_81_F1_11_F2_7_G_2_SplitPt_121_GenID_0'
p2654
(lp2655
(lp2656
I252
aI2
aI118
aa(lp2657
I21
aI117
aI500
aasS'ID_496_F1_19_F2_18_G_4_SplitPt_157_GenID_0'
p2658
(lp2659
(lp2660
I67
aI1
aI223
aa(lp2661
I28
aI100
aI500
aasS'f3_28'
p2662
(lp2663
(lp2664
I22
aI3
aI122
aasS'ID_497_F1_9_F2_12_G_3_SplitPt_159_GenID_0'
p2665
(lp2666
(lp2667
I195
aI1
aI169
aa(lp2668
I155
aI132
aI497
aasS'ID_202_F1_15_F2_0_G_4_SplitPt_173_GenID_0'
p2669
(lp2670
(lp2671
I103
aI1
aI173
aa(lp2672
I189
aI174
aI500
aasS'ID_382_F1_7_F2_6_G_4_SplitPt_55_GenID_0'
p2673
(lp2674
(lp2675
I174
aI1
aI55
aa(lp2676
I290
aI44
aI500
aasS'f6_19'
p2677
(lp2678
(lp2679
I75
aI90
aI500
aasS'f6_18'
p2680
(lp2681
(lp2682
I296
aI1
aI79
aa(lp2683
I75
aI90
aI496
aasS'ID_151_F1_16_F2_2_G_3_SplitPt_102_GenID_0'
p2684
(lp2685
(lp2686
I19
aI1
aI147
aa(lp2687
I41
aI108
aI500
aasS'f6_15'
p2688
(lp2689
(lp2690
I290
aI57
aI480
aasS'f6_14'
p2691
(lp2692
(lp2693
I290
aI54
aI468
aasS'f6_17'
p2694
(lp2695
(lp2696
I161
aI5
aI226
aa(lp2697
I75
aI58
aI484
aasS'f6_16'
p2698
(lp2699
(lp2700
I194
aI4
aI54
aa(lp2701
I75
aI92
aI477
aasS'f6_11'
p2702
(lp2703
(lp2704
I290
aI76
aI494
aasS'f6_10'
p2705
(lp2706
(lp2707
I99
aI277
aI494
aasS'f6_13'
p2708
(lp2709
(lp2710
I290
aI52
aI500
aasS'f6_12'
p2711
(lp2712
(lp2713
I290
aI54
aI500
aasS'ID_280_F1_3_F2_19_G_4_SplitPt_122_GenID_0'
p2714
(lp2715
(lp2716
I22
aI1
aI136
aa(lp2717
I172
aI123
aI500
aasS'ID_430_F1_13_F2_16_G_3_SplitPt_232_GenID_0'
p2718
(lp2719
(lp2720
I136
aI3
aI302
aa(lp2721
I17
aI241
aI500
aasS'ID_438_F1_17_F2_0_G_4_SplitPt_215_GenID_0'
p2722
(lp2723
(lp2724
I189
aI216
aI500
aa(lp2725
I53
aI1
aI219
aasS'ID_320_F1_9_F2_17_G_2_SplitPt_182_GenID_0'
p2726
(lp2727
(lp2728
I52
aI197
aI497
aasS'ID_241_F1_18_F2_9_G_2_SplitPt_239_GenID_0'
p2729
(lp2730
(lp2731
I283
aI39
aI220
aa(lp2732
I63
aI233
aI491
aasS'ID_400_F1_1_F2_19_G_4_SplitPt_155_GenID_0'
p2733
(lp2734
(lp2735
I179
aI1
aI155
aa(lp2736
I182
aI153
aI240
aasS'f15_15'
p2737
(lp2738
(lp2739
I26
aI50
aI496
aasS'ID_343_F1_5_F2_0_G_2_SplitPt_146_GenID_0'
p2740
(lp2741
(lp2742
I101
aI149
aI493
aasS'ID_460_F1_8_F2_11_G_4_SplitPt_224_GenID_0'
p2743
(lp2744
(lp2745
I54
aI98
aI224
aa(lp2746
I87
aI225
aI500
aasS'ID_39_F1_7_F2_12_G_4_SplitPt_188_GenID_0'
p2747
(lp2748
(lp2749
I297
aI108
aI194
aa(lp2750
I298
aI166
aI500
aasS'ID_37_F1_3_F2_17_G_4_SplitPt_54_GenID_0'
p2751
(lp2752
(lp2753
I168
aI1
aI61
aa(lp2754
I275
aI52
aI496
aasS'f15_8'
p2755
(lp2756
(lp2757
I121
aI123
aI500
aasS'ID_245_F1_11_F2_5_G_2_SplitPt_211_GenID_0'
p2758
(lp2759
(lp2760
I145
aI71
aI223
aasS'ID_96_F1_7_F2_1_G_2_SplitPt_52_GenID_0'
p2761
(lp2762
(lp2763
I268
aI37
aI341
aasS'f7_30'
p2764
(lp2765
(lp2766
I20
aI3
aI227
aa(lp2767
I8
aI85
aI500
aasS'f7_31'
p2768
(lp2769
(lp2770
I20
aI1
aI227
aa(lp2771
I8
aI109
aI500
aasS'f12_17'
p2772
(lp2773
(lp2774
I130
aI1
aI93
aa(lp2775
I298
aI170
aI500
aasS'f12_16'
p2776
(lp2777
(lp2778
I130
aI1
aI98
aa(lp2779
I298
aI189
aI494
aasS'f12_15'
p2780
(lp2781
(lp2782
I241
aI7
aI132
aasS'f12_14'
p2783
(lp2784
(lp2785
I241
aI7
aI140
aasS'f12_13'
p2786
(lp2787
(lp2788
I299
aI7
aI415
aa(lp2789
I241
aI1
aI135
aasS'f12_12'
p2790
(lp2791
(lp2792
I241
aI4
aI173
aasS'f12_11'
p2793
(lp2794
(lp2795
I90
aI1
aI154
aasS'f12_10'
p2796
(lp2797
(lp2798
I90
aI2
aI150
aasS'ID_235_F1_1_F2_4_G_2_SplitPt_241_GenID_0'
p2799
(lp2800
(lp2801
I68
aI7
aI190
aa(lp2802
I25
aI232
aI483
aasS'f12_19'
p2803
(lp2804
(lp2805
I277
aI1
aI147
aa(lp2806
I298
aI194
aI500
aasS'f12_18'
p2807
(lp2808
(lp2809
I277
aI1
aI147
aa(lp2810
I298
aI180
aI483
aasS'ID_69_F1_3_F2_9_G_4_SplitPt_161_GenID_0'
p2811
(lp2812
(lp2813
I196
aI58
aI144
aa(lp2814
I173
aI103
aI164
aa(lp2815
I23
aI160
aI500
aasS'ID_212_F1_13_F2_1_G_3_SplitPt_123_GenID_0'
p2816
(lp2817
(lp2818
I170
aI144
aI275
aa(lp2819
I300
aI2
aI122
aasS'ID_180_F1_11_F2_17_G_2_SplitPt_234_GenID_0'
p2820
(lp2821
(lp2822
I253
aI64
aI236
aa(lp2823
I4
aI232
aI490
aasS'ID_230_F1_12_F2_11_G_4_SplitPt_138_GenID_0'
p2824
(lp2825
(lp2826
I301
aI1
aI140
aa(lp2827
I146
aI130
aI500
aasS'ID_41_F1_8_F2_5_G_3_SplitPt_87_GenID_0'
p2828
(lp2829
(lp2830
I185
aI54
aI500
aasS'ID_298_F1_0_F2_0_G_4_SplitPt_93_GenID_0'
p2831
(lp2832
(lp2833
I188
aI1
aI87
aa(lp2834
I273
aI96
aI242
aasS'ID_178_F1_1_F2_7_G_4_SplitPt_194_GenID_0'
p2835
(lp2836
(lp2837
I206
aI1
aI256
aa(lp2838
I8
aI192
aI500
aasS'f2_8'
p2839
(lp2840
(lp2841
I41
aI151
aI490
aasS'ID_395_F1_13_F2_16_G_2_SplitPt_95_GenID_0'
p2842
(lp2843
(lp2844
I116
aI48
aI469
aasS'ID_295_F1_17_F2_10_G_2_SplitPt_115_GenID_0'
p2845
(lp2846
(lp2847
I124
aI109
aI498
aasS'ID_31_F1_10_F2_16_G_3_SplitPt_235_GenID_0'
p2848
(lp2849
(lp2850
I73
aI2
aI235
aa(lp2851
I263
aI233
aI500
aasS'f11_30'
p2852
(lp2853
(lp2854
I302
aI1
aI224
aa(lp2855
I87
aI64
aI500
aasS'f11_31'
p2856
(lp2857
(lp2858
I302
aI2
aI224
aa(lp2859
I87
aI64
aI500
aasS'ID_303_F1_18_F2_6_G_4_SplitPt_153_GenID_0'
p2860
(lp2861
(lp2862
I244
aI152
aI500
aa(lp2863
I29
aI1
aI159
aasS'ID_221_F1_0_F2_6_G_4_SplitPt_65_GenID_0'
p2864
(lp2865
(lp2866
I191
aI1
aI65
aa(lp2867
I99
aI262
aI479
aasS'ID_247_F1_10_F2_13_G_2_SplitPt_166_GenID_0'
p2868
(lp2869
(lp2870
I136
aI178
aI488
aasS'ID_421_F1_5_F2_1_G_4_SplitPt_78_GenID_0'
p2871
(lp2872
(lp2873
I137
aI79
aI154
aa(lp2874
I216
aI1
aI84
aasS'f19_24'
p2875
(lp2876
(lp2877
I47
aI24
aI486
aa(lp2878
I35
aI13
aI222
aasS'ID_479_F1_14_F2_7_G_3_SplitPt_247_GenID_0'
p2879
(lp2880
(lp2881
I50
aI1
aI247
aa(lp2882
I8
aI250
aI500
aasS'f8_17'
p2883
(lp2884
(lp2885
I278
aI98
aI482
aasS'ID_44_F1_17_F2_11_G_4_SplitPt_161_GenID_0'
p2886
(lp2887
(lp2888
I229
aI1
aI161
aa(lp2889
I162
aI162
aI500
aasS'f8_15'
p2890
(lp2891
(lp2892
I58
aI1
aI498
aasS'ID_12_F1_5_F2_13_G_2_SplitPt_180_GenID_0'
p2893
(lp2894
(lp2895
I93
aI180
aI481
aasS'ID_474_F1_10_F2_6_G_4_SplitPt_148_GenID_0'
p2896
(lp2897
(lp2898
I73
aI1
aI232
aa(lp2899
I75
aI148
aI500
aasS'f0_19'
p2900
(lp2901
(lp2902
I101
aI49
aI500
aasS'ID_276_F1_10_F2_9_G_2_SplitPt_116_GenID_0'
p2903
(lp2904
(lp2905
I79
aI112
aI487
aasS'ID_311_F1_11_F2_8_G_4_SplitPt_224_GenID_0'
p2906
(lp2907
(lp2908
I113
aI223
aI500
aa(lp2909
I302
aI1
aI229
aasS'ID_51_F1_7_F2_8_G_1_SplitPt_188_GenID_0'
p2910
(lp2911
(lp2912
I58
aI317
aI495
aasS'f18_19'
p2913
(lp2914
(lp2915
I28
aI8
aI482
aasS'f18_18'
p2916
(lp2917
(lp2918
I28
aI73
aI492
aasS'f12_28'
p2919
(lp2920
(lp2921
I164
aI1
aI307
aasS'ID_164_F1_9_F2_3_G_2_SplitPt_103_GenID_0'
p2922
(lp2923
(lp2924
I274
aI104
aI498
aasS'f14_8'
p2925
(lp2926
(lp2927
I224
aI169
aI500
aasS'f18_10'
p2928
(lp2929
(lp2930
I142
aI29
aI144
aasS'ID_48_F1_18_F2_14_G_3_SplitPt_99_GenID_0'
p2931
(lp2932
(lp2933
I31
aI8
aI119
aa(lp2934
I3
aI100
aI500
aasS'f18_12'
p2935
(lp2936
(lp2937
I31
aI12
aI81
aa(lp2938
I28
aI73
aI491
aasS'f18_15'
p2939
(lp2940
(lp2941
I284
aI11
aI141
aa(lp2942
I28
aI127
aI500
aasS'f18_14'
p2943
(lp2944
(lp2945
I284
aI17
aI189
aa(lp2946
I31
aI8
aI115
aa(lp2947
I28
aI128
aI500
aasS'f18_17'
p2948
(lp2949
(lp2950
I190
aI59
aI222
aasS'f18_16'
p2951
(lp2952
(lp2953
I28
aI8
aI500
aasS'f0_13'
p2954
(lp2955
(lp2956
I273
aI1
aI254
aa(lp2957
I189
aI93
aI500
aasS'ID_168_F1_2_F2_4_G_3_SplitPt_56_GenID_0'
p2958
(lp2959
(lp2960
I25
aI52
aI499
aasS'f0_12'
p2961
(lp2962
(lp2963
I273
aI1
aI242
aa(lp2964
I189
aI51
aI500
aasS'f12_24'
p2965
(lp2966
(lp2967
I165
aI158
aI376
aa(lp2968
I27
aI1
aI234
aasS'f14_28'
p2969
(lp2970
(lp2971
I3
aI6
aI248
aasS'f14_29'
p2972
(lp2973
(lp2974
I3
aI19
aI500
aasS'f19_3'
p2975
(lp2976
(lp2977
I64
aI154
aI495
aasS'ID_266_F1_0_F2_4_G_4_SplitPt_97_GenID_0'
p2978
(lp2979
(lp2980
I132
aI1
aI121
aa(lp2981
I25
aI97
aI498
aasS'f1_30'
p2982
(lp2983
(lp2984
I179
aI2
aI189
aa(lp2985
I96
aI18
aI500
aasS'f1_31'
p2986
(lp2987
(lp2988
I179
aI1
aI190
aa(lp2989
I96
aI52
aI500
aasS'f14_20'
p2990
(lp2991
(lp2992
I303
aI17
aI428
aa(lp2993
I50
aI3
aI227
aasS'f19_4'
p2994
(lp2995
(lp2996
I67
aI3
aI158
aa(lp2997
I64
aI154
aI500
aasS'f14_22'
p2998
(lp2999
(lp3000
I14
aI69
aI491
aa(lp3001
I50
aI1
aI247
aasS'f14_23'
p3002
(lp3003
(lp3004
I303
aI17
aI428
aa(lp3005
I14
aI246
aI499
aa(lp3006
I50
aI1
aI254
aasS'f19_30'
p3007
(lp3008
(lp3009
I66
aI236
aI500
aa(lp3010
I67
aI35
aI236
aasS'f19_31'
p3011
(lp3012
(lp3013
I66
aI244
aI498
aasS'f14_26'
p3014
(lp3015
(lp3016
I3
aI19
aI500
aasS'ID_211_F1_0_F2_8_G_3_SplitPt_241_GenID_0'
p3017
(lp3018
(lp3019
I261
aI5
aI255
aa(lp3020
I58
aI224
aI499
aasS'f10_11'
p3021
(lp3022
(lp3023
I304
aI3
aI396
aa(lp3024
I221
aI190
aI500
aasS'f10_10'
p3025
(lp3026
(lp3027
I221
aI192
aI499
aasS'f10_13'
p3028
(lp3029
(lp3030
I249
aI188
aI350
aasS'f10_12'
p3031
(lp3032
(lp3033
I140
aI400
aI498
aa(lp3034
I249
aI181
aI344
aa(lp3035
I73
aI1
aI235
aasS'f10_15'
p3036
(lp3037
(lp3038
I73
aI1
aI207
aasS'f10_14'
p3039
(lp3040
(lp3041
I249
aI181
aI397
aa(lp3042
I73
aI1
aI350
aasS'f10_17'
p3043
(lp3044
(lp3045
I243
aI1
aI159
aasS'f10_16'
p3046
(lp3047
(lp3048
I243
aI2
aI174
aa(lp3049
I234
aI7
aI500
aasS'f10_19'
p3050
(lp3051
(lp3052
I305
aI220
aI386
aasS'f10_18'
p3053
(lp3054
(lp3055
I234
aI1
aI451
aasS'f2_22'
p3056
(lp3057
(lp3058
I187
aI5
aI90
aa(lp3059
I61
aI33
aI500
aasS'f2_23'
p3060
(lp3061
(lp3062
I187
aI1
aI101
aa(lp3063
I60
aI19
aI207
aasS'f2_24'
p3064
(lp3065
(lp3066
I91
aI161
aI500
aa(lp3067
I138
aI1
aI178
aasS'f2_25'
p3068
(lp3069
(lp3070
I91
aI155
aI500
aa(lp3071
I138
aI1
aI176
aasS'f2_26'
p3072
(lp3073
(lp3074
I91
aI155
aI500
aa(lp3075
I138
aI1
aI232
aasS'ID_508_F1_12_F2_16_G_4_SplitPt_117_GenID_0'
p3076
(lp3077
(lp3078
I292
aI1
aI120
aa(lp3079
I17
aI111
aI500
aasS'ID_299_F1_3_F2_17_G_2_SplitPt_153_GenID_0'
p3080
(lp3081
(lp3082
I53
aI86
aI481
aasS'ID_163_F1_6_F2_18_G_4_SplitPt_89_GenID_0'
p3083
(lp3084
(lp3085
I245
aI1
aI113
aa(lp3086
I69
aI76
aI500
aasS'ID_348_F1_4_F2_4_G_4_SplitPt_230_GenID_0'
p3087
(lp3088
(lp3089
I55
aI4
aI95
aa(lp3090
I25
aI164
aI500
aasS'f13_25'
p3091
(lp3092
(lp3093
I78
aI74
aI494
aasS'f13_24'
p3094
(lp3095
(lp3096
I78
aI70
aI498
aasS'f13_27'
p3097
(lp3098
(lp3099
I78
aI127
aI500
aasS'f13_26'
p3100
(lp3101
(lp3102
I78
aI7
aI499
aasS'f13_21'
p3103
(lp3104
(lp3105
I254
aI1
aI247
aa(lp3106
I136
aI68
aI469
aasS'f13_20'
p3107
(lp3108
(lp3109
I254
aI1
aI241
aa(lp3110
I136
aI49
aI486
aasS'f13_23'
p3111
(lp3112
(lp3113
I136
aI3
aI490
aasS'f13_22'
p3114
(lp3115
(lp3116
I136
aI20
aI491
aasS'ID_116_F1_11_F2_19_G_2_SplitPt_202_GenID_0'
p3117
(lp3118
(lp3119
I250
aI2
aI140
aa(lp3120
I30
aI142
aI496
aasS'ID_322_F1_19_F2_15_G_4_SplitPt_238_GenID_0'
p3121
(lp3122
(lp3123
I13
aI1
aI102
aa(lp3124
I182
aI124
aI240
aa(lp3125
I16
aI239
aI500
aasS'f13_29'
p3126
(lp3127
(lp3128
I300
aI2
aI122
aa(lp3129
I78
aI124
aI495
aasS'f13_28'
p3130
(lp3131
(lp3132
I300
aI6
aI122
aa(lp3133
I78
aI10
aI500
aasS'ID_446_F1_19_F2_10_G_1_SplitPt_103_GenID_0'
p3134
(lp3135
(lp3136
I131
aI125
aI314
aasS'f8_11'
p3137
(lp3138
(lp3139
I58
aI74
aI462
aasS'ID_327_F1_2_F2_7_G_3_SplitPt_102_GenID_0'
p3140
(lp3141
(lp3142
I297
aI108
aI194
aa(lp3143
I187
aI1
aI101
aasS'ID_127_F1_1_F2_8_G_3_SplitPt_226_GenID_0'
p3144
(lp3145
(lp3146
I269
aI2
aI226
aa(lp3147
I58
aI228
aI499
aasS'ID_388_F1_4_F2_14_G_3_SplitPt_230_GenID_0'
p3148
(lp3149
(lp3150
I39
aI3
aI136
aa(lp3151
I108
aI232
aI500
aasS'ID_434_F1_6_F2_18_G_3_SplitPt_79_GenID_0'
p3152
(lp3153
(lp3154
I296
aI1
aI79
aa(lp3155
I28
aI77
aI499
aasS'ID_252_F1_16_F2_8_G_4_SplitPt_97_GenID_0'
p3156
(lp3157
(lp3158
I287
aI1
aI140
aa(lp3159
I278
aI98
aI500
aasS'ID_124_F1_1_F2_15_G_4_SplitPt_170_GenID_0'
p3160
(lp3161
(lp3162
I286
aI176
aI235
aa(lp3163
I233
aI1
aI170
aasS'f7_16'
p3164
(lp3165
(lp3166
I21
aI237
aI485
aasS'f17_15'
p3167
(lp3168
(lp3169
I281
aI2
aI256
aa(lp3170
I53
aI221
aI481
aasS'f13_19'
p3171
(lp3172
(lp3173
I135
aI1
aI176
aa(lp3174
I136
aI139
aI488
aasS'ID_271_F1_11_F2_14_G_3_SplitPt_248_GenID_0'
p3175
(lp3176
(lp3177
I143
aI1
aI247
aa(lp3178
I14
aI227
aI500
aasS'ID_316_F1_16_F2_12_G_3_SplitPt_149_GenID_0'
p3179
(lp3180
(lp3181
I280
aI1
aI154
aa(lp3182
I34
aI112
aI499
aasS'ID_268_F1_12_F2_17_G_2_SplitPt_67_GenID_0'
p3183
(lp3184
(lp3185
I275
aI40
aI500
aasS'f3_29'
p3186
(lp3187
(lp3188
I274
aI1
aI394
aasS'ID_91_F1_17_F2_11_G_2_SplitPt_203_GenID_0'
p3189
(lp3190
(lp3191
I87
aI203
aI500
aa(lp3192
I53
aI5
aI205
aasS'ID_442_F1_7_F2_1_G_3_SplitPt_89_GenID_0'
p3193
(lp3194
(lp3195
I104
aI1
aI123
aa(lp3196
I32
aI56
aI494
aasS'f17_10'
p3197
(lp3198
(lp3199
I166
aI1
aI201
aa(lp3200
I53
aI2
aI495
aasS'ID_5_F1_18_F2_11_G_2_SplitPt_167_GenID_0'
p3201
(lp3202
(lp3203
I162
aI141
aI491
aasS'ID_477_F1_11_F2_10_G_2_SplitPt_201_GenID_0'
p3204
(lp3205
(lp3206
I126
aI157
aI494
aasS'ID_8_F1_13_F2_6_G_4_SplitPt_135_GenID_0'
p3207
(lp3208
(lp3209
I7
aI1
aI148
aa(lp3210
I72
aI113
aI500
aasS'f14_7'
p3211
(lp3212
(lp3213
I107
aI1
aI222
aa(lp3214
I108
aI17
aI465
aasS'f0_10'
p3215
(lp3216
(lp3217
I189
aI161
aI500
aasS'f16_19'
p3218
(lp3219
(lp3220
I263
aI73
aI499
aasS'ID_67_F1_11_F2_5_G_4_SplitPt_223_GenID_0'
p3221
(lp3222
(lp3223
I86
aI2
aI93
aa(lp3224
I159
aI167
aI500
aasS'ID_248_F1_4_F2_16_G_2_SplitPt_182_GenID_0'
p3225
(lp3226
(lp3227
I226
aI20
aI174
aa(lp3228
I263
aI176
aI498
aasS'ID_426_F1_12_F2_0_G_4_SplitPt_237_GenID_0'
p3229
(lp3230
(lp3231
I164
aI1
aI358
aa(lp3232
I101
aI232
aI500
aasS'f16_31'
p3233
(lp3234
(lp3235
I280
aI1
aI154
aa(lp3236
I116
aI99
aI377
aasS'f16_30'
p3237
(lp3238
(lp3239
I280
aI7
aI154
aa(lp3240
I116
aI99
aI378
aasS'f19_10'
p3241
(lp3242
(lp3243
I172
aI121
aI496
aasS'ID_454_F1_18_F2_9_G_2_SplitPt_97_GenID_0'
p3244
(lp3245
(lp3246
I79
aI101
aI500
aasS'ID_240_F1_17_F2_15_G_2_SplitPt_249_GenID_0'
p3247
(lp3248
(lp3249
I119
aI247
aI497
aasS'f0_18'
p3250
(lp3251
(lp3252
I279
aI8
aI105
aa(lp3253
I101
aI51
aI500
aasS'ID_453_F1_12_F2_10_G_3_SplitPt_142_GenID_0'
p3254
(lp3255
(lp3256
I305
aI220
aI386
aa(lp3257
I95
aI5
aI151
aasS'ID_302_F1_4_F2_12_G_3_SplitPt_117_GenID_0'
p3258
(lp3259
(lp3260
I236
aI1
aI117
aa(lp3261
I164
aI118
aI500
aasS'f12_29'
p3262
(lp3263
(lp3264
I164
aI2
aI449
aasS'f12_26'
p3265
(lp3266
(lp3267
I301
aI1
aI140
aa(lp3268
I165
aI186
aI357
aasS'f12_27'
p3269
(lp3270
(lp3271
I301
aI1
aI138
aa(lp3272
I164
aI90
aI500
aasS'f0_11'
p3273
(lp3274
(lp3275
I258
aI1
aI183
aa(lp3276
I189
aI39
aI500
aasS'f12_25'
p3277
(lp3278
(lp3279
I165
aI160
aI322
aa(lp3280
I27
aI1
aI286
aasS'f0_17'
p3281
(lp3282
(lp3283
I122
aI3
aI195
aa(lp3284
I279
aI2
aI102
aa(lp3285
I101
aI56
aI494
aasS'f0_16'
p3286
(lp3287
(lp3288
I122
aI5
aI217
aa(lp3289
I279
aI1
aI102
aa(lp3290
I101
aI86
aI493
aasS'f0_15'
p3291
(lp3292
(lp3293
I273
aI1
aI218
aa(lp3294
I189
aI57
aI500
aasS'f0_14'
p3295
(lp3296
(lp3297
I273
aI27
aI231
aa(lp3298
I189
aI100
aI499
aasS'f17_18'
p3299
(lp3300
(lp3301
I275
aI55
aI496
aasS'ID_102_F1_19_F2_15_G_2_SplitPt_236_GenID_0'
p3302
(lp3303
(lp3304
I35
aI5
aI265
aasS'f17_14'
p3305
(lp3306
(lp3307
I53
aI2
aI475
aasS'ID_83_F1_17_F2_18_G_4_SplitPt_117_GenID_0'
p3308
(lp3309
(lp3310
I306
aI1
aI117
aa(lp3311
I28
aI99
aI500
aasS'f17_16'
p3312
(lp3313
(lp3314
I306
aI2
aI117
aa(lp3315
I275
aI55
aI496
aasS'f17_17'
p3316
(lp3317
(lp3318
I306
aI1
aI117
aa(lp3319
I275
aI52
aI493
aasS'ID_147_F1_8_F2_18_G_3_SplitPt_189_GenID_0'
p3320
(lp3321
(lp3322
I197
aI1
aI62
aa(lp3323
I28
aI146
aI498
aasS'f17_11'
p3324
(lp3325
(lp3326
I166
aI1
aI261
aasS'f17_12'
p3327
(lp3328
(lp3329
I53
aI156
aI463
aasS'f17_13'
p3330
(lp3331
(lp3332
I53
aI100
aI486
aasS'f18_5'
p3333
(lp3334
(lp3335
I283
aI39
aI220
aa(lp3336
I282
aI1
aI86
aa(lp3337
I69
aI47
aI500
aasS'f6_31'
p3338
(lp3339
(lp3340
I183
aI8
aI115
aa(lp3341
I184
aI101
aI248
aasS'ID_469_F1_8_F2_13_G_3_SplitPt_172_GenID_0'
p3342
(lp3343
(lp3344
I57
aI6
aI174
aa(lp3345
I93
aI169
aI500
aas.