(dp1
S'f19_19'
p2
(lp3
(lp4
I1
aI53
aI495
aasS'f14_30'
p5
(lp6
(lp7
I2
aI1
aI500
aasS'f5_7'
p8
(lp9
(lp10
I3
aI40
aI321
aa(lp11
I4
aI1
aI116
aasS'f12_26'
p12
(lp13
(lp14
I5
aI152
aI472
aasS'f15_29'
p15
(lp16
(lp17
I6
aI8
aI81
aasS'f15_28'
p18
(lp19
(lp20
I6
aI12
aI76
aasS'f15_26'
p21
(lp22
(lp23
I7
aI307
aI465
aasS'f15_25'
p24
(lp25
(lp26
I8
aI11
aI152
aasS'f15_24'
p27
(lp28
(lp29
I9
aI1
aI238
aa(lp30
I10
aI8
aI446
aasS'f15_23'
p31
(lp32
(lp33
I11
aI14
aI117
aasS'f15_22'
p34
(lp35
(lp36
I12
aI14
aI437
aasS'f15_21'
p37
(lp38
(lp39
I12
aI7
aI458
aasS'f15_20'
p40
(lp41
(lp42
I12
aI12
aI456
aasS'f12_27'
p43
(lp44
(lp45
I5
aI195
aI498
aasS'f3_30'
p46
(lp47
(lp48
I13
aI66
aI500
aasS'f3_31'
p49
(lp50
(lp51
I13
aI66
aI500
aasS'ID_66_F1_1_F2_0_G_2_SplitPt_106_GenID_0'
p52
(lp53
(lp54
I14
aI79
aI496
aasS'ID_133_F1_17_F2_8_G_4_SplitPt_61_GenID_0'
p55
(lp56
(lp57
I15
aI2
aI59
aa(lp58
I16
aI56
aI500
aasS'f19_29'
p59
(lp60
(lp61
I17
aI332
aI426
aa(lp62
I18
aI1
aI202
aasS'ID_86_F1_9_F2_2_G_4_SplitPt_194_GenID_0'
p63
(lp64
(lp65
I19
aI1
aI194
aa(lp66
I20
aI192
aI500
aasS'f12_24'
p67
(lp68
(lp69
I5
aI281
aI479
aasS'f19_28'
p70
(lp71
(lp72
I21
aI2
aI452
aa(lp73
I18
aI1
aI206
aasS'ID_105_F1_17_F2_15_G_4_SplitPt_232_GenID_0'
p74
(lp75
(lp76
I22
aI233
aI500
aa(lp77
I23
aI1
aI232
aasS'ID_108_F1_19_F2_12_G_4_SplitPt_151_GenID_0'
p78
(lp79
(lp80
I18
aI1
aI173
aa(lp81
I5
aI140
aI500
aasS'ID_31_F1_19_F2_1_G_2_SplitPt_177_GenID_0'
p82
(lp83
(lp84
I24
aI235
aI473
aa(lp85
I25
aI28
aI177
aasS'f17_8'
p86
(lp87
(lp88
I26
aI182
aI499
aa(lp89
I23
aI1
aI281
aasS'f12_25'
p90
(lp91
(lp92
I5
aI113
aI482
aasS'f2_11'
p93
(lp94
(lp95
I27
aI1
aI137
aa(lp96
I20
aI193
aI500
aasS'f2_10'
p97
(lp98
(lp99
I20
aI194
aI497
aasS'ID_241_F1_0_F2_6_G_3_SplitPt_225_GenID_0'
p100
(lp101
(lp102
I28
aI1
aI240
aa(lp103
I29
aI190
aI499
aasS'f2_12'
p104
(lp105
(lp106
I27
aI20
aI137
aa(lp107
I20
aI231
aI496
aasS'f2_15'
p108
(lp109
(lp110
I20
aI245
aI495
aasS'f2_14'
p111
(lp112
(lp113
I20
aI24
aI491
aasS'f2_17'
p114
(lp115
(lp116
I30
aI3
aI172
aa(lp117
I31
aI157
aI500
aasS'f2_16'
p118
(lp119
(lp120
I30
aI1
aI172
aasS'f2_19'
p121
(lp122
(lp123
I30
aI14
aI135
aa(lp124
I31
aI171
aI419
aasS'f2_18'
p125
(lp126
(lp127
I32
aI6
aI314
aasS'ID_82_F1_1_F2_9_G_3_SplitPt_167_GenID_0'
p128
(lp129
(lp130
I33
aI2
aI169
aa(lp131
I34
aI168
aI499
aasS'f12_22'
p132
(lp133
(lp134
I5
aI96
aI500
aasS'f15_18'
p135
(lp136
(lp137
I8
aI11
aI152
aasS'ID_163_F1_1_F2_15_G_0_SplitPt_238_GenID_0'
p138
(lp139
(lp140
I22
aI245
aI415
aasS'f19_24'
p141
(lp142
(lp143
I35
aI87
aI498
aasS'f4_9'
p144
(lp145
(lp146
I36
aI11
aI428
aasS'f17_1'
p147
(lp148
(lp149
I37
aI82
aI500
aasS'f8_31'
p150
(lp151
(lp152
I38
aI1
aI445
aa(lp153
I39
aI182
aI487
aasS'f12_23'
p154
(lp155
(lp156
I5
aI2
aI500
aasS'f19_0'
p157
(lp158
(lp159
I35
aI2
aI447
aasS'f10_28'
p160
(lp161
(lp162
I40
aI46
aI493
aasS'f3_7'
p163
(lp164
(lp165
I13
aI121
aI487
aasS'ID_251_F1_6_F2_3_G_3_SplitPt_95_GenID_0'
p166
(lp167
(lp168
I41
aI1
aI105
aa(lp169
I42
aI50
aI500
aasS'f12_21'
p170
(lp171
(lp172
I5
aI2
aI500
aasS'ID_204_F1_10_F2_19_G_4_SplitPt_97_GenID_0'
p173
(lp174
(lp175
I43
aI1
aI104
aa(lp176
I35
aI77
aI500
aasS'f4_23'
p177
(lp178
(lp179
I36
aI2
aI497
aasS'f11_23'
p180
(lp181
(lp182
I44
aI42
aI469
aasS'f11_22'
p183
(lp184
(lp185
I44
aI68
aI498
aasS'f11_21'
p186
(lp187
(lp188
I44
aI50
aI500
aasS'f11_20'
p189
(lp190
(lp191
I44
aI50
aI499
aasS'f11_27'
p192
(lp193
(lp194
I45
aI18
aI165
aa(lp195
I46
aI46
aI499
aasS'f11_26'
p196
(lp197
(lp198
I45
aI3
aI139
aa(lp199
I46
aI6
aI500
aasS'f11_25'
p200
(lp201
(lp202
I45
aI1
aI139
aa(lp203
I46
aI94
aI499
aasS'f11_24'
p204
(lp205
(lp206
I45
aI1
aI140
aa(lp207
I46
aI104
aI499
aasS'f11_29'
p208
(lp209
(lp210
I46
aI46
aI497
aasS'f11_28'
p211
(lp212
(lp213
I46
aI94
aI495
aasS'f4_31'
p214
(lp215
(lp216
I36
aI1
aI311
aasS'ID_40_F1_3_F2_13_G_2_SplitPt_241_GenID_0'
p217
(lp218
(lp219
I47
aI10
aI158
aa(lp220
I48
aI276
aI500
aasS'f3_24'
p221
(lp222
(lp223
I13
aI12
aI496
aasS'ID_171_F1_5_F2_0_G_2_SplitPt_245_GenID_0'
p224
(lp225
(lp226
I49
aI1
aI300
aa(lp227
I50
aI256
aI492
aasS'ID_151_F1_10_F2_3_G_2_SplitPt_102_GenID_0'
p228
(lp229
(lp230
I13
aI93
aI498
aasS'f7_23'
p231
(lp232
(lp233
I51
aI11
aI189
aa(lp234
I52
aI229
aI495
aasS'f7_22'
p235
(lp236
(lp237
I51
aI10
aI196
aa(lp238
I52
aI229
aI495
aasS'f7_21'
p239
(lp240
(lp241
I51
aI11
aI211
aa(lp242
I52
aI25
aI500
aasS'f16_22'
p243
(lp244
(lp245
I53
aI8
aI490
aasS'f7_20'
p246
(lp247
(lp248
I51
aI13
aI193
aa(lp249
I52
aI68
aI499
aasS'ID_115_F1_12_F2_10_G_4_SplitPt_206_GenID_0'
p250
(lp251
(lp252
I54
aI1
aI247
aa(lp253
I40
aI178
aI500
aasS'ID_10_F1_17_F2_10_G_3_SplitPt_87_GenID_0'
p254
(lp255
(lp256
I55
aI1
aI87
aa(lp257
I56
aI296
aI448
aasS'f7_27'
p258
(lp259
(lp260
I57
aI2
aI170
aa(lp261
I58
aI122
aI497
aasS'ID_141_F1_10_F2_17_G_3_SplitPt_78_GenID_0'
p262
(lp263
(lp264
I59
aI1
aI78
aa(lp265
I60
aI80
aI500
aasS'f8_2'
p266
(lp267
(lp268
I61
aI194
aI490
aasS'f3_0'
p269
(lp270
(lp271
I62
aI1
aI99
aa(lp272
I63
aI205
aI500
aasS'f14_6'
p273
(lp274
(lp275
I64
aI61
aI500
aasS'f2_13'
p276
(lp277
(lp278
I20
aI18
aI447
aasS'f8_27'
p279
(lp280
(lp281
I65
aI2
aI104
aa(lp282
I39
aI154
aI470
aasS'f14_1'
p283
(lp284
(lp285
I64
aI83
aI497
aasS'f19_5'
p286
(lp287
(lp288
I25
aI28
aI177
aasS'f8_24'
p289
(lp290
(lp291
I66
aI339
aI500
aa(lp292
I65
aI4
aI107
aa(lp293
I39
aI102
aI487
aasS'f16_27'
p294
(lp295
(lp296
I53
aI1
aI500
aasS'f3_3'
p297
(lp298
(lp299
I63
aI205
aI473
aasS'f14_3'
p300
(lp301
(lp302
I64
aI1
aI498
aasS'f14_31'
p303
(lp304
(lp305
I67
aI2
aI243
aasS'ID_119_F1_18_F2_7_G_2_SplitPt_61_GenID_0'
p306
(lp307
(lp308
I68
aI51
aI500
aasS'f14_2'
p309
(lp310
(lp311
I64
aI127
aI498
aasS'f3_5'
p312
(lp313
(lp314
I13
aI34
aI423
aasS'f15_16'
p315
(lp316
(lp317
I12
aI104
aI500
aasS'f15_17'
p318
(lp319
(lp320
I11
aI14
aI122
aa(lp321
I12
aI110
aI500
aasS'f15_14'
p322
(lp323
(lp324
I69
aI2
aI71
aa(lp325
I70
aI126
aI493
aasS'f15_15'
p326
(lp327
(lp328
I69
aI1
aI66
aa(lp329
I71
aI249
aI396
aasS'f15_12'
p330
(lp331
(lp332
I71
aI296
aI433
aasS'f15_13'
p333
(lp334
(lp335
I72
aI219
aI387
aa(lp336
I71
aI293
aI496
aasS'f15_10'
p337
(lp338
(lp339
I72
aI205
aI431
aasS'f15_11'
p340
(lp341
(lp342
I73
aI8
aI153
aa(lp343
I70
aI9
aI410
aasS'f19_23'
p344
(lp345
(lp346
I1
aI1
aI290
aasS'f19_22'
p347
(lp348
(lp349
I1
aI47
aI477
aasS'f19_21'
p350
(lp351
(lp352
I1
aI2
aI477
aasS'f19_20'
p353
(lp354
(lp355
I1
aI119
aI466
aasS'f19_27'
p356
(lp357
(lp358
I18
aI2
aI184
aa(lp359
I35
aI98
aI500
aasS'f19_26'
p360
(lp361
(lp362
I74
aI203
aI369
aasS'f19_25'
p363
(lp364
(lp365
I75
aI1
aI212
aa(lp366
I17
aI332
aI426
aasS'f15_19'
p367
(lp368
(lp369
I12
aI11
aI465
aasS'f0_15'
p370
(lp371
(lp372
I50
aI95
aI499
aasS'f10_29'
p373
(lp374
(lp375
I40
aI4
aI399
aasS'f3_9'
p376
(lp377
(lp378
I47
aI10
aI162
aa(lp379
I76
aI287
aI496
aa(lp380
I42
aI21
aI468
aasS'f10_24'
p381
(lp382
(lp383
I77
aI5
aI128
aa(lp384
I40
aI17
aI479
aasS'f10_25'
p385
(lp386
(lp387
I78
aI55
aI207
aa(lp388
I77
aI1
aI128
aasS'f10_26'
p389
(lp390
(lp391
I77
aI5
aI175
aa(lp392
I40
aI40
aI477
aasS'f10_27'
p393
(lp394
(lp395
I77
aI5
aI128
aa(lp396
I40
aI40
aI476
aasS'f10_20'
p397
(lp398
(lp399
I40
aI5
aI497
aasS'f10_21'
p400
(lp401
(lp402
I78
aI55
aI207
aasS'f10_22'
p403
(lp404
(lp405
I40
aI46
aI499
aasS'f10_23'
p406
(lp407
(lp408
I40
aI17
aI498
aasS'f0_28'
p409
(lp410
(lp411
I14
aI80
aI470
aasS'f19_7'
p412
(lp413
(lp414
I35
aI93
aI498
aasS'f16_10'
p415
(lp416
(lp417
I79
aI4
aI498
aasS'f16_4'
p418
(lp419
(lp420
I80
aI1
aI103
aa(lp421
I79
aI5
aI500
aasS'f13_10'
p422
(lp423
(lp424
I81
aI259
aI377
aasS'ID_38_F1_2_F2_4_G_3_SplitPt_167_GenID_0'
p425
(lp426
(lp427
I82
aI1
aI172
aa(lp428
I36
aI146
aI499
aasS'f13_13'
p429
(lp430
(lp431
I83
aI215
aI492
aasS'f13_14'
p432
(lp433
(lp434
I81
aI254
aI377
aasS'f13_15'
p435
(lp436
(lp437
I83
aI187
aI500
aasS'f13_16'
p438
(lp439
(lp440
I84
aI24
aI444
aasS'f13_17'
p441
(lp442
(lp443
I84
aI7
aI478
aasS'f13_18'
p444
(lp445
(lp446
I84
aI10
aI472
aasS'f13_19'
p447
(lp448
(lp449
I84
aI188
aI445
aasS'f8_29'
p450
(lp451
(lp452
I38
aI1
aI445
aasS'f0_24'
p453
(lp454
(lp455
I14
aI26
aI496
aa(lp456
I28
aI5
aI210
aasS'ID_92_F1_13_F2_17_G_2_SplitPt_229_GenID_0'
p457
(lp458
(lp459
I26
aI249
aI498
aasS'f16_8'
p460
(lp461
(lp462
I79
aI1
aI500
aasS'ID_60_F1_5_F2_18_G_3_SplitPt_58_GenID_0'
p463
(lp464
(lp465
I85
aI28
aI499
aasS'f18_24'
p466
(lp467
(lp468
I86
aI4
aI223
aa(lp469
I85
aI12
aI493
aasS'f18_25'
p470
(lp471
(lp472
I86
aI18
aI194
aa(lp473
I85
aI184
aI460
aasS'f18_26'
p474
(lp475
(lp476
I86
aI1
aI212
aa(lp477
I85
aI73
aI496
aasS'f18_27'
p478
(lp479
(lp480
I86
aI3
aI234
aa(lp481
I85
aI92
aI487
aasS'ID_210_F1_19_F2_5_G_3_SplitPt_214_GenID_0'
p482
(lp483
(lp484
I18
aI1
aI215
aa(lp485
I49
aI215
aI500
aasS'ID_170_F1_12_F2_3_G_4_SplitPt_237_GenID_0'
p486
(lp487
(lp488
I87
aI2
aI50
aa(lp489
I13
aI235
aI500
aasS'f18_23'
p490
(lp491
(lp492
I88
aI1
aI65
aasS'f18_28'
p493
(lp494
(lp495
I89
aI136
aI500
aasS'f18_29'
p496
(lp497
(lp498
I89
aI136
aI497
aasS'f11_18'
p499
(lp500
(lp501
I44
aI54
aI498
aasS'f11_19'
p502
(lp503
(lp504
I44
aI58
aI498
aasS'f11_12'
p505
(lp506
(lp507
I90
aI236
aI435
aasS'f11_10'
p508
(lp509
(lp510
I91
aI3
aI489
aasS'f11_11'
p511
(lp512
(lp513
I91
aI8
aI408
aasS'f11_16'
p514
(lp515
(lp516
I92
aI9
aI133
aa(lp517
I44
aI42
aI483
aasS'f11_17'
p518
(lp519
(lp520
I44
aI58
aI471
aasS'f11_14'
p521
(lp522
(lp523
I91
aI1
aI272
aasS'f11_15'
p524
(lp525
(lp526
I91
aI1
aI498
aasS'f9_15'
p527
(lp528
(lp529
I93
aI149
aI488
aasS'f9_16'
p530
(lp531
(lp532
I94
aI2
aI108
aa(lp533
I34
aI142
aI497
aasS'f9_17'
p534
(lp535
(lp536
I34
aI44
aI500
aasS'f9_10'
p537
(lp538
(lp539
I95
aI39
aI420
aa(lp540
I96
aI1
aI197
aasS'f9_11'
p541
(lp542
(lp543
I95
aI34
aI443
aa(lp544
I96
aI2
aI143
aasS'f9_12'
p545
(lp546
(lp547
I95
aI39
aI420
aasS'f9_13'
p548
(lp549
(lp550
I95
aI34
aI444
aasS'f9_18'
p551
(lp552
(lp553
I94
aI1
aI120
aa(lp554
I34
aI146
aI500
aasS'f9_19'
p555
(lp556
(lp557
I94
aI1
aI117
aa(lp558
I34
aI132
aI500
aasS'f16_20'
p559
(lp560
(lp561
I53
aI1
aI499
aasS'ID_121_F1_0_F2_4_G_3_SplitPt_199_GenID_0'
p562
(lp563
(lp564
I28
aI1
aI215
aa(lp565
I36
aI204
aI500
aasS'ID_205_F1_1_F2_1_G_2_SplitPt_212_GenID_0'
p566
(lp567
(lp568
I97
aI261
aI498
aasS'f7_16'
p569
(lp570
(lp571
I98
aI238
aI397
aasS'f7_17'
p572
(lp573
(lp574
I99
aI6
aI107
aa(lp575
I52
aI73
aI496
aasS'f7_14'
p576
(lp577
(lp578
I68
aI1
aI474
aasS'f7_15'
p579
(lp580
(lp581
I100
aI222
aI346
aasS'f7_12'
p582
(lp583
(lp584
I68
aI2
aI500
aasS'f7_13'
p585
(lp586
(lp587
I68
aI3
aI500
aasS'f7_10'
p588
(lp589
(lp590
I100
aI222
aI346
aasS'f7_11'
p591
(lp592
(lp593
I68
aI1
aI433
aasS'f5_10'
p594
(lp595
(lp596
I49
aI13
aI487
aasS'f5_11'
p597
(lp598
(lp599
I49
aI127
aI500
aasS'f5_12'
p600
(lp601
(lp602
I49
aI225
aI500
aasS'f5_13'
p603
(lp604
(lp605
I49
aI19
aI500
aasS'f5_14'
p606
(lp607
(lp608
I49
aI1
aI459
aasS'f5_15'
p609
(lp610
(lp611
I49
aI1
aI404
aasS'f7_18'
p612
(lp613
(lp614
I99
aI3
aI133
aa(lp615
I52
aI13
aI465
aasS'f7_19'
p616
(lp617
(lp618
I99
aI3
aI135
aa(lp619
I52
aI41
aI488
aasS'ID_19_F1_4_F2_9_G_2_SplitPt_188_GenID_0'
p620
(lp621
(lp622
I34
aI188
aI500
aa(lp623
I36
aI4
aI191
aasS'ID_250_F1_11_F2_17_G_3_SplitPt_198_GenID_0'
p624
(lp625
(lp626
I91
aI1
aI198
aa(lp627
I60
aI144
aI499
aasS'f11_8'
p628
(lp629
(lp630
I90
aI236
aI435
aa(lp631
I91
aI14
aI293
aasS'f12_31'
p632
(lp633
(lp634
I5
aI79
aI498
aasS'f18_20'
p635
(lp636
(lp637
I85
aI66
aI498
aasS'ID_81_F1_2_F2_0_G_1_SplitPt_58_GenID_0'
p638
(lp639
(lp640
I50
aI188
aI416
aasS'f13_6'
p641
(lp642
(lp643
I101
aI256
aI368
aasS'f18_22'
p644
(lp645
(lp646
I102
aI23
aI275
aa(lp647
I88
aI1
aI68
aasS'f13_7'
p648
(lp649
(lp650
I48
aI1
aI500
aasS'ID_117_F1_9_F2_17_G_3_SplitPt_82_GenID_0'
p651
(lp652
(lp653
I103
aI1
aI82
aa(lp654
I37
aI50
aI500
aasS'ID_207_F1_18_F2_14_G_2_SplitPt_64_GenID_0'
p655
(lp656
(lp657
I2
aI52
aI484
aasS'f18_17'
p658
(lp659
(lp660
I104
aI6
aI82
aasS'ID_56_F1_16_F2_0_G_4_SplitPt_248_GenID_0'
p661
(lp662
(lp663
I105
aI248
aI500
aa(lp664
I106
aI1
aI123
aasS'ID_154_F1_9_F2_7_G_3_SplitPt_121_GenID_0'
p665
(lp666
(lp667
I94
aI1
aI120
aa(lp668
I58
aI121
aI497
aasS'f9_1'
p669
(lp670
(lp671
I34
aI71
aI500
aasS'ID_149_F1_3_F2_2_G_4_SplitPt_134_GenID_0'
p672
(lp673
(lp674
I107
aI1
aI134
aa(lp675
I20
aI119
aI500
aasS'ID_198_F1_7_F2_3_G_2_SplitPt_248_GenID_0'
p676
(lp677
(lp678
I108
aI419
aI489
aa(lp679
I68
aI2
aI192
aasS'ID_215_F1_19_F2_4_G_2_SplitPt_105_GenID_0'
p680
(lp681
(lp682
I35
aI2
aI107
aa(lp683
I36
aI70
aI498
aasS'f16_9'
p684
(lp685
(lp686
I79
aI36
aI493
aasS'f7_4'
p687
(lp688
(lp689
I109
aI1
aI243
aa(lp690
I110
aI29
aI500
aasS'f7_5'
p691
(lp692
(lp693
I109
aI6
aI243
aa(lp694
I110
aI49
aI500
aasS'f7_6'
p695
(lp696
(lp697
I109
aI49
aI243
aasS'f7_7'
p698
(lp699
(lp700
I109
aI2
aI243
aa(lp701
I110
aI118
aI500
aasS'f7_0'
p702
(lp703
(lp704
I110
aI77
aI500
aasS'f7_1'
p705
(lp706
(lp707
I109
aI10
aI224
aa(lp708
I110
aI137
aI500
aasS'f7_2'
p709
(lp710
(lp711
I110
aI48
aI500
aasS'f7_3'
p712
(lp713
(lp714
I110
aI25
aI500
aasS'f7_8'
p715
(lp716
(lp717
I98
aI238
aI396
aasS'f7_9'
p718
(lp719
(lp720
I68
aI3
aI408
aasS'f13_8'
p721
(lp722
(lp723
I111
aI1
aI93
aa(lp724
I81
aI252
aI369
aasS'ID_45_F1_18_F2_11_G_4_SplitPt_212_GenID_0'
p725
(lp726
(lp727
I86
aI1
aI226
aa(lp728
I46
aI213
aI500
aasS'ID_8_F1_5_F2_19_G_3_SplitPt_181_GenID_0'
p729
(lp730
(lp731
I112
aI182
aI306
aa(lp732
I113
aI1
aI180
aasS'f2_6'
p733
(lp734
(lp735
I82
aI1
aI146
aa(lp736
I114
aI63
aI492
aasS'ID_160_F1_5_F2_13_G_4_SplitPt_201_GenID_0'
p737
(lp738
(lp739
I115
aI104
aI189
aa(lp740
I101
aI256
aI366
aasS'f19_12'
p741
(lp742
(lp743
I35
aI1
aI492
aasS'f19_13'
p744
(lp745
(lp746
I35
aI1
aI499
aasS'f5_8'
p747
(lp748
(lp749
I116
aI1
aI164
aa(lp750
I49
aI19
aI487
aasS'f5_9'
p751
(lp752
(lp753
I116
aI1
aI164
aa(lp754
I49
aI12
aI404
aasS'f19_16'
p755
(lp756
(lp757
I1
aI2
aI500
aasS'f19_17'
p758
(lp759
(lp760
I74
aI203
aI371
aasS'f19_14'
p761
(lp762
(lp763
I112
aI182
aI306
aasS'f19_15'
p764
(lp765
(lp766
I35
aI2
aI476
aasS'f5_2'
p767
(lp768
(lp769
I3
aI34
aI468
aa(lp770
I4
aI1
aI135
aasS'f5_3'
p771
(lp772
(lp773
I117
aI8
aI333
aa(lp774
I4
aI1
aI136
aasS'f19_18'
p775
(lp776
(lp777
I118
aI15
aI163
aa(lp778
I1
aI74
aI500
aasS'f5_1'
p779
(lp780
(lp781
I4
aI1
aI151
aasS'f5_6'
p782
(lp783
(lp784
I3
aI34
aI498
aa(lp785
I4
aI1
aI118
aasS'ID_213_F1_1_F2_13_G_4_SplitPt_174_GenID_0'
p786
(lp787
(lp788
I119
aI1
aI227
aa(lp789
I48
aI162
aI500
aasS'f5_4'
p790
(lp791
(lp792
I117
aI8
aI332
aa(lp793
I3
aI128
aI496
aa(lp794
I4
aI1
aI117
aasS'f5_5'
p795
(lp796
(lp797
I3
aI249
aI496
aa(lp798
I4
aI1
aI137
aasS'ID_157_F1_3_F2_19_G_3_SplitPt_151_GenID_0'
p799
(lp800
(lp801
I120
aI308
aI466
aa(lp802
I121
aI2
aI166
aasS'ID_242_F1_3_F2_11_G_1_SplitPt_59_GenID_0'
p803
(lp804
(lp805
I44
aI61
aI483
aasS'ID_214_F1_19_F2_7_G_3_SplitPt_70_GenID_0'
p806
(lp807
(lp808
I52
aI71
aI489
aasS'f14_29'
p809
(lp810
(lp811
I2
aI1
aI486
aasS'f0_8'
p812
(lp813
(lp814
I50
aI12
aI487
aasS'f14_21'
p815
(lp816
(lp817
I122
aI1
aI166
aa(lp818
I2
aI111
aI500
aasS'ID_186_F1_4_F2_1_G_2_SplitPt_78_GenID_0'
p819
(lp820
(lp821
I97
aI58
aI500
aasS'ID_23_F1_19_F2_2_G_4_SplitPt_144_GenID_0'
p822
(lp823
(lp824
I18
aI1
aI144
aa(lp825
I114
aI137
aI500
aasS'f8_26'
p826
(lp827
(lp828
I123
aI2
aI240
aa(lp829
I39
aI154
aI491
aasS'f3_1'
p830
(lp831
(lp832
I62
aI1
aI120
aa(lp833
I63
aI205
aI489
aasS'f3_2'
p834
(lp835
(lp836
I63
aI189
aI473
aasS'f8_25'
p837
(lp838
(lp839
I65
aI1
aI105
aa(lp840
I39
aI129
aI500
aasS'f3_4'
p841
(lp842
(lp843
I13
aI52
aI500
aasS'f8_23'
p844
(lp845
(lp846
I124
aI55
aI496
aasS'f8_20'
p847
(lp848
(lp849
I124
aI73
aI434
aasS'f8_21'
p850
(lp851
(lp852
I124
aI55
aI496
aasS'f3_8'
p853
(lp854
(lp855
I76
aI364
aI496
aa(lp856
I42
aI84
aI480
aasS'f0_3'
p857
(lp858
(lp859
I125
aI130
aI287
aasS'ID_135_F1_9_F2_1_G_4_SplitPt_123_GenID_0'
p860
(lp861
(lp862
I96
aI1
aI143
aa(lp863
I97
aI60
aI500
aasS'f15_9'
p864
(lp865
(lp866
I71
aI252
aI439
aasS'f1_6'
p867
(lp868
(lp869
I97
aI276
aI500
aasS'f1_7'
p870
(lp871
(lp872
I97
aI88
aI500
aasS'f1_4'
p873
(lp874
(lp875
I97
aI19
aI500
aasS'f1_5'
p876
(lp877
(lp878
I97
aI118
aI500
aasS'f1_2'
p879
(lp880
(lp881
I119
aI7
aI169
aa(lp882
I97
aI82
aI500
aasS'f1_3'
p883
(lp884
(lp885
I119
aI23
aI174
aa(lp886
I97
aI82
aI500
aasS'f1_0'
p887
(lp888
(lp889
I119
aI2
aI174
aa(lp890
I97
aI82
aI500
aasS'f1_1'
p891
(lp892
(lp893
I119
aI1
aI220
aa(lp894
I97
aI82
aI500
aasS'f1_8'
p895
(lp896
(lp897
I97
aI25
aI488
aasS'f1_9'
p898
(lp899
(lp900
I97
aI19
aI495
aasS'ID_101_F1_18_F2_2_G_3_SplitPt_81_GenID_0'
p901
(lp902
(lp903
I104
aI1
aI82
aa(lp904
I20
aI80
aI500
aasS'ID_102_F1_3_F2_6_G_4_SplitPt_115_GenID_0'
p905
(lp906
(lp907
I126
aI223
aI384
aa(lp908
I107
aI1
aI136
aasS'f9_8'
p909
(lp910
(lp911
I93
aI149
aI488
aa(lp912
I96
aI2
aI189
aasS'f9_9'
p913
(lp914
(lp915
I95
aI40
aI348
aa(lp916
I96
aI1
aI192
aasS'f9_6'
p917
(lp918
(lp919
I34
aI3
aI491
aasS'f9_7'
p920
(lp921
(lp922
I34
aI170
aI467
aasS'f9_4'
p923
(lp924
(lp925
I34
aI43
aI499
aasS'f9_5'
p926
(lp927
(lp928
I34
aI44
aI490
aasS'f9_2'
p929
(lp930
(lp931
I127
aI13
aI138
aa(lp932
I34
aI70
aI497
aasS'f9_3'
p933
(lp934
(lp935
I34
aI3
aI500
aasS'f9_0'
p936
(lp937
(lp938
I34
aI82
aI497
aasS'ID_64_F1_4_F2_12_G_2_SplitPt_164_GenID_0'
p939
(lp940
(lp941
I128
aI2
aI156
aa(lp942
I5
aI154
aI481
aasS'ID_128_F1_17_F2_8_G_2_SplitPt_99_GenID_0'
p943
(lp944
(lp945
I16
aI65
aI488
aasS'ID_28_F1_14_F2_14_G_3_SplitPt_243_GenID_0'
p946
(lp947
(lp948
I67
aI2
aI246
aa(lp949
I64
aI228
aI500
aasS'ID_5_F1_10_F2_9_G_4_SplitPt_81_GenID_0'
p950
(lp951
(lp952
I129
aI1
aI86
aa(lp953
I34
aI68
aI500
aasS'f2_28'
p954
(lp955
(lp956
I130
aI1
aI78
aa(lp957
I20
aI5
aI425
aasS'f9_29'
p958
(lp959
(lp960
I131
aI1
aI243
aa(lp961
I19
aI164
aI499
aasS'f9_28'
p962
(lp963
(lp964
I131
aI1
aI243
aa(lp965
I19
aI127
aI493
aasS'f2_29'
p966
(lp967
(lp968
I130
aI1
aI82
aasS'f9_25'
p969
(lp970
(lp971
I132
aI237
aI500
aa(lp972
I19
aI4
aI192
aasS'f9_24'
p973
(lp974
(lp975
I133
aI25
aI116
aa(lp976
I132
aI217
aI500
aasS'f9_27'
p977
(lp978
(lp979
I134
aI157
aI286
aa(lp980
I132
aI233
aI499
aa(lp981
I19
aI1
aI193
aasS'f9_26'
p982
(lp983
(lp984
I132
aI250
aI499
aa(lp985
I19
aI1
aI305
aasS'f9_21'
p986
(lp987
(lp988
I103
aI1
aI82
aa(lp989
I34
aI53
aI496
aasS'f9_20'
p990
(lp991
(lp992
I133
aI25
aI117
aa(lp993
I103
aI7
aI80
aa(lp994
I34
aI52
aI499
aasS'f9_23'
p995
(lp996
(lp997
I135
aI1
aI103
aa(lp998
I34
aI53
aI500
aasS'f9_22'
p999
(lp1000
(lp1001
I135
aI1
aI97
aa(lp1002
I34
aI53
aI500
aasS'f5_21'
p1003
(lp1004
(lp1005
I136
aI1
aI500
aasS'f5_20'
p1006
(lp1007
(lp1008
I137
aI1
aI76
aasS'f5_23'
p1009
(lp1010
(lp1011
I136
aI8
aI500
aasS'f5_22'
p1012
(lp1013
(lp1014
I136
aI1
aI499
aasS'f5_25'
p1015
(lp1016
(lp1017
I113
aI1
aI180
aa(lp1018
I138
aI80
aI499
aasS'f5_24'
p1019
(lp1020
(lp1021
I113
aI1
aI180
aa(lp1022
I138
aI69
aI500
aasS'f5_27'
p1023
(lp1024
(lp1025
I139
aI1
aI69
aa(lp1026
I113
aI4
aI154
aa(lp1027
I138
aI40
aI500
aasS'f5_26'
p1028
(lp1029
(lp1030
I139
aI4
aI66
aa(lp1031
I138
aI76
aI500
aasS'ID_246_F1_17_F2_14_G_3_SplitPt_133_GenID_0'
p1032
(lp1033
(lp1034
I140
aI1
aI150
aa(lp1035
I122
aI78
aI191
aa(lp1036
I64
aI121
aI495
aasS'ID_125_F1_9_F2_2_G_2_SplitPt_140_GenID_0'
p1037
(lp1038
(lp1039
I127
aI2
aI138
aa(lp1040
I31
aI119
aI500
aasS'f10_9'
p1041
(lp1042
(lp1043
I40
aI85
aI499
aasS'f4_28'
p1044
(lp1045
(lp1046
I141
aI1
aI156
aa(lp1047
I36
aI2
aI319
aasS'f4_29'
p1048
(lp1049
(lp1050
I141
aI2
aI134
aasS'f14_25'
p1051
(lp1052
(lp1053
I64
aI229
aI493
aasS'ID_37_F1_11_F2_13_G_2_SplitPt_159_GenID_0'
p1054
(lp1055
(lp1056
I142
aI173
aI490
aasS'f4_22'
p1057
(lp1058
(lp1059
I36
aI1
aI493
aasS'ID_169_F1_8_F2_8_G_1_SplitPt_223_GenID_0'
p1060
(lp1061
(lp1062
I143
aI11
aI454
aasS'f4_20'
p1063
(lp1064
(lp1065
I36
aI5
aI496
aasS'f4_21'
p1066
(lp1067
(lp1068
I36
aI5
aI495
aasS'f4_26'
p1069
(lp1070
(lp1071
I36
aI72
aI498
aasS'ID_53_F1_7_F2_8_G_3_SplitPt_188_GenID_0'
p1072
(lp1073
(lp1074
I144
aI189
aI500
aa(lp1075
I51
aI6
aI210
aasS'f4_24'
p1076
(lp1077
(lp1078
I36
aI106
aI493
aasS'f4_25'
p1079
(lp1080
(lp1081
I141
aI12
aI156
aa(lp1082
I36
aI105
aI498
aasS'f5_29'
p1083
(lp1084
(lp1085
I138
aI51
aI500
aasS'ID_98_F1_9_F2_19_G_3_SplitPt_105_GenID_0'
p1086
(lp1087
(lp1088
I135
aI1
aI103
aa(lp1089
I35
aI110
aI500
aasS'f10_18'
p1090
(lp1091
(lp1092
I40
aI39
aI499
aasS'f5_16'
p1093
(lp1094
(lp1095
I136
aI19
aI499
aasS'f0_31'
p1096
(lp1097
(lp1098
I14
aI112
aI498
aasS'f0_30'
p1099
(lp1100
(lp1101
I14
aI110
aI498
aa(lp1102
I28
aI64
aI206
aasS'f6_30'
p1103
(lp1104
(lp1105
I145
aI3
aI489
aasS'ID_174_F1_2_F2_14_G_4_SplitPt_110_GenID_0'
p1106
(lp1107
(lp1108
I146
aI110
aI163
aa(lp1109
I27
aI1
aI113
aasS'f17_30'
p1110
(lp1111
(lp1112
I60
aI27
aI500
aasS'f17_31'
p1113
(lp1114
(lp1115
I60
aI80
aI497
aasS'f10_0'
p1116
(lp1117
(lp1118
I147
aI30
aI219
aa(lp1119
I40
aI154
aI500
aasS'ID_67_F1_4_F2_11_G_3_SplitPt_177_GenID_0'
p1120
(lp1121
(lp1122
I46
aI177
aI500
aa(lp1123
I36
aI3
aI196
aasS'ID_52_F1_19_F2_13_G_2_SplitPt_211_GenID_0'
p1124
(lp1125
(lp1126
I75
aI1
aI212
aa(lp1127
I84
aI144
aI478
aasS'ID_155_F1_10_F2_3_G_2_SplitPt_90_GenID_0'
p1128
(lp1129
(lp1130
I148
aI4
aI87
aa(lp1131
I42
aI77
aI486
aasS'f10_19'
p1132
(lp1133
(lp1134
I40
aI5
aI498
aasS'ID_43_F1_4_F2_12_G_3_SplitPt_159_GenID_0'
p1135
(lp1136
(lp1137
I149
aI4
aI155
aa(lp1138
I5
aI161
aI500
aasS'ID_13_F1_3_F2_17_G_3_SplitPt_103_GenID_0'
p1139
(lp1140
(lp1141
I62
aI1
aI122
aa(lp1142
I60
aI105
aI499
aasS'ID_188_F1_6_F2_8_G_4_SplitPt_52_GenID_0'
p1143
(lp1144
(lp1145
I150
aI1
aI52
aa(lp1146
I16
aI51
aI500
aasS'f10_6'
p1147
(lp1148
(lp1149
I40
aI77
aI499
aasS'f5_18'
p1150
(lp1151
(lp1152
I136
aI1
aI440
aasS'f1_18'
p1153
(lp1154
(lp1155
I151
aI14
aI470
aasS'f1_19'
p1156
(lp1157
(lp1158
I151
aI42
aI497
aasS'f5_19'
p1159
(lp1160
(lp1161
I136
aI1
aI496
aasS'f1_14'
p1162
(lp1163
(lp1164
I24
aI230
aI473
aa(lp1165
I33
aI5
aI165
aasS'f1_15'
p1166
(lp1167
(lp1168
I33
aI1
aI169
aasS'f1_16'
p1169
(lp1170
(lp1171
I152
aI3
aI126
aa(lp1172
I151
aI53
aI497
aasS'f1_17'
p1173
(lp1174
(lp1175
I152
aI1
aI126
aa(lp1176
I151
aI88
aI497
aasS'f1_10'
p1177
(lp1178
(lp1179
I97
aI34
aI495
aasS'f1_11'
p1180
(lp1181
(lp1182
I97
aI25
aI500
aasS'f1_12'
p1183
(lp1184
(lp1185
I33
aI1
aI166
aasS'f1_13'
p1186
(lp1187
(lp1188
I33
aI1
aI165
aa(lp1189
I97
aI25
aI480
aasS'ID_79_F1_10_F2_14_G_4_SplitPt_128_GenID_0'
p1190
(lp1191
(lp1192
I77
aI1
aI166
aa(lp1193
I64
aI99
aI500
aasS'f10_31'
p1194
(lp1195
(lp1196
I148
aI4
aI87
aasS'ID_95_F1_9_F2_17_G_3_SplitPt_192_GenID_0'
p1197
(lp1198
(lp1199
I153
aI9
aI143
aa(lp1200
I26
aI193
aI499
aasS'ID_176_F1_5_F2_7_G_4_SplitPt_117_GenID_0'
p1201
(lp1202
(lp1203
I109
aI117
aI243
aa(lp1204
I4
aI1
aI130
aasS'ID_228_F1_0_F2_1_G_2_SplitPt_77_GenID_0'
p1205
(lp1206
(lp1207
I97
aI74
aI500
aasS'f4_11'
p1208
(lp1209
(lp1210
I36
aI2
aI450
aasS'f4_10'
p1211
(lp1212
(lp1213
I36
aI9
aI444
aasS'ID_192_F1_4_F2_9_G_3_SplitPt_166_GenID_0'
p1214
(lp1215
(lp1216
I34
aI160
aI499
aa(lp1217
I36
aI2
aI169
aasS'f4_27'
p1218
(lp1219
(lp1220
I36
aI115
aI468
aasS'f19_8'
p1221
(lp1222
(lp1223
I35
aI1
aI500
aasS'f19_9'
p1224
(lp1225
(lp1226
I120
aI317
aI466
aasS'f3_18'
p1227
(lp1228
(lp1229
I13
aI41
aI488
aasS'f3_19'
p1230
(lp1231
(lp1232
I13
aI68
aI500
aasS'f12_6'
p1233
(lp1234
(lp1235
I5
aI177
aI429
aasS'f3_12'
p1236
(lp1237
(lp1238
I107
aI1
aI134
aa(lp1239
I42
aI32
aI496
aasS'f3_13'
p1240
(lp1241
(lp1242
I107
aI9
aI148
aa(lp1243
I42
aI21
aI500
aasS'f3_10'
p1244
(lp1245
(lp1246
I108
aI419
aI489
aa(lp1247
I42
aI91
aI480
aasS'ID_18_F1_4_F2_18_G_3_SplitPt_135_GenID_0'
p1248
(lp1249
(lp1250
I154
aI295
aI498
aa(lp1251
I141
aI1
aI134
aasS'f3_16'
p1252
(lp1253
(lp1254
I121
aI2
aI150
aa(lp1255
I13
aI142
aI488
aasS'f3_17'
p1256
(lp1257
(lp1258
I121
aI2
aI167
aa(lp1259
I13
aI122
aI499
aasS'f3_14'
p1260
(lp1261
(lp1262
I107
aI1
aI131
aa(lp1263
I42
aI103
aI496
aasS'f3_15'
p1264
(lp1265
(lp1266
I107
aI1
aI134
aa(lp1267
I42
aI45
aI496
aasS'ID_158_F1_11_F2_1_G_3_SplitPt_201_GenID_0'
p1268
(lp1269
(lp1270
I91
aI5
aI204
aa(lp1271
I97
aI207
aI496
aasS'ID_97_F1_11_F2_17_G_2_SplitPt_142_GenID_0'
p1272
(lp1273
(lp1274
I92
aI9
aI133
aa(lp1275
I26
aI147
aI491
aasS'f18_30'
p1276
(lp1277
(lp1278
I154
aI295
aI498
aa(lp1279
I85
aI31
aI433
aasS'ID_32_F1_17_F2_3_G_2_SplitPt_111_GenID_0'
p1280
(lp1281
(lp1282
I13
aI113
aI500
aasS'ID_103_F1_1_F2_18_G_4_SplitPt_167_GenID_0'
p1283
(lp1284
(lp1285
I155
aI1
aI171
aa(lp1286
I156
aI151
aI500
aasS'ID_106_F1_8_F2_19_G_2_SplitPt_54_GenID_0'
p1287
(lp1288
(lp1289
I35
aI57
aI498
aasS'f14_11'
p1290
(lp1291
(lp1292
I64
aI1
aI224
aasS'f5_17'
p1293
(lp1294
(lp1295
I136
aI21
aI496
aasS'f3_27'
p1296
(lp1297
(lp1298
I13
aI3
aI491
aasS'f6_9'
p1299
(lp1300
(lp1301
I29
aI20
aI498
aasS'f6_8'
p1302
(lp1303
(lp1304
I29
aI257
aI500
aasS'f6_5'
p1305
(lp1306
(lp1307
I29
aI64
aI500
aasS'f6_4'
p1308
(lp1309
(lp1310
I29
aI4
aI497
aasS'f6_7'
p1311
(lp1312
(lp1313
I29
aI33
aI500
aasS'f6_6'
p1314
(lp1315
(lp1316
I29
aI3
aI500
aasS'f6_1'
p1317
(lp1318
(lp1319
I29
aI2
aI500
aasS'ID_126_F1_7_F2_5_G_3_SplitPt_136_GenID_0'
p1320
(lp1321
(lp1322
I99
aI3
aI135
aa(lp1323
I138
aI113
aI500
aasS'f6_3'
p1324
(lp1325
(lp1326
I126
aI223
aI384
aasS'f6_2'
p1327
(lp1328
(lp1329
I29
aI33
aI500
aasS'f4_3'
p1330
(lp1331
(lp1332
I36
aI144
aI499
aasS'f4_2'
p1333
(lp1334
(lp1335
I36
aI12
aI497
aasS'ID_113_F1_6_F2_5_G_4_SplitPt_157_GenID_0'
p1336
(lp1337
(lp1338
I157
aI1
aI194
aa(lp1339
I136
aI156
aI500
aasS'f17_9'
p1340
(lp1341
(lp1342
I26
aI147
aI499
aa(lp1343
I23
aI1
aI217
aasS'f4_7'
p1344
(lp1345
(lp1346
I36
aI5
aI500
aasS'f4_6'
p1347
(lp1348
(lp1349
I128
aI2
aI156
aa(lp1350
I36
aI113
aI500
aasS'f4_5'
p1351
(lp1352
(lp1353
I149
aI4
aI155
aa(lp1354
I36
aI122
aI500
aasS'f4_4'
p1355
(lp1356
(lp1357
I149
aI6
aI155
aa(lp1358
I36
aI118
aI499
aasS'f17_2'
p1359
(lp1360
(lp1361
I158
aI1
aI201
aa(lp1362
I37
aI52
aI500
aasS'f17_3'
p1363
(lp1364
(lp1365
I55
aI1
aI87
aa(lp1366
I37
aI61
aI499
aasS'f17_0'
p1367
(lp1368
(lp1369
I37
aI21
aI500
aasS'f4_8'
p1370
(lp1371
(lp1372
I159
aI11
aI154
aasS'f17_6'
p1373
(lp1374
(lp1375
I37
aI56
aI492
aasS'f17_7'
p1376
(lp1377
(lp1378
I37
aI121
aI486
aasS'f17_4'
p1379
(lp1380
(lp1381
I37
aI21
aI446
aasS'f17_5'
p1382
(lp1383
(lp1384
I37
aI204
aI469
aasS'f16_13'
p1385
(lp1386
(lp1387
I79
aI1
aI500
aasS'ID_96_F1_15_F2_18_G_4_SplitPt_73_GenID_0'
p1388
(lp1389
(lp1390
I6
aI1
aI81
aa(lp1391
I160
aI74
aI500
aasS'ID_124_F1_7_F2_17_G_2_SplitPt_192_GenID_0'
p1392
(lp1393
(lp1394
I51
aI11
aI196
aa(lp1395
I60
aI217
aI498
aasS'f6_0'
p1396
(lp1397
(lp1398
I29
aI3
aI463
aasS'f16_11'
p1399
(lp1400
(lp1401
I79
aI1
aI285
aasS'f8_7'
p1402
(lp1403
(lp1404
I61
aI145
aI498
aasS'f8_6'
p1405
(lp1406
(lp1407
I61
aI124
aI500
aasS'f8_5'
p1408
(lp1409
(lp1410
I161
aI317
aI480
aasS'f8_4'
p1411
(lp1412
(lp1413
I61
aI124
aI496
aasS'f8_3'
p1414
(lp1415
(lp1416
I161
aI317
aI480
aasS'f7_26'
p1417
(lp1418
(lp1419
I57
aI12
aI170
aa(lp1420
I58
aI123
aI497
aasS'f7_25'
p1421
(lp1422
(lp1423
I57
aI22
aI244
aa(lp1424
I58
aI121
aI497
aasS'f7_24'
p1425
(lp1426
(lp1427
I57
aI5
aI251
aa(lp1428
I58
aI19
aI497
aasS'f4_19'
p1429
(lp1430
(lp1431
I36
aI33
aI499
aasS'f7_29'
p1432
(lp1433
(lp1434
I162
aI1
aI191
aa(lp1435
I58
aI132
aI482
aasS'f7_28'
p1436
(lp1437
(lp1438
I162
aI1
aI196
aasS'f8_9'
p1439
(lp1440
(lp1441
I16
aI51
aI500
aasS'f8_8'
p1442
(lp1443
(lp1444
I16
aI51
aI500
aasS'ID_71_F1_16_F2_6_G_1_SplitPt_229_GenID_0'
p1445
(lp1446
(lp1447
I163
aI235
aI446
aasS'ID_89_F1_0_F2_5_G_2_SplitPt_141_GenID_0'
p1448
(lp1449
(lp1450
I49
aI141
aI487
aasS'ID_35_F1_0_F2_9_G_3_SplitPt_201_GenID_0'
p1451
(lp1452
(lp1453
I28
aI1
aI192
aa(lp1454
I34
aI188
aI499
aasS'f11_0'
p1455
(lp1456
(lp1457
I91
aI65
aI494
aasS'f11_1'
p1458
(lp1459
(lp1460
I91
aI4
aI494
aasS'f11_2'
p1461
(lp1462
(lp1463
I91
aI81
aI484
aasS'f11_4'
p1464
(lp1465
(lp1466
I91
aI83
aI492
aasS'f11_5'
p1467
(lp1468
(lp1469
I91
aI83
aI334
aasS'f11_6'
p1470
(lp1471
(lp1472
I91
aI65
aI494
aasS'f11_7'
p1473
(lp1474
(lp1475
I91
aI83
aI480
aasS'ID_145_F1_18_F2_19_G_4_SplitPt_65_GenID_0'
p1476
(lp1477
(lp1478
I88
aI1
aI68
aa(lp1479
I35
aI64
aI492
aasS'f11_9'
p1480
(lp1481
(lp1482
I91
aI5
aI420
aasS'ID_50_F1_1_F2_14_G_2_SplitPt_166_GenID_0'
p1483
(lp1484
(lp1485
I2
aI130
aI499
aasS'ID_78_F1_6_F2_6_G_2_SplitPt_63_GenID_0'
p1486
(lp1487
(lp1488
I29
aI64
aI449
aasS'f2_9'
p1489
(lp1490
(lp1491
I27
aI1
aI113
aa(lp1492
I20
aI117
aI500
aasS'f2_8'
p1493
(lp1494
(lp1495
I27
aI1
aI113
aa(lp1496
I20
aI18
aI500
aasS'f13_4'
p1497
(lp1498
(lp1499
I48
aI100
aI500
aasS'f13_5'
p1500
(lp1501
(lp1502
I164
aI113
aI221
aasS'f13_2'
p1503
(lp1504
(lp1505
I48
aI1
aI500
aasS'f13_3'
p1506
(lp1507
(lp1508
I48
aI42
aI500
aasS'f13_0'
p1509
(lp1510
(lp1511
I48
aI49
aI500
aasS'f13_1'
p1512
(lp1513
(lp1514
I165
aI351
aI500
aasS'f2_1'
p1515
(lp1516
(lp1517
I114
aI106
aI500
aasS'f2_0'
p1518
(lp1519
(lp1520
I114
aI63
aI500
aasS'f2_3'
p1521
(lp1522
(lp1523
I166
aI1
aI239
aa(lp1524
I114
aI146
aI499
aasS'f2_2'
p1525
(lp1526
(lp1527
I166
aI1
aI206
aa(lp1528
I114
aI146
aI499
aasS'f2_5'
p1529
(lp1530
(lp1531
I82
aI1
aI157
aa(lp1532
I114
aI203
aI488
aasS'f2_4'
p1533
(lp1534
(lp1535
I82
aI4
aI165
aa(lp1536
I114
aI182
aI488
aasS'f2_7'
p1537
(lp1538
(lp1539
I82
aI1
aI172
aa(lp1540
I114
aI99
aI500
aasS'f13_9'
p1541
(lp1542
(lp1543
I111
aI1
aI93
aa(lp1544
I83
aI257
aI490
aasS'f15_4'
p1545
(lp1546
(lp1547
I22
aI241
aI488
aasS'f15_5'
p1548
(lp1549
(lp1550
I22
aI12
aI469
aasS'f15_6'
p1551
(lp1552
(lp1553
I167
aI1
aI53
aa(lp1554
I168
aI2
aI319
aa(lp1555
I22
aI233
aI500
aasS'f15_7'
p1556
(lp1557
(lp1558
I167
aI1
aI56
aa(lp1559
I22
aI12
aI500
aasS'f15_0'
p1560
(lp1561
(lp1562
I168
aI2
aI236
aa(lp1563
I22
aI118
aI500
aasS'f15_1'
p1564
(lp1565
(lp1566
I168
aI6
aI301
aa(lp1567
I22
aI149
aI497
aasS'f0_9'
p1568
(lp1569
(lp1570
I169
aI8
aI166
aa(lp1571
I50
aI82
aI488
aasS'f15_3'
p1572
(lp1573
(lp1574
I22
aI120
aI473
aasS'f0_7'
p1575
(lp1576
(lp1577
I125
aI130
aI287
aasS'f0_6'
p1578
(lp1579
(lp1580
I170
aI340
aI500
aa(lp1581
I28
aI119
aI237
aasS'f0_5'
p1582
(lp1583
(lp1584
I171
aI80
aI463
aasS'f0_4'
p1585
(lp1586
(lp1587
I172
aI68
aI246
aasS'f15_8'
p1588
(lp1589
(lp1590
I71
aI303
aI496
aasS'f0_2'
p1591
(lp1592
(lp1593
I171
aI80
aI463
aasS'f0_1'
p1594
(lp1595
(lp1596
I170
aI340
aI500
aa(lp1597
I171
aI93
aI408
aasS'f0_0'
p1598
(lp1599
(lp1600
I172
aI68
aI246
aasS'ID_54_F1_5_F2_9_G_4_SplitPt_141_GenID_0'
p1601
(lp1602
(lp1603
I173
aI76
aI149
aa(lp1604
I139
aI4
aI66
aa(lp1605
I34
aI141
aI500
aasS'ID_185_F1_0_F2_12_G_1_SplitPt_69_GenID_0'
p1606
(lp1607
(lp1608
I5
aI114
aI487
aasS'ID_100_F1_7_F2_19_G_4_SplitPt_226_GenID_0'
p1609
(lp1610
(lp1611
I1
aI125
aI500
aa(lp1612
I68
aI1
aI228
aasS'ID_116_F1_1_F2_10_G_3_SplitPt_132_GenID_0'
p1613
(lp1614
(lp1615
I152
aI1
aI126
aa(lp1616
I40
aI119
aI500
aasS'ID_177_F1_0_F2_19_G_3_SplitPt_77_GenID_0'
p1617
(lp1618
(lp1619
I174
aI2
aI76
aa(lp1620
I1
aI73
aI493
aasS'f4_30'
p1621
(lp1622
(lp1623
I36
aI5
aI285
aasS'ID_44_F1_15_F2_16_G_4_SplitPt_53_GenID_0'
p1624
(lp1625
(lp1626
I167
aI1
aI56
aa(lp1627
I79
aI49
aI500
aasS'f16_12'
p1628
(lp1629
(lp1630
I79
aI29
aI500
aasS'ID_84_F1_17_F2_9_G_3_SplitPt_111_GenID_0'
p1631
(lp1632
(lp1633
I19
aI112
aI500
aa(lp1634
I23
aI4
aI149
aasS'ID_224_F1_17_F2_6_G_4_SplitPt_137_GenID_0'
p1635
(lp1636
(lp1637
I175
aI1
aI137
aa(lp1638
I29
aI96
aI500
aasS'f16_17'
p1639
(lp1640
(lp1641
I53
aI57
aI450
aasS'f16_16'
p1642
(lp1643
(lp1644
I176
aI239
aI491
aasS'f16_15'
p1645
(lp1646
(lp1647
I79
aI64
aI500
aasS'f16_14'
p1648
(lp1649
(lp1650
I79
aI71
aI500
aasS'f16_19'
p1651
(lp1652
(lp1653
I176
aI268
aI481
aasS'f16_18'
p1654
(lp1655
(lp1656
I176
aI242
aI481
aasS'f19_2'
p1657
(lp1658
(lp1659
I35
aI61
aI492
aasS'ID_252_F1_17_F2_1_G_3_SplitPt_233_GenID_0'
p1660
(lp1661
(lp1662
I23
aI2
aI276
aa(lp1663
I151
aI229
aI500
aasS'f6_24'
p1664
(lp1665
(lp1666
I157
aI1
aI182
aa(lp1667
I145
aI15
aI436
aasS'f6_25'
p1668
(lp1669
(lp1670
I157
aI1
aI157
aa(lp1671
I145
aI91
aI489
aasS'f6_26'
p1672
(lp1673
(lp1674
I157
aI1
aI192
aa(lp1675
I145
aI3
aI427
aasS'f6_27'
p1676
(lp1677
(lp1678
I157
aI1
aI165
aa(lp1679
I145
aI3
aI433
aasS'f6_20'
p1680
(lp1681
(lp1682
I145
aI180
aI500
aasS'f6_21'
p1683
(lp1684
(lp1685
I145
aI51
aI394
aasS'f6_22'
p1686
(lp1687
(lp1688
I145
aI75
aI493
aasS'f6_23'
p1689
(lp1690
(lp1691
I145
aI84
aI492
aasS'f6_28'
p1692
(lp1693
(lp1694
I177
aI2
aI60
aa(lp1695
I145
aI41
aI427
aasS'f6_29'
p1696
(lp1697
(lp1698
I177
aI1
aI62
aa(lp1699
I145
aI3
aI436
aasS'f1_25'
p1700
(lp1701
(lp1702
I151
aI65
aI498
aasS'f1_24'
p1703
(lp1704
(lp1705
I178
aI105
aI289
aasS'f1_21'
p1706
(lp1707
(lp1708
I179
aI1
aI121
aa(lp1709
I151
aI42
aI483
aasS'f14_18'
p1710
(lp1711
(lp1712
I180
aI4
aI95
aasS'f1_23'
p1713
(lp1714
(lp1715
I178
aI105
aI289
aa(lp1716
I179
aI10
aI123
aasS'f1_22'
p1717
(lp1718
(lp1719
I179
aI1
aI123
aa(lp1720
I151
aI14
aI493
aasS'f14_15'
p1721
(lp1722
(lp1723
I64
aI18
aI460
aasS'ID_111_F1_14_F2_13_G_3_SplitPt_180_GenID_0'
p1724
(lp1725
(lp1726
I165
aI331
aI500
aa(lp1727
I181
aI19
aI85
aasS'f14_17'
p1728
(lp1729
(lp1730
I182
aI1
aI165
aa(lp1731
I2
aI88
aI499
aasS'f14_16'
p1732
(lp1733
(lp1734
I182
aI1
aI158
aasS'f1_29'
p1735
(lp1736
(lp1737
I155
aI1
aI171
aa(lp1738
I151
aI5
aI497
aasS'f1_28'
p1739
(lp1740
(lp1741
I155
aI1
aI171
aa(lp1742
I151
aI95
aI477
aasS'f14_13'
p1743
(lp1744
(lp1745
I64
aI1
aI500
aasS'f14_12'
p1746
(lp1747
(lp1748
I64
aI11
aI499
aasS'ID_132_F1_7_F2_12_G_2_SplitPt_221_GenID_0'
p1749
(lp1750
(lp1751
I57
aI5
aI237
aa(lp1752
I5
aI262
aI494
aasS'ID_206_F1_5_F2_8_G_4_SplitPt_135_GenID_0'
p1753
(lp1754
(lp1755
I4
aI1
aI148
aa(lp1756
I144
aI133
aI500
aasS'ID_195_F1_2_F2_6_G_3_SplitPt_188_GenID_0'
p1757
(lp1758
(lp1759
I30
aI1
aI172
aa(lp1760
I145
aI176
aI500
aasS'f2_31'
p1761
(lp1762
(lp1763
I20
aI110
aI332
aasS'f2_30'
p1764
(lp1765
(lp1766
I20
aI59
aI477
aasS'ID_80_F1_14_F2_2_G_4_SplitPt_160_GenID_0'
p1767
(lp1768
(lp1769
I180
aI4
aI95
aa(lp1770
I114
aI155
aI500
aasS'ID_24_F1_1_F2_10_G_4_SplitPt_153_GenID_0'
p1771
(lp1772
(lp1773
I33
aI1
aI153
aa(lp1774
I40
aI148
aI500
aasS'f13_30'
p1775
(lp1776
(lp1777
I142
aI131
aI494
aasS'f13_31'
p1778
(lp1779
(lp1780
I142
aI1
aI500
aasS'ID_164_F1_0_F2_2_G_3_SplitPt_202_GenID_0'
p1781
(lp1782
(lp1783
I114
aI180
aI492
aa(lp1784
I28
aI1
aI245
aasS'f8_13'
p1785
(lp1786
(lp1787
I16
aI104
aI500
aasS'f8_12'
p1788
(lp1789
(lp1790
I16
aI64
aI500
aasS'f8_11'
p1791
(lp1792
(lp1793
I16
aI2
aI500
aasS'f8_10'
p1794
(lp1795
(lp1796
I16
aI55
aI500
aasS'f8_17'
p1797
(lp1798
(lp1799
I144
aI133
aI500
aasS'f8_16'
p1800
(lp1801
(lp1802
I144
aI133
aI481
aasS'ID_226_F1_7_F2_9_G_4_SplitPt_243_GenID_0'
p1803
(lp1804
(lp1805
I132
aI226
aI500
aa(lp1806
I109
aI1
aI243
aasS'f8_14'
p1807
(lp1808
(lp1809
I16
aI104
aI498
aasS'f8_19'
p1810
(lp1811
(lp1812
I183
aI12
aI79
aa(lp1813
I144
aI135
aI500
aasS'f8_18'
p1814
(lp1815
(lp1816
I183
aI1
aI79
aa(lp1817
I144
aI135
aI498
aasS'ID_152_F1_19_F2_6_G_1_SplitPt_89_GenID_0'
p1818
(lp1819
(lp1820
I29
aI124
aI495
aasS'ID_220_F1_11_F2_7_G_4_SplitPt_139_GenID_0'
p1821
(lp1822
(lp1823
I45
aI1
aI170
aa(lp1824
I110
aI50
aI500
aasS'ID_162_F1_10_F2_12_G_1_SplitPt_132_GenID_0'
p1825
(lp1826
(lp1827
I5
aI229
aI433
aasS'f18_1'
p1828
(lp1829
(lp1830
I156
aI120
aI479
aa(lp1831
I184
aI1
aI192
aasS'f18_0'
p1832
(lp1833
(lp1834
I156
aI168
aI500
aa(lp1835
I184
aI1
aI357
aasS'f18_3'
p1836
(lp1837
(lp1838
I156
aI77
aI500
aa(lp1839
I184
aI1
aI176
aasS'f18_2'
p1840
(lp1841
(lp1842
I156
aI78
aI500
aa(lp1843
I184
aI1
aI226
aasS'f18_5'
p1844
(lp1845
(lp1846
I156
aI77
aI497
aa(lp1847
I184
aI1
aI241
aasS'f18_4'
p1848
(lp1849
(lp1850
I184
aI3
aI240
aasS'f18_7'
p1851
(lp1852
(lp1853
I184
aI3
aI357
aasS'f18_6'
p1854
(lp1855
(lp1856
I184
aI2
aI231
aasS'f18_9'
p1857
(lp1858
(lp1859
I185
aI12
aI282
aasS'f18_8'
p1860
(lp1861
(lp1862
I160
aI205
aI498
aasS'ID_184_F1_18_F2_9_G_4_SplitPt_177_GenID_0'
p1863
(lp1864
(lp1865
I184
aI1
aI192
aa(lp1866
I34
aI178
aI500
aasS'f1_20'
p1867
(lp1868
(lp1869
I179
aI1
aI121
aa(lp1870
I151
aI215
aI490
aasS'ID_237_F1_8_F2_8_G_4_SplitPt_105_GenID_0'
p1871
(lp1872
(lp1873
I123
aI2
aI239
aa(lp1874
I65
aI1
aI107
aa(lp1875
I16
aI103
aI500
aasS'f9_30'
p1876
(lp1877
(lp1878
I153
aI1
aI143
aa(lp1879
I19
aI112
aI500
aasS'f9_31'
p1880
(lp1881
(lp1882
I134
aI157
aI286
aa(lp1883
I153
aI3
aI126
aasS'f5_31'
p1884
(lp1885
(lp1886
I186
aI53
aI236
aasS'f19_11'
p1887
(lp1888
(lp1889
I35
aI1
aI496
aasS'f14_14'
p1890
(lp1891
(lp1892
I64
aI6
aI480
aasS'ID_127_F1_12_F2_4_G_2_SplitPt_128_GenID_0'
p1893
(lp1894
(lp1895
I36
aI125
aI500
aasS'f16_28'
p1896
(lp1897
(lp1898
I106
aI1
aI124
aasS'f16_29'
p1899
(lp1900
(lp1901
I106
aI1
aI123
aasS'f14_9'
p1902
(lp1903
(lp1904
I64
aI11
aI468
aasS'f14_8'
p1905
(lp1906
(lp1907
I64
aI6
aI242
aasS'f14_5'
p1908
(lp1909
(lp1910
I67
aI2
aI246
aa(lp1911
I64
aI147
aI498
aasS'f16_23'
p1912
(lp1913
(lp1914
I53
aI10
aI480
aasS'f14_7'
p1915
(lp1916
(lp1917
I187
aI1
aI79
aasS'f16_21'
p1918
(lp1919
(lp1920
I106
aI47
aI130
aasS'f16_26'
p1921
(lp1922
(lp1923
I53
aI50
aI500
aasS'f14_0'
p1924
(lp1925
(lp1926
I67
aI2
aI292
aa(lp1927
I64
aI100
aI497
aasS'f16_24'
p1928
(lp1929
(lp1930
I53
aI18
aI495
aasS'f16_25'
p1931
(lp1932
(lp1933
I53
aI42
aI485
aasS'f16_3'
p1934
(lp1935
(lp1936
I188
aI182
aI425
aasS'f16_2'
p1937
(lp1938
(lp1939
I79
aI217
aI489
aasS'f16_1'
p1940
(lp1941
(lp1942
I189
aI2
aI268
aa(lp1943
I79
aI69
aI492
aasS'f16_0'
p1944
(lp1945
(lp1946
I188
aI145
aI381
aasS'f16_7'
p1947
(lp1948
(lp1949
I79
aI37
aI492
aasS'f16_6'
p1950
(lp1951
(lp1952
I189
aI2
aI268
aasS'f16_5'
p1953
(lp1954
(lp1955
I80
aI1
aI100
aa(lp1956
I188
aI218
aI468
aasS'ID_63_F1_15_F2_16_G_4_SplitPt_66_GenID_0'
p1957
(lp1958
(lp1959
I69
aI1
aI71
aa(lp1960
I79
aI42
aI500
aasS'f0_26'
p1961
(lp1962
(lp1963
I28
aI65
aI183
aasS'f0_27'
p1964
(lp1965
(lp1966
I14
aI144
aI496
aa(lp1967
I28
aI2
aI186
aasS'ID_187_F1_9_F2_2_G_4_SplitPt_192_GenID_0'
p1968
(lp1969
(lp1970
I96
aI1
aI197
aa(lp1971
I20
aI177
aI500
aasS'f0_25'
p1972
(lp1973
(lp1974
I14
aI75
aI499
aa(lp1975
I28
aI1
aI236
aasS'f0_22'
p1976
(lp1977
(lp1978
I174
aI2
aI76
aa(lp1979
I28
aI21
aI497
aasS'f0_23'
p1980
(lp1981
(lp1982
I174
aI2
aI76
aasS'f0_20'
p1983
(lp1984
(lp1985
I28
aI10
aI499
aasS'f0_21'
p1986
(lp1987
(lp1988
I105
aI248
aI479
aasS'f17_21'
p1989
(lp1990
(lp1991
I190
aI350
aI406
aa(lp1992
I140
aI2
aI152
aasS'f17_20'
p1993
(lp1994
(lp1995
I140
aI2
aI138
aa(lp1996
I60
aI122
aI498
aasS'f17_23'
p1997
(lp1998
(lp1999
I60
aI239
aI491
aasS'f17_22'
p2000
(lp2001
(lp2002
I140
aI1
aI139
aa(lp2003
I60
aI248
aI496
aasS'f17_25'
p2004
(lp2005
(lp2006
I15
aI2
aI59
aa(lp2007
I60
aI12
aI500
aasS'f17_24'
p2008
(lp2009
(lp2010
I191
aI1
aI151
aa(lp2011
I60
aI73
aI499
aasS'f17_27'
p2012
(lp2013
(lp2014
I60
aI70
aI498
aasS'f17_26'
p2015
(lp2016
(lp2017
I60
aI70
aI498
aasS'f17_29'
p2018
(lp2019
(lp2020
I60
aI81
aI497
aasS'f17_28'
p2021
(lp2022
(lp2023
I60
aI27
aI498
aasS'ID_137_F1_15_F2_18_G_3_SplitPt_117_GenID_0'
p2024
(lp2025
(lp2026
I6
aI2
aI70
aa(lp2027
I156
aI114
aI500
aasS'ID_34_F1_19_F2_8_G_3_SplitPt_128_GenID_0'
p2028
(lp2029
(lp2030
I118
aI15
aI173
aa(lp2031
I39
aI106
aI500
aasS'ID_254_F1_19_F2_14_G_2_SplitPt_166_GenID_0'
p2032
(lp2033
(lp2034
I2
aI167
aI499
aa(lp2035
I35
aI2
aI195
aasS'f4_1'
p2036
(lp2037
(lp2038
I36
aI110
aI481
aasS'ID_255_F1_7_F2_2_G_4_SplitPt_182_GenID_0'
p2039
(lp2040
(lp2041
I162
aI1
aI196
aa(lp2042
I31
aI131
aI500
aasS'ID_4_F1_1_F2_1_G_2_SplitPt_157_GenID_0'
p2043
(lp2044
(lp2045
I151
aI105
aI498
aasS'ID_199_F1_18_F2_0_G_2_SplitPt_91_GenID_0'
p2046
(lp2047
(lp2048
I28
aI99
aI499
aasS'f15_30'
p2049
(lp2050
(lp2051
I10
aI8
aI446
aa(lp2052
I7
aI307
aI460
aa(lp2053
I192
aI2
aI146
aa(lp2054
I6
aI1
aI73
aasS'f15_31'
p2055
(lp2056
(lp2057
I7
aI346
aI466
aa(lp2058
I6
aI2
aI73
aasS'ID_197_F1_2_F2_6_G_3_SplitPt_78_GenID_0'
p2059
(lp2060
(lp2061
I130
aI1
aI82
aa(lp2062
I145
aI79
aI500
aasS'f10_1'
p2063
(lp2064
(lp2065
I40
aI3
aI499
aasS'ID_83_F1_13_F2_5_G_2_SplitPt_219_GenID_0'
p2066
(lp2067
(lp2068
I164
aI113
aI224
aa(lp2069
I3
aI197
aI500
aasS'f10_3'
p2070
(lp2071
(lp2072
I56
aI296
aI448
aasS'f10_2'
p2073
(lp2074
(lp2075
I40
aI23
aI498
aasS'f10_5'
p2076
(lp2077
(lp2078
I40
aI182
aI499
aasS'f10_4'
p2079
(lp2080
(lp2081
I147
aI30
aI219
aasS'f10_7'
p2082
(lp2083
(lp2084
I40
aI3
aI500
aasS'ID_41_F1_18_F2_15_G_4_SplitPt_241_GenID_0'
p2085
(lp2086
(lp2087
I184
aI1
aI246
aa(lp2088
I12
aI226
aI500
aasS'f4_17'
p2089
(lp2090
(lp2091
I36
aI5
aI498
aasS'f4_16'
p2092
(lp2093
(lp2094
I36
aI2
aI500
aasS'f4_15'
p2095
(lp2096
(lp2097
I36
aI15
aI498
aasS'f4_14'
p2098
(lp2099
(lp2100
I36
aI9
aI450
aasS'f4_13'
p2101
(lp2102
(lp2103
I36
aI2
aI491
aasS'f4_12'
p2104
(lp2105
(lp2106
I36
aI2
aI399
aasS'f12_9'
p2107
(lp2108
(lp2109
I54
aI2
aI248
aasS'f12_8'
p2110
(lp2111
(lp2112
I54
aI1
aI206
aasS'f12_7'
p2113
(lp2114
(lp2115
I5
aI183
aI500
aasS'ID_193_F1_4_F2_14_G_2_SplitPt_188_GenID_0'
p2116
(lp2117
(lp2118
I159
aI11
aI154
aa(lp2119
I64
aI174
aI473
aasS'f12_5'
p2120
(lp2121
(lp2122
I5
aI19
aI498
aasS'f12_4'
p2123
(lp2124
(lp2125
I5
aI7
aI489
aasS'f12_3'
p2126
(lp2127
(lp2128
I5
aI161
aI500
aasS'f12_2'
p2129
(lp2130
(lp2131
I5
aI121
aI500
aasS'f12_1'
p2132
(lp2133
(lp2134
I5
aI19
aI500
aasS'f12_0'
p2135
(lp2136
(lp2137
I66
aI339
aI498
aa(lp2138
I5
aI19
aI477
aasS'ID_191_F1_6_F2_9_G_3_SplitPt_231_GenID_0'
p2139
(lp2140
(lp2141
I19
aI177
aI499
aa(lp2142
I29
aI2
aI224
aasS'f3_26'
p2143
(lp2144
(lp2145
I13
aI3
aI492
aasS'f3_25'
p2146
(lp2147
(lp2148
I13
aI4
aI500
aasS'ID_138_F1_0_F2_15_G_2_SplitPt_93_GenID_0'
p2149
(lp2150
(lp2151
I70
aI94
aI500
aasS'f3_23'
p2152
(lp2153
(lp2154
I193
aI6
aI241
aa(lp2155
I13
aI49
aI499
aasS'f3_22'
p2156
(lp2157
(lp2158
I193
aI6
aI242
aa(lp2159
I13
aI69
aI500
aasS'f3_21'
p2160
(lp2161
(lp2162
I193
aI37
aI268
aa(lp2163
I13
aI79
aI499
aasS'f3_20'
p2164
(lp2165
(lp2166
I193
aI36
aI248
aasS'ID_7_F1_14_F2_14_G_4_SplitPt_161_GenID_0'
p2167
(lp2168
(lp2169
I146
aI110
aI163
aa(lp2170
I2
aI161
aI500
aasS'f3_29'
p2171
(lp2172
(lp2173
I13
aI26
aI500
aasS'f3_28'
p2174
(lp2175
(lp2176
I13
aI6
aI499
aasS'f10_8'
p2177
(lp2178
(lp2179
I40
aI116
aI500
aasS'ID_212_F1_0_F2_7_G_4_SplitPt_177_GenID_0'
p2180
(lp2181
(lp2182
I169
aI1
aI178
aa(lp2183
I109
aI112
aI243
aasS'f6_19'
p2184
(lp2185
(lp2186
I145
aI79
aI500
aasS'f6_18'
p2187
(lp2188
(lp2189
I145
aI79
aI496
aasS'f6_15'
p2190
(lp2191
(lp2192
I29
aI16
aI480
aasS'f6_14'
p2193
(lp2194
(lp2195
I29
aI3
aI453
aasS'f6_17'
p2196
(lp2197
(lp2198
I145
aI75
aI500
aasS'f6_16'
p2199
(lp2200
(lp2201
I145
aI51
aI499
aasS'f6_11'
p2202
(lp2203
(lp2204
I41
aI16
aI109
aasS'f6_10'
p2205
(lp2206
(lp2207
I41
aI1
aI90
aa(lp2208
I29
aI3
aI480
aasS'f6_13'
p2209
(lp2210
(lp2211
I163
aI235
aI446
aa(lp2212
I150
aI2
aI52
aa(lp2213
I29
aI19
aI341
aasS'f6_12'
p2214
(lp2215
(lp2216
I150
aI1
aI52
aa(lp2217
I29
aI3
aI495
aasS'f4_18'
p2218
(lp2219
(lp2220
I36
aI1
aI499
aasS'f19_6'
p2221
(lp2222
(lp2223
I35
aI57
aI499
aasS'ID_39_F1_15_F2_13_G_2_SplitPt_189_GenID_0'
p2224
(lp2225
(lp2226
I73
aI8
aI153
aa(lp2227
I83
aI187
aI500
aasS'ID_59_F1_0_F2_12_G_1_SplitPt_81_GenID_0'
p2228
(lp2229
(lp2230
I194
aI85
aI229
aasS'ID_233_F1_16_F2_18_G_3_SplitPt_94_GenID_0'
p2231
(lp2232
(lp2233
I86
aI85
aI212
aa(lp2234
I106
aI1
aI92
aasS'ID_134_F1_8_F2_7_G_0_SplitPt_70_GenID_0'
p2235
(lp2236
(lp2237
I143
aI11
aI454
aasS'ID_104_F1_5_F2_2_G_3_SplitPt_162_GenID_0'
p2238
(lp2239
(lp2240
I116
aI1
aI164
aa(lp2241
I20
aI157
aI500
aasS'ID_236_F1_9_F2_4_G_3_SplitPt_124_GenID_0'
p2242
(lp2243
(lp2244
I153
aI1
aI126
aa(lp2245
I36
aI116
aI497
aasS'ID_140_F1_3_F2_8_G_2_SplitPt_115_GenID_0'
p2246
(lp2247
(lp2248
I61
aI124
aI500
aasS'f10_30'
p2249
(lp2250
(lp2251
I40
aI3
aI489
aasS'ID_221_F1_13_F2_0_G_4_SplitPt_93_GenID_0'
p2252
(lp2253
(lp2254
I111
aI1
aI93
aa(lp2255
I50
aI77
aI500
aasS'ID_240_F1_19_F2_19_G_4_SplitPt_87_GenID_0'
p2256
(lp2257
(lp2258
I35
aI1
aI499
aasS'ID_239_F1_6_F2_10_G_4_SplitPt_61_GenID_0'
p2259
(lp2260
(lp2261
I56
aI296
aI448
aa(lp2262
I177
aI1
aI62
aasS'ID_73_F1_18_F2_18_G_2_SplitPt_199_GenID_0'
p2263
(lp2264
(lp2265
I85
aI182
aI479
aasS'f7_30'
p2266
(lp2267
(lp2268
I162
aI1
aI186
aa(lp2269
I58
aI19
aI469
aasS'f7_31'
p2270
(lp2271
(lp2272
I162
aI4
aI189
aa(lp2273
I58
aI19
aI484
aasS'f12_17'
p2274
(lp2275
(lp2276
I5
aI3
aI491
aasS'f12_16'
p2277
(lp2278
(lp2279
I5
aI1
aI481
aasS'f12_14'
p2280
(lp2281
(lp2282
I195
aI36
aI481
aasS'f12_13'
p2283
(lp2284
(lp2285
I195
aI36
aI481
aasS'f12_12'
p2286
(lp2287
(lp2288
I196
aI105
aI498
aasS'f12_11'
p2289
(lp2290
(lp2291
I196
aI105
aI498
aa(lp2292
I54
aI1
aI223
aasS'f12_10'
p2293
(lp2294
(lp2295
I195
aI139
aI458
aa(lp2296
I54
aI1
aI209
aasS'f12_19'
p2297
(lp2298
(lp2299
I87
aI2
aI50
aasS'f12_18'
p2300
(lp2301
(lp2302
I87
aI1
aI52
aa(lp2303
I5
aI2
aI477
aasS'ID_139_F1_2_F2_16_G_2_SplitPt_245_GenID_0'
p2304
(lp2305
(lp2306
I166
aI1
aI239
aa(lp2307
I176
aI239
aI491
aasS'ID_175_F1_0_F2_9_G_4_SplitPt_52_GenID_0'
p2308
(lp2309
(lp2310
I197
aI1
aI75
aa(lp2311
I34
aI52
aI500
aasS'f13_12'
p2312
(lp2313
(lp2314
I83
aI190
aI455
aasS'ID_219_F1_16_F2_15_G_4_SplitPt_123_GenID_0'
p2315
(lp2316
(lp2317
I106
aI1
aI128
aa(lp2318
I12
aI102
aI500
aasS'f11_30'
p2319
(lp2320
(lp2321
I46
aI6
aI500
aasS'f11_31'
p2322
(lp2323
(lp2324
I46
aI213
aI500
aasS'ID_57_F1_16_F2_16_G_2_SplitPt_108_GenID_0'
p2325
(lp2326
(lp2327
I80
aI1
aI103
aa(lp2328
I53
aI102
aI498
aasS'ID_178_F1_1_F2_4_G_4_SplitPt_121_GenID_0'
p2329
(lp2330
(lp2331
I179
aI1
aI123
aa(lp2332
I36
aI110
aI500
aasS'ID_130_F1_19_F2_17_G_4_SplitPt_177_GenID_0'
p2333
(lp2334
(lp2335
I37
aI150
aI500
aa(lp2336
I35
aI1
aI222
aasS'ID_87_F1_7_F2_10_G_3_SplitPt_233_GenID_0'
p2337
(lp2338
(lp2339
I57
aI1
aI261
aa(lp2340
I40
aI226
aI500
aasS'ID_51_F1_6_F2_1_G_2_SplitPt_82_GenID_0'
p2341
(lp2342
(lp2343
I151
aI80
aI483
aasS'ID_20_F1_3_F2_17_G_3_SplitPt_246_GenID_0'
p2344
(lp2345
(lp2346
I190
aI350
aI406
aa(lp2347
I13
aI3
aI268
aasS'ID_93_F1_2_F2_10_G_1_SplitPt_75_GenID_0'
p2348
(lp2349
(lp2350
I40
aI116
aI475
aasS'ID_167_F1_18_F2_7_G_4_SplitPt_228_GenID_0'
p2351
(lp2352
(lp2353
I184
aI1
aI246
aa(lp2354
I52
aI229
aI500
aasS'ID_150_F1_13_F2_8_G_2_SplitPt_223_GenID_0'
p2355
(lp2356
(lp2357
I16
aI211
aI500
aa(lp2358
I48
aI7
aI225
aasS'ID_14_F1_6_F2_0_G_2_SplitPt_102_GenID_0'
p2359
(lp2360
(lp2361
I14
aI78
aI498
aasS'ID_94_F1_18_F2_17_G_1_SplitPt_71_GenID_0'
p2362
(lp2363
(lp2364
I23
aI67
aI211
aasS'f18_19'
p2365
(lp2366
(lp2367
I85
aI12
aI498
aasS'f18_18'
p2368
(lp2369
(lp2370
I102
aI23
aI275
aa(lp2371
I85
aI64
aI499
aasS'f12_28'
p2372
(lp2373
(lp2374
I5
aI249
aI498
aasS'f18_11'
p2375
(lp2376
(lp2377
I160
aI21
aI492
aasS'f18_10'
p2378
(lp2379
(lp2380
I160
aI195
aI465
aasS'f18_13'
p2381
(lp2382
(lp2383
I160
aI21
aI500
aasS'f18_12'
p2384
(lp2385
(lp2386
I185
aI12
aI282
aa(lp2387
I160
aI81
aI500
aasS'f18_15'
p2388
(lp2389
(lp2390
I160
aI65
aI498
aasS'f18_14'
p2391
(lp2392
(lp2393
I160
aI74
aI489
aasS'ID_42_F1_5_F2_17_G_4_SplitPt_69_GenID_0'
p2394
(lp2395
(lp2396
I139
aI1
aI69
aa(lp2397
I60
aI70
aI500
aasS'f18_16'
p2398
(lp2399
(lp2400
I104
aI2
aI82
aa(lp2401
I85
aI15
aI481
aasS'f3_6'
p2402
(lp2403
(lp2404
I13
aI121
aI500
aasS'ID_29_F1_5_F2_13_G_2_SplitPt_84_GenID_0'
p2405
(lp2406
(lp2407
I137
aI1
aI76
aa(lp2408
I48
aI127
aI500
aasS'f19_1'
p2409
(lp2410
(lp2411
I35
aI1
aI459
aasS'ID_247_F1_5_F2_11_G_1_SplitPt_236_GenID_0'
p2412
(lp2413
(lp2414
I186
aI53
aI236
aasS'f14_28'
p2415
(lp2416
(lp2417
I2
aI1
aI499
aasS'ID_231_F1_14_F2_10_G_3_SplitPt_86_GenID_0'
p2418
(lp2419
(lp2420
I187
aI1
aI79
aa(lp2421
I40
aI74
aI499
aasS'f3_11'
p2422
(lp2423
(lp2424
I42
aI109
aI496
aasS'f0_29'
p2425
(lp2426
(lp2427
I14
aI80
aI483
aasS'f1_30'
p2428
(lp2429
(lp2430
I151
aI68
aI498
aasS'f1_31'
p2431
(lp2432
(lp2433
I151
aI102
aI500
aasS'f14_20'
p2434
(lp2435
(lp2436
I122
aI1
aI175
aa(lp2437
I2
aI88
aI500
aasS'f19_4'
p2438
(lp2439
(lp2440
I25
aI28
aI161
aasS'f14_22'
p2441
(lp2442
(lp2443
I181
aI1
aI80
aa(lp2444
I122
aI2
aI216
aa(lp2445
I2
aI111
aI499
aasS'f14_23'
p2446
(lp2447
(lp2448
I181
aI1
aI82
aa(lp2449
I122
aI6
aI200
aa(lp2450
I2
aI68
aI500
aasS'f19_30'
p2451
(lp2452
(lp2453
I21
aI2
aI452
aa(lp2454
I18
aI1
aI215
aasS'f19_31'
p2455
(lp2456
(lp2457
I18
aI1
aI209
aasS'f14_26'
p2458
(lp2459
(lp2460
I67
aI2
aI292
aasS'f14_27'
p2461
(lp2462
(lp2463
I67
aI2
aI244
aa(lp2464
I64
aI183
aI467
aasS'f10_11'
p2465
(lp2466
(lp2467
I129
aI4
aI86
aasS'f10_10'
p2468
(lp2469
(lp2470
I129
aI1
aI82
aa(lp2471
I40
aI14
aI500
aasS'f10_13'
p2472
(lp2473
(lp2474
I43
aI1
aI109
aa(lp2475
I40
aI2
aI500
aasS'f10_12'
p2476
(lp2477
(lp2478
I43
aI1
aI98
aa(lp2479
I40
aI56
aI498
aasS'f10_15'
p2480
(lp2481
(lp2482
I43
aI10
aI96
aasS'f10_14'
p2483
(lp2484
(lp2485
I43
aI1
aI98
aa(lp2486
I40
aI140
aI500
aasS'f10_17'
p2487
(lp2488
(lp2489
I59
aI2
aI74
aasS'f10_16'
p2490
(lp2491
(lp2492
I59
aI1
aI78
aa(lp2493
I40
aI20
aI460
aasS'f2_20'
p2494
(lp2495
(lp2496
I31
aI150
aI500
aasS'f2_21'
p2497
(lp2498
(lp2499
I32
aI6
aI314
aa(lp2500
I31
aI135
aI500
aasS'f2_22'
p2501
(lp2502
(lp2503
I31
aI137
aI498
aasS'f2_23'
p2504
(lp2505
(lp2506
I31
aI115
aI492
aasS'f2_24'
p2507
(lp2508
(lp2509
I20
aI5
aI500
aasS'f2_25'
p2510
(lp2511
(lp2512
I20
aI83
aI500
aasS'f2_26'
p2513
(lp2514
(lp2515
I20
aI5
aI500
aasS'f2_27'
p2516
(lp2517
(lp2518
I20
aI105
aI499
aasS'ID_3_F1_9_F2_19_G_2_SplitPt_177_GenID_0'
p2519
(lp2520
(lp2521
I198
aI1
aI186
aa(lp2522
I35
aI182
aI491
aasS'ID_249_F1_1_F2_16_G_1_SplitPt_98_GenID_0'
p2523
(lp2524
(lp2525
I188
aI145
aI468
aasS'f13_27'
p2526
(lp2527
(lp2528
I142
aI199
aI445
aasS'f13_26'
p2529
(lp2530
(lp2531
I142
aI1
aI416
aasS'f13_21'
p2532
(lp2533
(lp2534
I84
aI237
aI478
aasS'f13_23'
p2535
(lp2536
(lp2537
I84
aI10
aI400
aasS'f13_29'
p2538
(lp2539
(lp2540
I142
aI140
aI485
aasS'f13_28'
p2541
(lp2542
(lp2543
I142
aI141
aI490
aasS'f17_19'
p2544
(lp2545
(lp2546
I175
aI1
aI137
aa(lp2547
I60
aI105
aI499
aasS'ID_46_F1_14_F2_16_G_3_SplitPt_227_GenID_0'
p2548
(lp2549
(lp2550
I53
aI228
aI500
aa(lp2551
I64
aI1
aI224
aasS'ID_146_F1_8_F2_5_G_4_SplitPt_78_GenID_0'
p2552
(lp2553
(lp2554
I173
aI76
aI149
aa(lp2555
I183
aI1
aI79
aasS'ID_234_F1_0_F2_7_G_2_SplitPt_94_GenID_0'
p2556
(lp2557
(lp2558
I110
aI48
aI489
aasS'f4_0'
p2559
(lp2560
(lp2561
I36
aI142
aI491
aasS'f14_4'
p2562
(lp2563
(lp2564
I64
aI147
aI484
aasS'f17_17'
p2565
(lp2566
(lp2567
I60
aI164
aI493
aasS'ID_190_F1_16_F2_5_G_1_SplitPt_87_GenID_0'
p2568
(lp2569
(lp2570
I136
aI79
aI438
aasS'ID_91_F1_14_F2_5_G_3_SplitPt_95_GenID_0'
p2571
(lp2572
(lp2573
I115
aI104
aI189
aa(lp2574
I181
aI1
aI85
aasS'ID_74_F1_7_F2_15_G_3_SplitPt_147_GenID_0'
p2575
(lp2576
(lp2577
I51
aI14
aI163
aa(lp2578
I22
aI149
aI500
aasS'ID_76_F1_3_F2_0_G_2_SplitPt_82_GenID_0'
p2579
(lp2580
(lp2581
I50
aI81
aI498
aasS'ID_201_F1_19_F2_13_G_4_SplitPt_126_GenID_0'
p2582
(lp2583
(lp2584
I142
aI125
aI500
aa(lp2585
I35
aI1
aI144
aasS'f16_31'
p2586
(lp2587
(lp2588
I106
aI5
aI118
aasS'f16_30'
p2589
(lp2590
(lp2591
I53
aI2
aI444
aasS'f14_10'
p2592
(lp2593
(lp2594
I64
aI1
aI468
aasS'f19_10'
p2595
(lp2596
(lp2597
I35
aI2
aI494
aasS'f0_19'
p2598
(lp2599
(lp2600
I197
aI1
aI72
aa(lp2601
I105
aI292
aI496
aasS'f0_18'
p2602
(lp2603
(lp2604
I105
aI269
aI479
aa(lp2605
I28
aI12
aI467
aasS'ID_107_F1_12_F2_11_G_4_SplitPt_52_GenID_0'
p2606
(lp2607
(lp2608
I87
aI1
aI52
aa(lp2609
I44
aI47
aI500
aasS'f12_29'
p2610
(lp2611
(lp2612
I5
aI113
aI498
aasS'f0_13'
p2613
(lp2614
(lp2615
I50
aI77
aI500
aasS'f0_12'
p2616
(lp2617
(lp2618
I50
aI88
aI500
aasS'f0_11'
p2619
(lp2620
(lp2621
I169
aI1
aI177
aa(lp2622
I50
aI85
aI498
aasS'f0_10'
p2623
(lp2624
(lp2625
I169
aI3
aI178
aa(lp2626
I50
aI12
aI498
aasS'f0_17'
p2627
(lp2628
(lp2629
I105
aI249
aI500
aa(lp2630
I28
aI1
aI479
aasS'f0_16'
p2631
(lp2632
(lp2633
I105
aI251
aI500
aa(lp2634
I28
aI1
aI479
aasS'f12_20'
p2635
(lp2636
(lp2637
I194
aI85
aI236
aasS'f0_14'
p2638
(lp2639
(lp2640
I50
aI96
aI499
aasS'f17_18'
p2641
(lp2642
(lp2643
I175
aI1
aI137
aa(lp2644
I60
aI105
aI499
aasS'ID_232_F1_17_F2_3_G_3_SplitPt_206_GenID_0'
p2645
(lp2646
(lp2647
I158
aI1
aI205
aa(lp2648
I63
aI184
aI500
aasS'f17_14'
p2649
(lp2650
(lp2651
I26
aI178
aI442
aasS'f17_16'
p2652
(lp2653
(lp2654
I175
aI1
aI137
aa(lp2655
I60
aI12
aI492
aasS'ID_120_F1_3_F2_6_G_2_SplitPt_242_GenID_0'
p2656
(lp2657
(lp2658
I193
aI6
aI266
aa(lp2659
I29
aI235
aI500
aasS'f17_10'
p2660
(lp2661
(lp2662
I26
aI215
aI496
aa(lp2663
I23
aI1
aI262
aasS'f17_11'
p2664
(lp2665
(lp2666
I26
aI152
aI496
aa(lp2667
I23
aI1
aI232
aasS'f17_13'
p2668
(lp2669
(lp2670
I23
aI5
aI231
aasS'f8_15'
p2671
(lp2672
(lp2673
I16
aI2
aI500
aasS'f6_31'
p2674
(lp2675
(lp2676
I177
aI1
aI59
aasS'ID_62_F1_7_F2_12_G_1_SplitPt_195_GenID_0'
p2677
(lp2678
(lp2679
I5
aI211
aI452
aas.