(dp1
S'f5_1'
p2
(lp3
(lp4
I1
aI1
aI134
aa(lp5
I2
aI5
aI499
aasS'ID_311_F1_15_F2_18_G_2_SplitPt_152_GenID_0'
p6
(lp7
(lp8
I3
aI147
aI500
aa(lp9
I4
aI8
aI148
aasS'f18_6'
p10
(lp11
(lp12
I5
aI96
aI495
aa(lp13
I6
aI1
aI222
aasS'f9_29'
p14
(lp15
(lp16
I7
aI39
aI179
aa(lp17
I8
aI85
aI370
aasS'ID_212_F1_9_F2_12_G_2_SplitPt_196_GenID_0'
p18
(lp19
(lp20
I9
aI239
aI498
aasS'ID_437_F1_6_F2_1_G_4_SplitPt_202_GenID_0'
p21
(lp22
(lp23
I10
aI130
aI209
aa(lp24
I11
aI203
aI500
aasS'f18_8'
p25
(lp26
(lp27
I12
aI5
aI282
aasS'ID_468_F1_14_F2_1_G_3_SplitPt_133_GenID_0'
p28
(lp29
(lp30
I13
aI1
aI148
aa(lp31
I14
aI133
aI500
aasS'ID_51_F1_18_F2_17_G_3_SplitPt_155_GenID_0'
p32
(lp33
(lp34
I15
aI6
aI153
aa(lp35
I16
aI162
aI500
aasS'ID_441_F1_17_F2_0_G_2_SplitPt_68_GenID_0'
p36
(lp37
(lp38
I17
aI65
aI500
aasS'ID_330_F1_6_F2_7_G_2_SplitPt_59_GenID_0'
p39
(lp40
(lp41
I18
aI54
aI500
aasS'ID_92_F1_7_F2_2_G_3_SplitPt_79_GenID_0'
p42
(lp43
(lp44
I19
aI1
aI80
aa(lp45
I20
aI78
aI499
aasS'ID_491_F1_18_F2_5_G_4_SplitPt_204_GenID_0'
p46
(lp47
(lp48
I12
aI1
aI204
aa(lp49
I2
aI179
aI500
aasS'ID_160_F1_5_F2_2_G_4_SplitPt_151_GenID_0'
p50
(lp51
(lp52
I21
aI1
aI153
aa(lp53
I22
aI116
aI500
aasS'ID_158_F1_9_F2_6_G_3_SplitPt_66_GenID_0'
p54
(lp55
(lp56
I23
aI71
aI500
aasS'f15_28'
p57
(lp58
(lp59
I4
aI1
aI500
aasS'f15_27'
p60
(lp61
(lp62
I24
aI4
aI139
aa(lp63
I4
aI29
aI476
aasS'f15_26'
p64
(lp65
(lp66
I24
aI4
aI132
aa(lp67
I4
aI25
aI475
aasS'f15_25'
p68
(lp69
(lp70
I25
aI311
aI379
aa(lp71
I26
aI1
aI101
aasS'f15_24'
p72
(lp73
(lp74
I26
aI1
aI72
aa(lp75
I4
aI26
aI479
aasS'f15_23'
p76
(lp77
(lp78
I27
aI120
aI500
aasS'f15_22'
p79
(lp80
(lp81
I28
aI5
aI157
aa(lp82
I27
aI116
aI500
aasS'f15_21'
p83
(lp84
(lp85
I25
aI311
aI379
aasS'f15_20'
p86
(lp87
(lp88
I29
aI234
aI383
aasS'f11_30'
p89
(lp90
(lp91
I30
aI1
aI222
aa(lp92
I31
aI96
aI500
aasS'f3_30'
p93
(lp94
(lp95
I32
aI2
aI231
aa(lp96
I33
aI51
aI494
aasS'f3_31'
p97
(lp98
(lp99
I32
aI13
aI231
aa(lp100
I33
aI150
aI496
aasS'ID_428_F1_9_F2_3_G_3_SplitPt_92_GenID_0'
p101
(lp102
(lp103
I34
aI102
aI498
aa(lp104
I8
aI1
aI91
aasS'ID_78_F1_19_F2_12_G_2_SplitPt_98_GenID_0'
p105
(lp106
(lp107
I35
aI101
aI338
aasS'f15_14'
p108
(lp109
(lp110
I36
aI21
aI195
aa(lp111
I4
aI71
aI500
aasS'ID_220_F1_4_F2_4_G_1_SplitPt_98_GenID_0'
p112
(lp113
(lp114
I37
aI100
aI490
aasS'ID_221_F1_16_F2_4_G_2_SplitPt_171_GenID_0'
p115
(lp116
(lp117
I38
aI171
aI498
aa(lp118
I39
aI15
aI169
aasS'f15_15'
p119
(lp120
(lp121
I36
aI18
aI195
aa(lp122
I4
aI50
aI499
aasS'ID_19_F1_11_F2_16_G_3_SplitPt_189_GenID_0'
p123
(lp124
(lp125
I40
aI194
aI497
aa(lp126
I41
aI2
aI220
aasS'ID_425_F1_14_F2_4_G_3_SplitPt_105_GenID_0'
p127
(lp128
(lp129
I13
aI1
aI104
aa(lp130
I38
aI106
aI499
aasS'ID_370_F1_0_F2_18_G_4_SplitPt_211_GenID_0'
p131
(lp132
(lp133
I42
aI213
aI322
aa(lp134
I43
aI1
aI244
aasS'f15_13'
p135
(lp136
(lp137
I36
aI1
aI216
aa(lp138
I4
aI118
aI500
aasS'ID_474_F1_0_F2_2_G_3_SplitPt_152_GenID_0'
p139
(lp140
(lp141
I44
aI7
aI143
aa(lp142
I20
aI146
aI498
aasS'f15_11'
p143
(lp144
(lp145
I4
aI3
aI500
aasS'f17_8'
p146
(lp147
(lp148
I45
aI180
aI454
aasS'ID_444_F1_6_F2_11_G_2_SplitPt_90_GenID_0'
p149
(lp150
(lp151
I46
aI4
aI102
aa(lp152
I31
aI78
aI500
aasS'f2_11'
p153
(lp154
(lp155
I47
aI194
aI487
aasS'f2_10'
p156
(lp157
(lp158
I47
aI49
aI479
aasS'f2_13'
p159
(lp160
(lp161
I47
aI1
aI487
aasS'f17_9'
p162
(lp163
(lp164
I45
aI23
aI391
aasS'f2_15'
p165
(lp166
(lp167
I47
aI115
aI480
aasS'f2_14'
p168
(lp169
(lp170
I47
aI49
aI480
aasS'f2_17'
p171
(lp172
(lp173
I48
aI2
aI500
aasS'ID_152_F1_18_F2_2_G_3_SplitPt_148_GenID_0'
p174
(lp175
(lp176
I49
aI154
aI244
aa(lp177
I6
aI1
aI152
aasS'f2_19'
p178
(lp179
(lp180
I48
aI3
aI500
aasS'f2_18'
p181
(lp182
(lp183
I48
aI1
aI500
aasS'ID_319_F1_9_F2_2_G_3_SplitPt_208_GenID_0'
p184
(lp185
(lp186
I22
aI174
aI500
aa(lp187
I8
aI2
aI210
aasS'ID_381_F1_1_F2_9_G_3_SplitPt_247_GenID_0'
p188
(lp189
(lp190
I50
aI11
aI128
aa(lp191
I8
aI186
aI499
aasS'ID_422_F1_8_F2_13_G_1_SplitPt_133_GenID_0'
p192
(lp193
(lp194
I51
aI239
aI414
aasS'ID_253_F1_9_F2_10_G_2_SplitPt_184_GenID_0'
p195
(lp196
(lp197
I52
aI3
aI187
aa(lp198
I53
aI91
aI499
aasS'ID_483_F1_14_F2_19_G_3_SplitPt_104_GenID_0'
p199
(lp200
(lp201
I54
aI1
aI98
aa(lp202
I55
aI104
aI499
aasS'f19_27'
p203
(lp204
(lp205
I56
aI1
aI160
aasS'ID_414_F1_4_F2_15_G_2_SplitPt_226_GenID_0'
p206
(lp207
(lp208
I57
aI6
aI226
aa(lp209
I4
aI231
aI491
aasS'ID_98_F1_4_F2_2_G_3_SplitPt_101_GenID_0'
p210
(lp211
(lp212
I58
aI1
aI108
aa(lp213
I20
aI87
aI500
aasS'f1_14'
p214
(lp215
(lp216
I11
aI194
aI496
aasS'f15_18'
p217
(lp218
(lp219
I59
aI1
aI124
aa(lp220
I27
aI14
aI466
aasS'ID_56_F1_1_F2_3_G_4_SplitPt_55_GenID_0'
p221
(lp222
(lp223
I60
aI1
aI90
aa(lp224
I61
aI52
aI500
aasS'ID_165_F1_15_F2_19_G_4_SplitPt_199_GenID_0'
p225
(lp226
(lp227
I62
aI118
aI199
aa(lp228
I55
aI193
aI500
aasS'f19_24'
p229
(lp230
(lp231
I56
aI1
aI134
aasS'f4_9'
p232
(lp233
(lp234
I63
aI2
aI100
aasS'f4_8'
p235
(lp236
(lp237
I37
aI142
aI492
aasS'f8_31'
p238
(lp239
(lp240
I64
aI298
aI395
aa(lp241
I65
aI1
aI109
aasS'f8_30'
p242
(lp243
(lp244
I65
aI7
aI136
aasS'f12_23'
p245
(lp246
(lp247
I66
aI1
aI95
aasS'f19_0'
p248
(lp249
(lp250
I67
aI58
aI500
aasS'ID_299_F1_9_F2_1_G_1_SplitPt_129_GenID_0'
p251
(lp252
(lp253
I14
aI236
aI497
aasS'ID_30_F1_5_F2_1_G_2_SplitPt_74_GenID_0'
p254
(lp255
(lp256
I11
aI82
aI458
aasS'ID_107_F1_4_F2_13_G_4_SplitPt_102_GenID_0'
p257
(lp258
(lp259
I68
aI103
aI233
aa(lp260
I69
aI364
aI495
aa(lp261
I63
aI1
aI105
aasS'ID_75_F1_14_F2_8_G_2_SplitPt_185_GenID_0'
p262
(lp263
(lp264
I70
aI223
aI497
aasS'ID_35_F1_9_F2_9_G_4_SplitPt_227_GenID_0'
p265
(lp266
(lp267
I8
aI1
aI500
aasS'f6_18'
p268
(lp269
(lp270
I71
aI1
aI153
aa(lp271
I72
aI132
aI498
aasS'ID_84_F1_4_F2_16_G_2_SplitPt_163_GenID_0'
p272
(lp273
(lp274
I73
aI149
aI497
aasS'f19_1'
p275
(lp276
(lp277
I67
aI63
aI500
aasS'ID_174_F1_0_F2_1_G_4_SplitPt_60_GenID_0'
p278
(lp279
(lp280
I74
aI1
aI60
aa(lp281
I75
aI52
aI500
aasS'f8_21'
p282
(lp283
(lp284
I70
aI1
aI494
aasS'f15_29'
p285
(lp286
(lp287
I4
aI8
aI500
aasS'ID_132_F1_6_F2_7_G_3_SplitPt_243_GenID_0'
p288
(lp289
(lp290
I76
aI5
aI247
aa(lp291
I77
aI214
aI498
aasS'f11_23'
p292
(lp293
(lp294
I78
aI1
aI162
aa(lp295
I79
aI42
aI500
aasS'f11_22'
p296
(lp297
(lp298
I78
aI1
aI155
aa(lp299
I79
aI61
aI500
aasS'f11_21'
p300
(lp301
(lp302
I78
aI5
aI154
aa(lp303
I79
aI25
aI500
aasS'f11_20'
p304
(lp305
(lp306
I78
aI2
aI218
aa(lp307
I79
aI100
aI497
aasS'f11_27'
p308
(lp309
(lp310
I80
aI358
aI439
aasS'f11_26'
p311
(lp312
(lp313
I31
aI210
aI498
aasS'f11_25'
p314
(lp315
(lp316
I81
aI301
aI488
aasS'f11_24'
p317
(lp318
(lp319
I31
aI50
aI499
aasS'f11_29'
p320
(lp321
(lp322
I81
aI305
aI488
aa(lp323
I30
aI1
aI228
aasS'f11_28'
p324
(lp325
(lp326
I30
aI2
aI176
aa(lp327
I31
aI50
aI500
aasS'ID_173_F1_16_F2_4_G_3_SplitPt_132_GenID_0'
p328
(lp329
(lp330
I82
aI1
aI135
aa(lp331
I83
aI107
aI500
aasS'ID_272_F1_15_F2_9_G_3_SplitPt_191_GenID_0'
p332
(lp333
(lp334
I4
aI4
aI202
aa(lp335
I8
aI163
aI500
aasS'ID_278_F1_10_F2_15_G_2_SplitPt_185_GenID_0'
p336
(lp337
(lp338
I84
aI10
aI256
aa(lp339
I4
aI185
aI496
aasS'f4_31'
p340
(lp341
(lp342
I85
aI7
aI85
aa(lp343
I83
aI71
aI500
aasS'f4_30'
p344
(lp345
(lp346
I85
aI9
aI86
aa(lp347
I83
aI55
aI500
aasS'ID_415_F1_8_F2_2_G_3_SplitPt_247_GenID_0'
p348
(lp349
(lp350
I47
aI250
aI499
aa(lp351
I86
aI2
aI250
aasS'f19_3'
p352
(lp353
(lp354
I87
aI1
aI154
aa(lp355
I67
aI103
aI500
aasS'ID_164_F1_5_F2_7_G_2_SplitPt_51_GenID_0'
p356
(lp357
(lp358
I88
aI69
aI202
aasS'ID_134_F1_8_F2_7_G_3_SplitPt_154_GenID_0'
p359
(lp360
(lp361
I18
aI88
aI500
aa(lp362
I70
aI2
aI171
aasS'ID_341_F1_15_F2_4_G_3_SplitPt_137_GenID_0'
p363
(lp364
(lp365
I89
aI120
aI218
aa(lp366
I24
aI4
aI139
aa(lp367
I38
aI129
aI499
aasS'ID_464_F1_6_F2_14_G_3_SplitPt_240_GenID_0'
p368
(lp369
(lp370
I90
aI94
aI191
aa(lp371
I91
aI240
aI499
aasS'ID_293_F1_0_F2_4_G_4_SplitPt_184_GenID_0'
p372
(lp373
(lp374
I92
aI1
aI189
aa(lp375
I83
aI184
aI500
aasS'f7_23'
p376
(lp377
(lp378
I18
aI49
aI500
aasS'f7_22'
p379
(lp380
(lp381
I18
aI2
aI500
aasS'f7_21'
p382
(lp383
(lp384
I18
aI55
aI499
aasS'ID_186_F1_11_F2_15_G_4_SplitPt_247_GenID_0'
p385
(lp386
(lp387
I93
aI140
aI266
aa(lp388
I4
aI246
aI500
aa(lp389
I79
aI1
aI247
aasS'f7_20'
p390
(lp391
(lp392
I18
aI59
aI500
aasS'ID_397_F1_0_F2_17_G_3_SplitPt_157_GenID_0'
p393
(lp394
(lp395
I16
aI156
aI497
aa(lp396
I43
aI3
aI176
aasS'f16_23'
p397
(lp398
(lp399
I94
aI4
aI206
aa(lp400
I39
aI41
aI500
aasS'f8_3'
p401
(lp402
(lp403
I86
aI79
aI500
aasS'f13_26'
p404
(lp405
(lp406
I95
aI8
aI500
aasS'f16_20'
p407
(lp408
(lp409
I94
aI4
aI192
aa(lp410
I39
aI70
aI481
aasS'f7_26'
p411
(lp412
(lp413
I77
aI1
aI500
aasS'f8_26'
p414
(lp415
(lp416
I70
aI1
aI500
aasS'f14_6'
p417
(lp418
(lp419
I96
aI14
aI201
aasS'f7_25'
p420
(lp421
(lp422
I77
aI8
aI500
aasS'f8_27'
p423
(lp424
(lp425
I70
aI1
aI500
aasS'ID_318_F1_11_F2_2_G_4_SplitPt_155_GenID_0'
p426
(lp427
(lp428
I97
aI97
aI155
aa(lp429
I22
aI149
aI500
aasS'f7_24'
p430
(lp431
(lp432
I77
aI171
aI500
aasS'ID_403_F1_19_F2_10_G_4_SplitPt_173_GenID_0'
p433
(lp434
(lp435
I55
aI1
aI174
aa(lp436
I98
aI155
aI500
aasS'ID_499_F1_8_F2_12_G_4_SplitPt_150_GenID_0'
p437
(lp438
(lp439
I99
aI144
aI500
aa(lp440
I86
aI1
aI171
aasS'ID_0_F1_4_F2_13_G_3_SplitPt_237_GenID_0'
p441
(lp442
(lp443
I100
aI1
aI255
aa(lp444
I95
aI187
aI500
aasS'f16_24'
p445
(lp446
(lp447
I39
aI3
aI500
aasS'f14_31'
p448
(lp449
(lp450
I101
aI1
aI488
aasS'f14_30'
p451
(lp452
(lp453
I101
aI1
aI498
aasS'f5_22'
p454
(lp455
(lp456
I102
aI4
aI198
aa(lp457
I2
aI53
aI500
aasS'f14_2'
p458
(lp459
(lp460
I13
aI1
aI131
aa(lp461
I91
aI115
aI500
aasS'f8_23'
p462
(lp463
(lp464
I70
aI17
aI478
aasS'ID_421_F1_18_F2_19_G_4_SplitPt_221_GenID_0'
p465
(lp466
(lp467
I12
aI1
aI291
aa(lp468
I55
aI221
aI500
aasS'f15_17'
p469
(lp470
(lp471
I103
aI1
aI268
aasS'f19_29'
p472
(lp473
(lp474
I104
aI147
aI500
aa(lp475
I105
aI1
aI264
aasS'f19_28'
p476
(lp477
(lp478
I104
aI147
aI499
aa(lp479
I105
aI1
aI225
aasS'f15_12'
p480
(lp481
(lp482
I36
aI2
aI195
aa(lp483
I4
aI4
aI500
aasS'ID_333_F1_12_F2_17_G_2_SplitPt_149_GenID_0'
p484
(lp485
(lp486
I106
aI4
aI147
aa(lp487
I107
aI150
aI498
aasS'f15_10'
p488
(lp489
(lp490
I4
aI4
aI500
aasS'ID_362_F1_0_F2_18_G_3_SplitPt_161_GenID_0'
p491
(lp492
(lp493
I92
aI1
aI172
aa(lp494
I5
aI136
aI499
aasS'ID_45_F1_16_F2_9_G_3_SplitPt_197_GenID_0'
p495
(lp496
(lp497
I108
aI124
aI195
aa(lp498
I8
aI202
aI500
aasS'f19_22'
p499
(lp500
(lp501
I55
aI27
aI489
aasS'f19_21'
p502
(lp503
(lp504
I55
aI5
aI500
aasS'f19_20'
p505
(lp506
(lp507
I55
aI9
aI499
aasS'ID_143_F1_4_F2_3_G_3_SplitPt_106_GenID_0'
p508
(lp509
(lp510
I109
aI1
aI107
aa(lp511
I110
aI94
aI488
aasS'f19_26'
p512
(lp513
(lp514
I111
aI282
aI471
aa(lp515
I56
aI1
aI167
aasS'f19_25'
p516
(lp517
(lp518
I111
aI309
aI495
aa(lp519
I56
aI1
aI196
aasS'f15_19'
p520
(lp521
(lp522
I59
aI1
aI129
aa(lp523
I36
aI4
aI221
aasS'ID_324_F1_14_F2_2_G_2_SplitPt_230_GenID_0'
p524
(lp525
(lp526
I47
aI230
aI475
aa(lp527
I101
aI28
aI239
aasS'f10_28'
p528
(lp529
(lp530
I84
aI1
aI166
aa(lp531
I53
aI99
aI500
aasS'f10_29'
p532
(lp533
(lp534
I53
aI115
aI500
aasS'f3_9'
p535
(lp536
(lp537
I34
aI8
aI500
aasS'f10_24'
p538
(lp539
(lp540
I112
aI1
aI189
aa(lp541
I53
aI88
aI500
aasS'f10_25'
p542
(lp543
(lp544
I112
aI1
aI188
aa(lp545
I53
aI73
aI500
aasS'f10_26'
p546
(lp547
(lp548
I113
aI1
aI88
aa(lp549
I53
aI73
aI499
aasS'f10_27'
p550
(lp551
(lp552
I113
aI1
aI107
aa(lp553
I112
aI28
aI180
aa(lp554
I53
aI71
aI500
aasS'f10_20'
p555
(lp556
(lp557
I114
aI116
aI498
aasS'f10_21'
p558
(lp559
(lp560
I114
aI103
aI499
aasS'f10_22'
p561
(lp562
(lp563
I114
aI97
aI499
aasS'f10_23'
p564
(lp565
(lp566
I114
aI64
aI499
aasS'ID_90_F1_8_F2_13_G_1_SplitPt_244_GenID_0'
p567
(lp568
(lp569
I95
aI244
aI466
aasS'ID_460_F1_19_F2_16_G_2_SplitPt_127_GenID_0'
p570
(lp571
(lp572
I39
aI128
aI497
aasS'f16_5'
p573
(lp574
(lp575
I115
aI20
aI394
aa(lp576
I116
aI9
aI230
aa(lp577
I117
aI185
aI500
aasS'f16_4'
p578
(lp579
(lp580
I117
aI199
aI479
aasS'ID_276_F1_13_F2_0_G_2_SplitPt_86_GenID_0'
p581
(lp582
(lp583
I17
aI76
aI495
aasS'ID_496_F1_4_F2_19_G_1_SplitPt_132_GenID_0'
p584
(lp585
(lp586
I104
aI267
aI499
aasS'ID_55_F1_4_F2_15_G_3_SplitPt_218_GenID_0'
p587
(lp588
(lp589
I89
aI124
aI218
aa(lp590
I4
aI188
aI500
aasS'ID_372_F1_19_F2_17_G_3_SplitPt_215_GenID_0'
p591
(lp592
(lp593
I105
aI2
aI221
aa(lp594
I118
aI87
aI500
aasS'f13_13'
p595
(lp596
(lp597
I119
aI5
aI200
aa(lp598
I120
aI150
aI463
aasS'f13_14'
p599
(lp600
(lp601
I119
aI2
aI266
aa(lp602
I120
aI249
aI477
aasS'f13_15'
p603
(lp604
(lp605
I119
aI1
aI219
aa(lp606
I120
aI223
aI477
aasS'f13_16'
p607
(lp608
(lp609
I121
aI10
aI91
aa(lp610
I95
aI45
aI500
aasS'f13_17'
p611
(lp612
(lp613
I121
aI10
aI91
aasS'f13_18'
p614
(lp615
(lp616
I122
aI3
aI174
aa(lp617
I95
aI16
aI500
aasS'f13_19'
p618
(lp619
(lp620
I123
aI141
aI331
aa(lp621
I122
aI2
aI152
aasS'f0_24'
p622
(lp623
(lp624
I124
aI6
aI500
aasS'f0_25'
p625
(lp626
(lp627
I124
aI4
aI500
aasS'ID_452_F1_6_F2_18_G_4_SplitPt_151_GenID_0'
p628
(lp629
(lp630
I42
aI213
aI322
aa(lp631
I125
aI1
aI193
aasS'f0_23'
p632
(lp633
(lp634
I126
aI44
aI495
aasS'f18_24'
p635
(lp636
(lp637
I42
aI213
aI322
aasS'f18_25'
p638
(lp639
(lp640
I127
aI1
aI77
aa(lp641
I3
aI110
aI500
aasS'f18_26'
p642
(lp643
(lp644
I3
aI157
aI492
aasS'f1_5'
p645
(lp646
(lp647
I128
aI323
aI409
aasS'f18_20'
p648
(lp649
(lp650
I129
aI4
aI142
aa(lp651
I12
aI10
aI360
aasS'f18_21'
p652
(lp653
(lp654
I129
aI8
aI141
aa(lp655
I6
aI15
aI272
aasS'f18_22'
p656
(lp657
(lp658
I129
aI1
aI152
aasS'f18_23'
p659
(lp660
(lp661
I129
aI6
aI134
aa(lp662
I130
aI180
aI424
aasS'ID_446_F1_2_F2_12_G_4_SplitPt_241_GenID_0'
p663
(lp664
(lp665
I131
aI121
aI254
aa(lp666
I35
aI225
aI500
aasS'ID_316_F1_14_F2_8_G_4_SplitPt_222_GenID_0'
p667
(lp668
(lp669
I101
aI1
aI289
aa(lp670
I70
aI221
aI500
aasS'ID_307_F1_2_F2_14_G_2_SplitPt_190_GenID_0'
p671
(lp672
(lp673
I101
aI195
aI500
aasS'f18_28'
p674
(lp675
(lp676
I3
aI8
aI495
aasS'f18_29'
p677
(lp678
(lp679
I3
aI27
aI458
aasS'ID_308_F1_6_F2_6_G_3_SplitPt_115_GenID_0'
p680
(lp681
(lp682
I132
aI181
aI275
aa(lp683
I71
aI1
aI126
aasS'ID_424_F1_12_F2_10_G_4_SplitPt_204_GenID_0'
p684
(lp685
(lp686
I133
aI1
aI205
aa(lp687
I53
aI192
aI500
aasS'f11_18'
p688
(lp689
(lp690
I79
aI3
aI500
aasS'ID_86_F1_11_F2_2_G_4_SplitPt_121_GenID_0'
p691
(lp692
(lp693
I134
aI1
aI122
aa(lp694
I20
aI97
aI500
aasS'ID_429_F1_6_F2_11_G_2_SplitPt_109_GenID_0'
p695
(lp696
(lp697
I135
aI108
aI245
aasS'f11_12'
p698
(lp699
(lp700
I79
aI37
aI483
aasS'f11_13'
p701
(lp702
(lp703
I136
aI345
aI487
aa(lp704
I79
aI33
aI486
aasS'f11_10'
p705
(lp706
(lp707
I134
aI1
aI121
aa(lp708
I79
aI9
aI483
aasS'f11_11'
p709
(lp710
(lp711
I136
aI345
aI487
aa(lp712
I134
aI1
aI121
aasS'f11_16'
p713
(lp714
(lp715
I78
aI3
aI203
aa(lp716
I79
aI61
aI499
aasS'ID_13_F1_6_F2_15_G_2_SplitPt_94_GenID_0'
p717
(lp718
(lp719
I4
aI93
aI492
aasS'f11_14'
p720
(lp721
(lp722
I137
aI1
aI68
aa(lp723
I79
aI113
aI488
aasS'f11_15'
p724
(lp725
(lp726
I137
aI3
aI111
aa(lp727
I79
aI10
aI499
aasS'f9_14'
p728
(lp729
(lp730
I8
aI1
aI498
aasS'f9_15'
p731
(lp732
(lp733
I8
aI1
aI498
aasS'f9_16'
p734
(lp735
(lp736
I8
aI83
aI495
aasS'f9_17'
p737
(lp738
(lp739
I138
aI52
aI126
aa(lp740
I8
aI225
aI497
aasS'f9_10'
p741
(lp742
(lp743
I8
aI1
aI499
aasS'f9_11'
p744
(lp745
(lp746
I8
aI2
aI499
aasS'f9_12'
p747
(lp748
(lp749
I8
aI1
aI494
aasS'f9_13'
p750
(lp751
(lp752
I8
aI1
aI417
aasS'ID_504_F1_12_F2_6_G_3_SplitPt_122_GenID_0'
p753
(lp754
(lp755
I139
aI2
aI122
aa(lp756
I37
aI122
aI500
aasS'f9_18'
p757
(lp758
(lp759
I138
aI1
aI119
aa(lp760
I8
aI4
aI494
aasS'f9_19'
p761
(lp762
(lp763
I138
aI4
aI123
aa(lp764
I8
aI169
aI492
aasS'f17_24'
p765
(lp766
(lp767
I107
aI23
aI498
aasS'f17_26'
p768
(lp769
(lp770
I107
aI1
aI500
aasS'ID_115_F1_17_F2_2_G_3_SplitPt_96_GenID_0'
p771
(lp772
(lp773
I140
aI26
aI150
aa(lp774
I141
aI3
aI94
aa(lp775
I20
aI72
aI499
aasS'ID_321_F1_3_F2_11_G_3_SplitPt_245_GenID_0'
p776
(lp777
(lp778
I142
aI1
aI101
aa(lp779
I79
aI246
aI500
aasS'f3_10'
p780
(lp781
(lp782
I34
aI1
aI500
aasS'f1_0'
p783
(lp784
(lp785
I143
aI1
aI92
aa(lp786
I144
aI4
aI190
aa(lp787
I14
aI14
aI500
aasS'f7_14'
p788
(lp789
(lp790
I145
aI1
aI63
aasS'f7_15'
p791
(lp792
(lp793
I145
aI1
aI53
aasS'f7_12'
p794
(lp795
(lp796
I146
aI2
aI229
aa(lp797
I146
aI236
aI498
aasS'f7_13'
p798
(lp799
(lp800
I146
aI9
aI500
aasS'f7_10'
p801
(lp802
(lp803
I88
aI10
aI204
aasS'f7_11'
p804
(lp805
(lp806
I88
aI10
aI196
aa(lp807
I146
aI57
aI498
aasS'f5_10'
p808
(lp809
(lp810
I147
aI127
aI344
aa(lp811
I21
aI1
aI180
aasS'f5_11'
p812
(lp813
(lp814
I21
aI1
aI183
aa(lp815
I148
aI128
aI487
aasS'f5_12'
p816
(lp817
(lp818
I148
aI48
aI500
aasS'f5_13'
p819
(lp820
(lp821
I148
aI120
aI497
aasS'f5_14'
p822
(lp823
(lp824
I147
aI127
aI344
aa(lp825
I148
aI150
aI500
aasS'f5_15'
p826
(lp827
(lp828
I148
aI121
aI500
aasS'f7_18'
p829
(lp830
(lp831
I149
aI1
aI84
aa(lp832
I18
aI100
aI500
aasS'f7_19'
p833
(lp834
(lp835
I149
aI1
aI93
aa(lp836
I18
aI93
aI500
aasS'ID_287_F1_15_F2_4_G_4_SplitPt_72_GenID_0'
p837
(lp838
(lp839
I150
aI73
aI143
aa(lp840
I26
aI1
aI107
aasS'ID_47_F1_18_F2_14_G_2_SplitPt_78_GenID_0'
p841
(lp842
(lp843
I91
aI66
aI500
aasS'ID_357_F1_13_F2_1_G_3_SplitPt_246_GenID_0'
p844
(lp845
(lp846
I120
aI1
aI251
aa(lp847
I151
aI208
aI500
aasS'ID_193_F1_17_F2_16_G_4_SplitPt_155_GenID_0'
p848
(lp849
(lp850
I152
aI160
aI240
aa(lp851
I153
aI1
aI164
aasS'ID_129_F1_5_F2_10_G_3_SplitPt_127_GenID_0'
p852
(lp853
(lp854
I21
aI3
aI127
aa(lp855
I114
aI123
aI500
aasS'ID_406_F1_11_F2_6_G_2_SplitPt_101_GenID_0'
p856
(lp857
(lp858
I154
aI135
aI391
aasS'ID_161_F1_6_F2_11_G_3_SplitPt_225_GenID_0'
p859
(lp860
(lp861
I10
aI102
aI221
aa(lp862
I79
aI227
aI500
aasS'ID_310_F1_17_F2_18_G_4_SplitPt_120_GenID_0'
p863
(lp864
(lp865
I155
aI123
aI307
aa(lp866
I107
aI1
aI129
aasS'f12_31'
p867
(lp868
(lp869
I106
aI4
aI143
aasS'f12_30'
p870
(lp871
(lp872
I35
aI1
aI499
aasS'ID_88_F1_13_F2_14_G_3_SplitPt_152_GenID_0'
p873
(lp874
(lp875
I122
aI2
aI178
aa(lp876
I101
aI154
aI500
aasS'ID_472_F1_11_F2_7_G_4_SplitPt_230_GenID_0'
p877
(lp878
(lp879
I135
aI108
aI245
aa(lp880
I146
aI220
aI500
aa(lp881
I41
aI1
aI230
aasS'f3_16'
p882
(lp883
(lp884
I110
aI78
aI500
aasS'f9_24'
p885
(lp886
(lp887
I7
aI3
aI155
aa(lp888
I8
aI197
aI499
aasS'ID_50_F1_19_F2_3_G_4_SplitPt_244_GenID_0'
p889
(lp890
(lp891
I61
aI223
aI500
aa(lp892
I55
aI1
aI244
aasS'f18_27'
p893
(lp894
(lp895
I3
aI8
aI493
aasS'f5_9'
p896
(lp897
(lp898
I21
aI3
aI166
aa(lp899
I148
aI234
aI495
aasS'f9_7'
p900
(lp901
(lp902
I8
aI38
aI500
aasS'f16_27'
p903
(lp904
(lp905
I39
aI1
aI495
aasS'ID_121_F1_12_F2_19_G_3_SplitPt_145_GenID_0'
p906
(lp907
(lp908
I156
aI145
aI252
aa(lp909
I157
aI3
aI145
aasS'f17_31'
p910
(lp911
(lp912
I107
aI1
aI497
aasS'ID_232_F1_8_F2_8_G_3_SplitPt_75_GenID_0'
p913
(lp914
(lp915
I158
aI1
aI70
aa(lp916
I70
aI77
aI500
aasS'f13_6'
p917
(lp918
(lp919
I120
aI45
aI497
aasS'f2_8'
p920
(lp921
(lp922
I47
aI1
aI441
aasS'ID_114_F1_17_F2_9_G_2_SplitPt_80_GenID_0'
p923
(lp924
(lp925
I159
aI1
aI70
aa(lp926
I8
aI74
aI500
aasS'f18_15'
p927
(lp928
(lp929
I12
aI22
aI414
aasS'f3_17'
p930
(lp931
(lp932
I110
aI109
aI490
aasS'f9_3'
p933
(lp934
(lp935
I8
aI17
aI496
aasS'ID_329_F1_18_F2_14_G_2_SplitPt_223_GenID_0'
p936
(lp937
(lp938
I6
aI28
aI228
aa(lp939
I101
aI162
aI483
aasS'ID_251_F1_14_F2_9_G_1_SplitPt_175_GenID_0'
p940
(lp941
(lp942
I8
aI120
aI334
aasS'ID_347_F1_5_F2_11_G_4_SplitPt_74_GenID_0'
p943
(lp944
(lp945
I80
aI358
aI439
aa(lp946
I1
aI1
aI108
aasS'f9_1'
p947
(lp948
(lp949
I8
aI32
aI497
aasS'ID_137_F1_6_F2_11_G_4_SplitPt_89_GenID_0'
p950
(lp951
(lp952
I160
aI1
aI89
aa(lp953
I41
aI88
aI195
aasS'f3_14'
p954
(lp955
(lp956
I34
aI79
aI500
aasS'ID_451_F1_4_F2_11_G_3_SplitPt_247_GenID_0'
p957
(lp958
(lp959
I161
aI2
aI251
aa(lp960
I79
aI247
aI498
aasS'ID_214_F1_17_F2_9_G_1_SplitPt_208_GenID_0'
p961
(lp962
(lp963
I153
aI14
aI188
aasS'ID_176_F1_6_F2_14_G_4_SplitPt_184_GenID_0'
p964
(lp965
(lp966
I10
aI130
aI184
aa(lp967
I91
aI167
aI500
aasS'ID_510_F1_19_F2_19_G_4_SplitPt_160_GenID_0'
p968
(lp969
(lp970
I56
aI1
aI193
aa(lp971
I67
aI151
aI500
aasS'ID_459_F1_7_F2_17_G_3_SplitPt_230_GenID_0'
p972
(lp973
(lp974
I146
aI1
aI229
aa(lp975
I118
aI201
aI500
aasS'ID_194_F1_9_F2_19_G_2_SplitPt_180_GenID_0'
p976
(lp977
(lp978
I7
aI2
aI186
aa(lp979
I67
aI183
aI493
aasS'ID_376_F1_7_F2_14_G_3_SplitPt_85_GenID_0'
p980
(lp981
(lp982
I149
aI1
aI95
aa(lp983
I101
aI84
aI500
aasS'f7_4'
p984
(lp985
(lp986
I162
aI5
aI71
aa(lp987
I18
aI10
aI275
aasS'f7_5'
p988
(lp989
(lp990
I162
aI1
aI71
aa(lp991
I18
aI9
aI200
aasS'f7_6'
p992
(lp993
(lp994
I18
aI1
aI444
aasS'f7_7'
p995
(lp996
(lp997
I18
aI3
aI500
aasS'f7_0'
p998
(lp999
(lp1000
I19
aI1
aI67
aa(lp1001
I18
aI94
aI500
aasS'f7_1'
p1002
(lp1003
(lp1004
I19
aI1
aI80
aa(lp1005
I18
aI5
aI500
aasS'f3_15'
p1006
(lp1007
(lp1008
I34
aI75
aI497
aasS'f7_3'
p1009
(lp1010
(lp1011
I18
aI13
aI500
aasS'f1_24'
p1012
(lp1013
(lp1014
I151
aI2
aI474
aasS'f7_8'
p1015
(lp1016
(lp1017
I88
aI1
aI202
aa(lp1018
I146
aI105
aI500
aasS'f7_9'
p1019
(lp1020
(lp1021
I88
aI21
aI199
aa(lp1022
I146
aI105
aI495
aasS'ID_267_F1_15_F2_8_G_3_SplitPt_153_GenID_0'
p1023
(lp1024
(lp1025
I163
aI80
aI172
aa(lp1026
I4
aI11
aI154
aa(lp1027
I70
aI151
aI500
aasS'f11_19'
p1028
(lp1029
(lp1030
I79
aI61
aI500
aasS'f2_7'
p1031
(lp1032
(lp1033
I164
aI1
aI62
aa(lp1034
I22
aI23
aI500
aasS'ID_380_F1_19_F2_0_G_2_SplitPt_226_GenID_0'
p1035
(lp1036
(lp1037
I124
aI232
aI499
aasS'ID_20_F1_1_F2_4_G_4_SplitPt_158_GenID_0'
p1038
(lp1039
(lp1040
I38
aI151
aI500
aa(lp1041
I151
aI1
aI170
aasS'f13_9'
p1042
(lp1043
(lp1044
I120
aI12
aI500
aasS'f19_12'
p1045
(lp1046
(lp1047
I165
aI1
aI134
aasS'f19_13'
p1048
(lp1049
(lp1050
I165
aI1
aI144
aasS'f5_8'
p1051
(lp1052
(lp1053
I21
aI3
aI197
aa(lp1054
I148
aI60
aI493
aasS'f19_11'
p1055
(lp1056
(lp1057
I166
aI2
aI201
aasS'f19_16'
p1058
(lp1059
(lp1060
I55
aI1
aI500
aasS'f19_17'
p1061
(lp1062
(lp1063
I55
aI3
aI497
aasS'f19_14'
p1064
(lp1065
(lp1066
I167
aI1
aI444
aasS'f5_2'
p1067
(lp1068
(lp1069
I1
aI1
aI115
aa(lp1070
I2
aI17
aI500
aasS'f5_3'
p1071
(lp1072
(lp1073
I1
aI1
aI103
aa(lp1074
I2
aI57
aI500
aasS'f6_31'
p1075
(lp1076
(lp1077
I168
aI1
aI138
aa(lp1078
I37
aI71
aI500
aasS'f6_30'
p1079
(lp1080
(lp1081
I168
aI1
aI138
aa(lp1082
I37
aI72
aI498
aasS'f5_6'
p1083
(lp1084
(lp1085
I2
aI93
aI375
aasS'f5_7'
p1086
(lp1087
(lp1088
I2
aI5
aI486
aasS'f5_4'
p1089
(lp1090
(lp1091
I2
aI70
aI496
aasS'f5_5'
p1092
(lp1093
(lp1094
I2
aI57
aI496
aasS'f2_12'
p1095
(lp1096
(lp1097
I47
aI1
aI498
aasS'ID_355_F1_9_F2_1_G_3_SplitPt_166_GenID_0'
p1098
(lp1099
(lp1100
I7
aI1
aI175
aa(lp1101
I151
aI167
aI497
aasS'ID_427_F1_0_F2_10_G_4_SplitPt_224_GenID_0'
p1102
(lp1103
(lp1104
I124
aI1
aI233
aa(lp1105
I114
aI167
aI500
aasS'ID_248_F1_5_F2_7_G_4_SplitPt_138_GenID_0'
p1106
(lp1107
(lp1108
I169
aI138
aI209
aa(lp1109
I170
aI1
aI139
aasS'ID_500_F1_19_F2_17_G_4_SplitPt_226_GenID_0'
p1110
(lp1111
(lp1112
I156
aI147
aI247
aa(lp1113
I45
aI189
aI500
aasS'ID_301_F1_15_F2_1_G_2_SplitPt_187_GenID_0'
p1114
(lp1115
(lp1116
I28
aI5
aI157
aa(lp1117
I11
aI169
aI499
aasS'ID_402_F1_1_F2_8_G_3_SplitPt_89_GenID_0'
p1118
(lp1119
(lp1120
I171
aI1
aI91
aa(lp1121
I172
aI95
aI209
aasS'ID_384_F1_1_F2_3_G_2_SplitPt_108_GenID_0'
p1122
(lp1123
(lp1124
I110
aI98
aI500
aasS'f0_9'
p1125
(lp1126
(lp1127
I43
aI9
aI214
aasS'f14_29'
p1128
(lp1129
(lp1130
I101
aI11
aI498
aasS'ID_71_F1_8_F2_5_G_4_SplitPt_97_GenID_0'
p1131
(lp1132
(lp1133
I173
aI1
aI97
aa(lp1134
I2
aI98
aI500
aasS'ID_200_F1_1_F2_5_G_3_SplitPt_146_GenID_0'
p1135
(lp1136
(lp1137
I174
aI6
aI147
aa(lp1138
I148
aI129
aI496
aasS'f0_8'
p1139
(lp1140
(lp1141
I17
aI28
aI500
aa(lp1142
I43
aI6
aI214
aasS'ID_274_F1_11_F2_8_G_2_SplitPt_182_GenID_0'
p1143
(lp1144
(lp1145
I78
aI6
aI208
aa(lp1146
I70
aI184
aI494
aasS'f14_21'
p1147
(lp1148
(lp1149
I101
aI1
aI495
aasS'ID_252_F1_3_F2_13_G_4_SplitPt_197_GenID_0'
p1150
(lp1151
(lp1152
I34
aI1
aI212
aa(lp1153
I95
aI197
aI500
aasS'f11_17'
p1154
(lp1155
(lp1156
I79
aI3
aI493
aasS'ID_467_F1_3_F2_15_G_3_SplitPt_202_GenID_0'
p1157
(lp1158
(lp1159
I175
aI118
aI251
aa(lp1160
I4
aI181
aI500
aasS'ID_73_F1_18_F2_12_G_2_SplitPt_183_GenID_0'
p1161
(lp1162
(lp1163
I176
aI22
aI163
aa(lp1164
I177
aI194
aI344
aasS'f10_13'
p1165
(lp1166
(lp1167
I98
aI66
aI499
aasS'ID_110_F1_16_F2_17_G_3_SplitPt_129_GenID_0'
p1168
(lp1169
(lp1170
I178
aI130
aI500
aa(lp1171
I39
aI1
aI146
aasS'f9_28'
p1172
(lp1173
(lp1174
I8
aI39
aI493
aasS'f3_0'
p1175
(lp1176
(lp1177
I61
aI185
aI498
aasS'f3_1'
p1178
(lp1179
(lp1180
I179
aI93
aI285
aasS'f3_2'
p1181
(lp1182
(lp1183
I61
aI79
aI497
aasS'f3_3'
p1184
(lp1185
(lp1186
I61
aI248
aI490
aasS'f3_4'
p1187
(lp1188
(lp1189
I61
aI50
aI496
aasS'f3_5'
p1190
(lp1191
(lp1192
I61
aI69
aI500
aasS'f8_20'
p1193
(lp1194
(lp1195
I180
aI79
aI155
aasS'f3_7'
p1196
(lp1197
(lp1198
I61
aI50
aI500
aasS'f3_8'
p1199
(lp1200
(lp1201
I34
aI22
aI500
aasS'f15_8'
p1202
(lp1203
(lp1204
I163
aI80
aI172
aasS'f8_28'
p1205
(lp1206
(lp1207
I65
aI1
aI96
aa(lp1208
I70
aI61
aI500
aasS'f8_29'
p1209
(lp1210
(lp1211
I65
aI5
aI130
aa(lp1212
I70
aI54
aI500
aasS'ID_315_F1_12_F2_17_G_3_SplitPt_141_GenID_0'
p1213
(lp1214
(lp1215
I157
aI1
aI168
aa(lp1216
I118
aI52
aI500
aasS'f1_7'
p1217
(lp1218
(lp1219
I14
aI79
aI500
aasS'f1_4'
p1220
(lp1221
(lp1222
I14
aI79
aI500
aasS'ID_154_F1_6_F2_7_G_3_SplitPt_96_GenID_0'
p1223
(lp1224
(lp1225
I181
aI1
aI109
aa(lp1226
I18
aI98
aI499
aasS'f1_2'
p1227
(lp1228
(lp1229
I128
aI323
aI409
aa(lp1230
I144
aI8
aI229
aasS'f1_3'
p1231
(lp1232
(lp1233
I144
aI6
aI220
aa(lp1234
I14
aI57
aI499
aasS'ID_191_F1_19_F2_12_G_2_SplitPt_241_GenID_0'
p1235
(lp1236
(lp1237
I177
aI247
aI372
aa(lp1238
I55
aI5
aI256
aasS'f1_1'
p1239
(lp1240
(lp1241
I143
aI1
aI92
aa(lp1242
I144
aI13
aI205
aa(lp1243
I14
aI213
aI498
aasS'f10_12'
p1244
(lp1245
(lp1246
I98
aI54
aI500
aasS'f14_22'
p1247
(lp1248
(lp1249
I101
aI1
aI500
aasS'f1_8'
p1250
(lp1251
(lp1252
I182
aI4
aI73
aasS'f1_9'
p1253
(lp1254
(lp1255
I11
aI239
aI496
aasS'f9_26'
p1256
(lp1257
(lp1258
I7
aI1
aI182
aa(lp1259
I8
aI39
aI500
aasS'f9_8'
p1260
(lp1261
(lp1262
I8
aI1
aI500
aasS'f9_9'
p1263
(lp1264
(lp1265
I8
aI8
aI500
aasS'f9_6'
p1266
(lp1267
(lp1268
I8
aI4
aI497
aasS'f14_24'
p1269
(lp1270
(lp1271
I101
aI126
aI500
aasS'f9_4'
p1272
(lp1273
(lp1274
I8
aI1
aI486
aasS'f9_5'
p1275
(lp1276
(lp1277
I8
aI1
aI500
aasS'f9_2'
p1278
(lp1279
(lp1280
I8
aI15
aI496
aasS'f14_23'
p1281
(lp1282
(lp1283
I101
aI8
aI494
aasS'f9_0'
p1284
(lp1285
(lp1286
I8
aI52
aI500
aasS'f14_25'
p1287
(lp1288
(lp1289
I101
aI9
aI500
aasS'ID_223_F1_11_F2_10_G_4_SplitPt_177_GenID_0'
p1290
(lp1291
(lp1292
I41
aI1
aI179
aa(lp1293
I98
aI174
aI500
aasS'f9_22'
p1294
(lp1295
(lp1296
I183
aI188
aI496
aasS'ID_15_F1_13_F2_7_G_3_SplitPt_94_GenID_0'
p1297
(lp1298
(lp1299
I121
aI10
aI91
aa(lp1300
I18
aI71
aI498
aasS'ID_476_F1_9_F2_10_G_3_SplitPt_72_GenID_0'
p1301
(lp1302
(lp1303
I184
aI2
aI68
aa(lp1304
I98
aI54
aI500
aasS'ID_170_F1_19_F2_18_G_2_SplitPt_95_GenID_0'
p1305
(lp1306
(lp1307
I5
aI96
aI500
aasS'f2_29'
p1308
(lp1309
(lp1310
I20
aI1
aI500
aasS'f9_25'
p1311
(lp1312
(lp1313
I7
aI1
aI165
aa(lp1314
I8
aI18
aI500
aasS'ID_123_F1_13_F2_13_G_2_SplitPt_135_GenID_0'
p1315
(lp1316
(lp1317
I185
aI4
aI148
aa(lp1318
I120
aI161
aI497
aasS'f9_27'
p1319
(lp1320
(lp1321
I184
aI2
aI68
aa(lp1322
I8
aI72
aI500
aasS'ID_259_F1_18_F2_0_G_4_SplitPt_141_GenID_0'
p1323
(lp1324
(lp1325
I129
aI1
aI152
aa(lp1326
I126
aI117
aI500
aasS'f9_21'
p1327
(lp1328
(lp1329
I52
aI3
aI187
aa(lp1330
I183
aI61
aI498
aasS'f9_20'
p1331
(lp1332
(lp1333
I52
aI3
aI187
aa(lp1334
I183
aI57
aI498
aasS'f9_23'
p1335
(lp1336
(lp1337
I183
aI134
aI493
aasS'ID_508_F1_6_F2_1_G_3_SplitPt_160_GenID_0'
p1338
(lp1339
(lp1340
I186
aI147
aI499
aa(lp1341
I76
aI7
aI164
aasS'f5_21'
p1342
(lp1343
(lp1344
I102
aI2
aI168
aa(lp1345
I2
aI54
aI499
aasS'f5_20'
p1346
(lp1347
(lp1348
I102
aI1
aI200
aa(lp1349
I2
aI45
aI500
aasS'f5_23'
p1350
(lp1351
(lp1352
I102
aI1
aI168
aa(lp1353
I2
aI47
aI500
aasS'ID_404_F1_1_F2_11_G_4_SplitPt_96_GenID_0'
p1354
(lp1355
(lp1356
I97
aI97
aI155
aa(lp1357
I187
aI1
aI97
aasS'f5_25'
p1358
(lp1359
(lp1360
I188
aI1
aI234
aa(lp1361
I2
aI25
aI500
aasS'f5_24'
p1362
(lp1363
(lp1364
I188
aI1
aI199
aa(lp1365
I2
aI72
aI500
aasS'ID_247_F1_6_F2_16_G_4_SplitPt_127_GenID_0'
p1366
(lp1367
(lp1368
I46
aI1
aI139
aa(lp1369
I39
aI121
aI500
aasS'f5_26'
p1370
(lp1371
(lp1372
I189
aI1
aI88
aa(lp1373
I2
aI94
aI500
aasS'f5_29'
p1374
(lp1375
(lp1376
I170
aI1
aI247
aa(lp1377
I2
aI75
aI475
aasS'f5_28'
p1378
(lp1379
(lp1380
I170
aI8
aI139
aa(lp1381
I2
aI90
aI475
aasS'f10_14'
p1382
(lp1383
(lp1384
I98
aI5
aI500
aasS'f15_30'
p1385
(lp1386
(lp1387
I4
aI1
aI500
aasS'f4_28'
p1388
(lp1389
(lp1390
I190
aI8
aI100
aa(lp1391
I83
aI140
aI495
aasS'f4_29'
p1392
(lp1393
(lp1394
I190
aI1
aI117
aa(lp1395
I161
aI3
aI251
aa(lp1396
I83
aI62
aI500
aasS'ID_166_F1_16_F2_13_G_2_SplitPt_140_GenID_0'
p1397
(lp1398
(lp1399
I191
aI3
aI136
aa(lp1400
I123
aI141
aI331
aasS'f5_27'
p1401
(lp1402
(lp1403
I188
aI1
aI197
aa(lp1404
I2
aI13
aI500
aasS'f15_31'
p1405
(lp1406
(lp1407
I4
aI82
aI500
aasS'f4_22'
p1408
(lp1409
(lp1410
I192
aI1
aI70
aa(lp1411
I38
aI19
aI498
aasS'f4_23'
p1412
(lp1413
(lp1414
I192
aI2
aI70
aa(lp1415
I38
aI4
aI500
aasS'f4_20'
p1416
(lp1417
(lp1418
I38
aI1
aI499
aasS'f4_21'
p1419
(lp1420
(lp1421
I38
aI1
aI499
aasS'f4_26'
p1422
(lp1423
(lp1424
I193
aI1
aI143
aa(lp1425
I83
aI55
aI500
aasS'f4_27'
p1426
(lp1427
(lp1428
I193
aI1
aI143
aa(lp1429
I83
aI73
aI500
aasS'f4_24'
p1430
(lp1431
(lp1432
I193
aI1
aI142
aa(lp1433
I83
aI71
aI499
aasS'f4_25'
p1434
(lp1435
(lp1436
I193
aI8
aI143
aa(lp1437
I83
aI62
aI499
aasS'ID_466_F1_7_F2_12_G_2_SplitPt_222_GenID_0'
p1438
(lp1439
(lp1440
I194
aI223
aI498
aa(lp1441
I18
aI5
aI200
aasS'ID_124_F1_3_F2_19_G_4_SplitPt_101_GenID_0'
p1442
(lp1443
(lp1444
I195
aI71
aI155
aa(lp1445
I142
aI1
aI101
aasS'f10_18'
p1446
(lp1447
(lp1448
I114
aI112
aI500
aasS'f5_16'
p1449
(lp1450
(lp1451
I2
aI25
aI500
aasS'f0_31'
p1452
(lp1453
(lp1454
I124
aI34
aI414
aasS'f0_30'
p1455
(lp1456
(lp1457
I124
aI107
aI500
aasS'ID_82_F1_14_F2_4_G_4_SplitPt_240_GenID_0'
p1458
(lp1459
(lp1460
I101
aI1
aI265
aa(lp1461
I37
aI228
aI500
aasS'f17_30'
p1462
(lp1463
(lp1464
I107
aI1
aI120
aa(lp1465
I107
aI153
aI497
aasS'f2_23'
p1466
(lp1467
(lp1468
I48
aI1
aI418
aasS'ID_502_F1_19_F2_8_G_2_SplitPt_120_GenID_0'
p1469
(lp1470
(lp1471
I70
aI83
aI498
aasS'ID_448_F1_11_F2_1_G_3_SplitPt_146_GenID_0'
p1472
(lp1473
(lp1474
I75
aI136
aI499
aa(lp1475
I30
aI1
aI167
aasS'ID_41_F1_5_F2_0_G_4_SplitPt_183_GenID_0'
p1476
(lp1477
(lp1478
I21
aI1
aI191
aa(lp1479
I124
aI160
aI500
aasS'ID_450_F1_15_F2_13_G_3_SplitPt_124_GenID_0'
p1480
(lp1481
(lp1482
I59
aI1
aI129
aa(lp1483
I120
aI119
aI497
aasS'ID_207_F1_2_F2_6_G_3_SplitPt_206_GenID_0'
p1484
(lp1485
(lp1486
I22
aI3
aI249
aa(lp1487
I37
aI165
aI500
aasS'ID_461_F1_5_F2_1_G_2_SplitPt_245_GenID_0'
p1488
(lp1489
(lp1490
I170
aI1
aI248
aa(lp1491
I11
aI239
aI497
aasS'ID_463_F1_2_F2_16_G_2_SplitPt_201_GenID_0'
p1492
(lp1493
(lp1494
I39
aI201
aI500
aasS'ID_146_F1_1_F2_16_G_3_SplitPt_220_GenID_0'
p1495
(lp1496
(lp1497
I144
aI1
aI248
aa(lp1498
I73
aI203
aI500
aasS'ID_503_F1_4_F2_10_G_3_SplitPt_103_GenID_0'
p1499
(lp1500
(lp1501
I190
aI1
aI114
aa(lp1502
I114
aI96
aI499
aasS'ID_16_F1_14_F2_8_G_4_SplitPt_110_GenID_0'
p1503
(lp1504
(lp1505
I196
aI1
aI110
aa(lp1506
I86
aI111
aI500
aasS'ID_197_F1_9_F2_4_G_3_SplitPt_116_GenID_0'
p1507
(lp1508
(lp1509
I197
aI332
aI482
aa(lp1510
I8
aI1
aI120
aasS'ID_99_F1_4_F2_11_G_2_SplitPt_68_GenID_0'
p1511
(lp1512
(lp1513
I79
aI65
aI476
aasS'ID_371_F1_16_F2_3_G_4_SplitPt_77_GenID_0'
p1514
(lp1515
(lp1516
I110
aI78
aI500
aa(lp1517
I82
aI1
aI123
aasS'f10_19'
p1518
(lp1519
(lp1520
I114
aI130
aI500
aasS'ID_171_F1_8_F2_5_G_4_SplitPt_216_GenID_0'
p1521
(lp1522
(lp1523
I172
aI95
aI209
aa(lp1524
I2
aI217
aI500
aasS'ID_125_F1_7_F2_4_G_2_SplitPt_105_GenID_0'
p1525
(lp1526
(lp1527
I37
aI105
aI500
aasS'ID_235_F1_12_F2_17_G_3_SplitPt_240_GenID_0'
p1528
(lp1529
(lp1530
I66
aI1
aI138
aa(lp1531
I118
aI234
aI500
aasS'ID_189_F1_8_F2_7_G_4_SplitPt_84_GenID_0'
p1532
(lp1533
(lp1534
I65
aI1
aI85
aa(lp1535
I77
aI82
aI500
aasS'ID_228_F1_10_F2_10_G_2_SplitPt_130_GenID_0'
p1536
(lp1537
(lp1538
I84
aI1
aI131
aa(lp1539
I98
aI129
aI427
aasS'f8_24'
p1540
(lp1541
(lp1542
I70
aI6
aI500
aasS'f7_16'
p1543
(lp1544
(lp1545
I18
aI2
aI500
aasS'f1_18'
p1546
(lp1547
(lp1548
I75
aI73
aI491
aasS'f1_19'
p1549
(lp1550
(lp1551
I75
aI73
aI498
aasS'ID_416_F1_12_F2_14_G_1_SplitPt_121_GenID_0'
p1552
(lp1553
(lp1554
I101
aI117
aI297
aasS'f7_17'
p1555
(lp1556
(lp1557
I18
aI5
aI500
aasS'ID_22_F1_12_F2_14_G_4_SplitPt_125_GenID_0'
p1558
(lp1559
(lp1560
I198
aI84
aI129
aa(lp1561
I101
aI103
aI500
aasS'f1_15'
p1562
(lp1563
(lp1564
I11
aI53
aI497
aasS'f1_16'
p1565
(lp1566
(lp1567
I187
aI1
aI97
aa(lp1568
I75
aI141
aI499
aasS'f1_17'
p1569
(lp1570
(lp1571
I187
aI2
aI95
aa(lp1572
I75
aI52
aI500
aasS'f1_10'
p1573
(lp1574
(lp1575
I199
aI7
aI130
aasS'f1_11'
p1576
(lp1577
(lp1578
I199
aI3
aI127
aasS'ID_323_F1_19_F2_14_G_3_SplitPt_218_GenID_0'
p1579
(lp1580
(lp1581
I166
aI2
aI240
aa(lp1582
I101
aI218
aI498
aasS'f1_13'
p1583
(lp1584
(lp1585
I11
aI4
aI499
aasS'f4_14'
p1586
(lp1587
(lp1588
I200
aI207
aI372
aasS'ID_93_F1_5_F2_12_G_2_SplitPt_142_GenID_0'
p1589
(lp1590
(lp1591
I9
aI186
aI490
aasS'ID_285_F1_9_F2_12_G_4_SplitPt_110_GenID_0'
p1592
(lp1593
(lp1594
I138
aI1
aI112
aa(lp1595
I35
aI18
aI500
aasS'ID_12_F1_18_F2_15_G_3_SplitPt_91_GenID_0'
p1596
(lp1597
(lp1598
I201
aI115
aI234
aa(lp1599
I202
aI1
aI86
aasS'f10_30'
p1600
(lp1601
(lp1602
I84
aI1
aI255
aa(lp1603
I53
aI71
aI500
aasS'ID_58_F1_16_F2_17_G_1_SplitPt_167_GenID_0'
p1604
(lp1605
(lp1606
I118
aI251
aI497
aasS'f12_9'
p1607
(lp1608
(lp1609
I139
aI4
aI209
aa(lp1610
I99
aI81
aI500
aasS'ID_447_F1_13_F2_7_G_2_SplitPt_105_GenID_0'
p1611
(lp1612
(lp1613
I146
aI103
aI500
aasS'ID_297_F1_14_F2_15_G_1_SplitPt_85_GenID_0'
p1614
(lp1615
(lp1616
I4
aI78
aI435
aasS'f6_25'
p1617
(lp1618
(lp1619
I37
aI19
aI497
aasS'ID_89_F1_7_F2_2_G_2_SplitPt_154_GenID_0'
p1620
(lp1621
(lp1622
I22
aI128
aI499
aasS'f12_8'
p1623
(lp1624
(lp1625
I139
aI20
aI215
aa(lp1626
I99
aI119
aI497
aasS'ID_105_F1_13_F2_13_G_2_SplitPt_50_GenID_0'
p1627
(lp1628
(lp1629
I120
aI47
aI499
aasS'ID_257_F1_3_F2_5_G_2_SplitPt_84_GenID_0'
p1630
(lp1631
(lp1632
I2
aI70
aI495
aasS'f19_8'
p1633
(lp1634
(lp1635
I166
aI2
aI240
aasS'f19_9'
p1636
(lp1637
(lp1638
I166
aI6
aI211
aasS'f3_18'
p1639
(lp1640
(lp1641
I110
aI93
aI481
aasS'f3_19'
p1642
(lp1643
(lp1644
I110
aI7
aI491
aasS'ID_43_F1_10_F2_3_G_4_SplitPt_117_GenID_0'
p1645
(lp1646
(lp1647
I203
aI123
aI212
aa(lp1648
I112
aI1
aI118
aasS'f3_12'
p1649
(lp1650
(lp1651
I34
aI1
aI500
aasS'f3_13'
p1652
(lp1653
(lp1654
I34
aI7
aI497
aasS'f19_2'
p1655
(lp1656
(lp1657
I87
aI2
aI155
aa(lp1658
I67
aI108
aI500
aasS'ID_366_F1_19_F2_4_G_3_SplitPt_140_GenID_0'
p1659
(lp1660
(lp1661
I165
aI1
aI144
aa(lp1662
I37
aI146
aI494
aasS'f19_4'
p1663
(lp1664
(lp1665
I87
aI1
aI152
aa(lp1666
I67
aI54
aI500
aasS'f19_5'
p1667
(lp1668
(lp1669
I87
aI1
aI151
aa(lp1670
I67
aI54
aI499
aasS'f19_6'
p1671
(lp1672
(lp1673
I87
aI1
aI160
aa(lp1674
I67
aI62
aI500
aasS'f19_7'
p1675
(lp1676
(lp1677
I87
aI1
aI155
aa(lp1678
I67
aI55
aI500
aasS'ID_149_F1_14_F2_17_G_4_SplitPt_215_GenID_0'
p1679
(lp1680
(lp1681
I107
aI180
aI500
aa(lp1682
I101
aI1
aI222
aasS'ID_286_F1_10_F2_19_G_4_SplitPt_53_GenID_0'
p1683
(lp1684
(lp1685
I113
aI1
aI116
aa(lp1686
I67
aI54
aI500
aasS'ID_327_F1_16_F2_8_G_2_SplitPt_61_GenID_0'
p1687
(lp1688
(lp1689
I86
aI63
aI483
aasS'f12_3'
p1690
(lp1691
(lp1692
I157
aI19
aI150
aasS'ID_462_F1_4_F2_4_G_2_SplitPt_229_GenID_0'
p1693
(lp1694
(lp1695
I100
aI1
aI297
aasS'ID_275_F1_1_F2_19_G_2_SplitPt_187_GenID_0'
p1696
(lp1697
(lp1698
I151
aI16
aI182
aa(lp1699
I67
aI198
aI447
aasS'f18_31'
p1700
(lp1701
(lp1702
I3
aI23
aI432
aasS'f18_30'
p1703
(lp1704
(lp1705
I3
aI29
aI496
aasS'f4_19'
p1706
(lp1707
(lp1708
I204
aI313
aI477
aasS'f4_18'
p1709
(lp1710
(lp1711
I38
aI101
aI498
aasS'f15_9'
p1712
(lp1713
(lp1714
I4
aI4
aI500
aasS'f6_9'
p1715
(lp1716
(lp1717
I125
aI4
aI186
aa(lp1718
I154
aI201
aI500
aasS'f6_8'
p1719
(lp1720
(lp1721
I125
aI7
aI119
aa(lp1722
I154
aI145
aI499
aasS'ID_147_F1_5_F2_14_G_2_SplitPt_102_GenID_0'
p1723
(lp1724
(lp1725
I101
aI102
aI497
aasS'f6_5'
p1726
(lp1727
(lp1728
I205
aI317
aI493
aa(lp1729
I46
aI1
aI136
aasS'f6_4'
p1730
(lp1731
(lp1732
I46
aI1
aI142
aasS'f6_7'
p1733
(lp1734
(lp1735
I46
aI1
aI126
aasS'f6_6'
p1736
(lp1737
(lp1738
I23
aI71
aI500
aasS'f6_1'
p1739
(lp1740
(lp1741
I205
aI318
aI493
aa(lp1742
I206
aI1
aI187
aasS'f6_0'
p1743
(lp1744
(lp1745
I23
aI60
aI495
aasS'f6_3'
p1746
(lp1747
(lp1748
I181
aI1
aI100
aa(lp1749
I206
aI5
aI188
aa(lp1750
I23
aI60
aI500
aasS'f6_2'
p1751
(lp1752
(lp1753
I181
aI1
aI109
aa(lp1754
I206
aI5
aI179
aa(lp1755
I23
aI62
aI500
aasS'ID_215_F1_1_F2_5_G_4_SplitPt_160_GenID_0'
p1756
(lp1757
(lp1758
I60
aI1
aI71
aa(lp1759
I148
aI154
aI500
aasS'f4_2'
p1760
(lp1761
(lp1762
I100
aI1
aI257
aa(lp1763
I37
aI83
aI499
aasS'f4_1'
p1764
(lp1765
(lp1766
I57
aI13
aI258
aa(lp1767
I37
aI54
aI500
aasS'f4_0'
p1768
(lp1769
(lp1770
I57
aI6
aI226
aa(lp1771
I37
aI126
aI500
aasS'f4_7'
p1772
(lp1773
(lp1774
I197
aI332
aI482
aasS'f4_6'
p1775
(lp1776
(lp1777
I37
aI81
aI500
aasS'f4_5'
p1778
(lp1779
(lp1780
I109
aI1
aI107
aa(lp1781
I37
aI86
aI500
aasS'f4_4'
p1782
(lp1783
(lp1784
I109
aI1
aI100
aa(lp1785
I37
aI54
aI500
aasS'f17_2'
p1786
(lp1787
(lp1788
I16
aI35
aI500
aasS'f17_3'
p1789
(lp1790
(lp1791
I207
aI276
aI440
aasS'f17_0'
p1792
(lp1793
(lp1794
I141
aI3
aI134
aa(lp1795
I178
aI311
aI498
aa(lp1796
I16
aI4
aI497
aasS'f17_1'
p1797
(lp1798
(lp1799
I140
aI26
aI149
aa(lp1800
I16
aI35
aI496
aasS'f17_6'
p1801
(lp1802
(lp1803
I207
aI276
aI440
aa(lp1804
I208
aI2
aI113
aasS'f17_7'
p1805
(lp1806
(lp1807
I178
aI263
aI499
aasS'f17_4'
p1808
(lp1809
(lp1810
I159
aI1
aI70
aa(lp1811
I208
aI2
aI149
aa(lp1812
I178
aI131
aI500
aasS'f17_5'
p1813
(lp1814
(lp1815
I208
aI2
aI119
aa(lp1816
I178
aI130
aI497
aasS'ID_283_F1_10_F2_4_G_4_SplitPt_93_GenID_0'
p1817
(lp1818
(lp1819
I200
aI207
aI372
aa(lp1820
I209
aI1
aI118
aasS'ID_79_F1_13_F2_8_G_3_SplitPt_224_GenID_0'
p1821
(lp1822
(lp1823
I64
aI298
aI395
aa(lp1824
I119
aI1
aI265
aasS'ID_358_F1_5_F2_6_G_3_SplitPt_123_GenID_0'
p1825
(lp1826
(lp1827
I1
aI3
aI135
aa(lp1828
I37
aI121
aI499
aasS'ID_203_F1_9_F2_3_G_4_SplitPt_183_GenID_0'
p1829
(lp1830
(lp1831
I34
aI182
aI500
aa(lp1832
I8
aI1
aI191
aasS'ID_2_F1_4_F2_10_G_4_SplitPt_143_GenID_0'
p1833
(lp1834
(lp1835
I150
aI73
aI143
aa(lp1836
I98
aI130
aI500
aasS'f8_7'
p1837
(lp1838
(lp1839
I86
aI1
aI496
aasS'f8_6'
p1840
(lp1841
(lp1842
I86
aI2
aI493
aasS'f8_5'
p1843
(lp1844
(lp1845
I173
aI1
aI97
aa(lp1846
I86
aI3
aI499
aasS'f8_4'
p1847
(lp1848
(lp1849
I173
aI1
aI97
aa(lp1850
I86
aI6
aI492
aasS'ID_249_F1_12_F2_0_G_3_SplitPt_137_GenID_0'
p1851
(lp1852
(lp1853
I17
aI97
aI500
aa(lp1854
I133
aI1
aI141
aasS'f8_2'
p1855
(lp1856
(lp1857
I86
aI9
aI500
aasS'f8_1'
p1858
(lp1859
(lp1860
I158
aI1
aI97
aa(lp1861
I86
aI9
aI499
aasS'f8_0'
p1862
(lp1863
(lp1864
I158
aI1
aI95
aa(lp1865
I86
aI10
aI499
aasS'f7_29'
p1866
(lp1867
(lp1868
I77
aI3
aI500
aasS'f7_28'
p1869
(lp1870
(lp1871
I77
aI1
aI500
aasS'ID_150_F1_3_F2_15_G_2_SplitPt_195_GenID_0'
p1872
(lp1873
(lp1874
I4
aI192
aI499
aasS'f8_9'
p1875
(lp1876
(lp1877
I70
aI39
aI500
aasS'f8_8'
p1878
(lp1879
(lp1880
I70
aI58
aI500
aasS'ID_386_F1_8_F2_5_G_1_SplitPt_223_GenID_0'
p1881
(lp1882
(lp1883
I148
aI264
aI495
aasS'ID_7_F1_8_F2_16_G_3_SplitPt_123_GenID_0'
p1884
(lp1885
(lp1886
I108
aI124
aI195
aa(lp1887
I70
aI4
aI132
aasS'f11_0'
p1888
(lp1889
(lp1890
I41
aI1
aI216
aa(lp1891
I79
aI10
aI499
aasS'f11_1'
p1892
(lp1893
(lp1894
I41
aI5
aI193
aa(lp1895
I79
aI88
aI499
aasS'f11_2'
p1896
(lp1897
(lp1898
I41
aI2
aI203
aa(lp1899
I79
aI35
aI500
aasS'f11_3'
p1900
(lp1901
(lp1902
I41
aI47
aI195
aasS'f11_4'
p1903
(lp1904
(lp1905
I41
aI1
aI229
aa(lp1906
I79
aI104
aI500
aasS'f11_5'
p1907
(lp1908
(lp1909
I80
aI357
aI439
aa(lp1910
I41
aI1
aI230
aasS'f11_6'
p1911
(lp1912
(lp1913
I41
aI1
aI218
aa(lp1914
I79
aI67
aI500
aasS'f11_7'
p1915
(lp1916
(lp1917
I41
aI1
aI215
aa(lp1918
I79
aI10
aI499
aasS'f11_8'
p1919
(lp1920
(lp1921
I79
aI1
aI499
aasS'f11_9'
p1922
(lp1923
(lp1924
I134
aI10
aI125
aasS'ID_456_F1_19_F2_17_G_3_SplitPt_211_GenID_0'
p1925
(lp1926
(lp1927
I210
aI363
aI489
aa(lp1928
I156
aI145
aI216
aa(lp1929
I105
aI1
aI212
aasS'f2_9'
p1930
(lp1931
(lp1932
I47
aI1
aI439
aasS'f13_7'
p1933
(lp1934
(lp1935
I185
aI4
aI148
aa(lp1936
I120
aI45
aI492
aasS'f13_4'
p1937
(lp1938
(lp1939
I185
aI8
aI135
aasS'f13_5'
p1940
(lp1941
(lp1942
I185
aI4
aI133
aa(lp1943
I120
aI34
aI460
aasS'f13_2'
p1944
(lp1945
(lp1946
I211
aI1
aI64
aa(lp1947
I120
aI6
aI347
aasS'f13_3'
p1948
(lp1949
(lp1950
I211
aI6
aI64
aasS'f13_0'
p1951
(lp1952
(lp1953
I120
aI1
aI492
aasS'f13_1'
p1954
(lp1955
(lp1956
I120
aI2
aI499
aasS'f2_1'
p1957
(lp1958
(lp1959
I22
aI23
aI500
aasS'ID_48_F1_16_F2_17_G_2_SplitPt_183_GenID_0'
p1960
(lp1961
(lp1962
I212
aI110
aI173
aa(lp1963
I118
aI259
aI477
aasS'f2_3'
p1964
(lp1965
(lp1966
I22
aI6
aI500
aasS'f2_2'
p1967
(lp1968
(lp1969
I22
aI135
aI497
aasS'f2_5'
p1970
(lp1971
(lp1972
I164
aI1
aI89
aa(lp1973
I22
aI3
aI499
aasS'f2_4'
p1974
(lp1975
(lp1976
I164
aI1
aI138
aa(lp1977
I22
aI6
aI499
aasS'f13_8'
p1978
(lp1979
(lp1980
I69
aI364
aI495
aasS'f2_6'
p1981
(lp1982
(lp1983
I213
aI22
aI247
aa(lp1984
I164
aI1
aI121
aa(lp1985
I22
aI151
aI500
aasS'f15_4'
p1986
(lp1987
(lp1988
I4
aI55
aI500
aasS'f15_5'
p1989
(lp1990
(lp1991
I214
aI2
aI100
aa(lp1992
I4
aI4
aI500
aasS'f15_6'
p1993
(lp1994
(lp1995
I4
aI91
aI494
aasS'f15_7'
p1996
(lp1997
(lp1998
I215
aI163
aI324
aasS'f15_0'
p1999
(lp2000
(lp2001
I215
aI163
aI324
aasS'f15_1'
p2002
(lp2003
(lp2004
I103
aI1
aI268
aa(lp2005
I4
aI71
aI483
aasS'f15_2'
p2006
(lp2007
(lp2008
I103
aI1
aI153
aasS'f15_3'
p2009
(lp2010
(lp2011
I103
aI1
aI153
aasS'f0_7'
p2012
(lp2013
(lp2014
I216
aI94
aI500
aasS'f0_6'
p2015
(lp2016
(lp2017
I216
aI44
aI500
aasS'f0_5'
p2018
(lp2019
(lp2020
I216
aI183
aI500
aasS'f0_4'
p2021
(lp2022
(lp2023
I216
aI26
aI500
aasS'f0_3'
p2024
(lp2025
(lp2026
I74
aI2
aI59
aa(lp2027
I92
aI7
aI172
aasS'f0_2'
p2028
(lp2029
(lp2030
I74
aI1
aI60
aa(lp2031
I216
aI56
aI483
aasS'f0_1'
p2032
(lp2033
(lp2034
I92
aI1
aI193
aasS'f0_0'
p2035
(lp2036
(lp2037
I92
aI2
aI183
aa(lp2038
I216
aI44
aI491
aasS'ID_302_F1_11_F2_7_G_3_SplitPt_136_GenID_0'
p2039
(lp2040
(lp2041
I41
aI1
aI137
aa(lp2042
I18
aI88
aI500
aasS'ID_270_F1_6_F2_9_G_2_SplitPt_132_GenID_0'
p2043
(lp2044
(lp2045
I8
aI133
aI500
aasS'f5_18'
p2046
(lp2047
(lp2048
I2
aI55
aI497
aasS'ID_155_F1_11_F2_13_G_2_SplitPt_173_GenID_0'
p2049
(lp2050
(lp2051
I41
aI24
aI189
aa(lp2052
I95
aI180
aI498
aasS'ID_187_F1_7_F2_6_G_3_SplitPt_67_GenID_0'
p2053
(lp2054
(lp2055
I217
aI70
aI137
aa(lp2056
I19
aI1
aI67
aasS'ID_350_F1_5_F2_2_G_4_SplitPt_121_GenID_0'
p2057
(lp2058
(lp2059
I131
aI121
aI257
aa(lp2060
I1
aI1
aI126
aasS'ID_317_F1_7_F2_0_G_4_SplitPt_182_GenID_0'
p2061
(lp2062
(lp2063
I216
aI166
aI500
aa(lp2064
I18
aI1
aI195
aasS'ID_243_F1_1_F2_5_G_1_SplitPt_83_GenID_0'
p2065
(lp2066
(lp2067
I2
aI336
aI497
aasS'ID_1_F1_1_F2_9_G_2_SplitPt_177_GenID_0'
p2068
(lp2069
(lp2070
I183
aI188
aI496
aasS'ID_320_F1_15_F2_10_G_4_SplitPt_107_GenID_0'
p2071
(lp2072
(lp2073
I218
aI109
aI170
aa(lp2074
I36
aI1
aI110
aasS'f16_13'
p2075
(lp2076
(lp2077
I73
aI93
aI499
aa(lp2078
I82
aI1
aI191
aasS'f16_12'
p2079
(lp2080
(lp2081
I73
aI19
aI475
aa(lp2082
I82
aI2
aI137
aasS'f16_11'
p2083
(lp2084
(lp2085
I73
aI6
aI499
aasS'f16_10'
p2086
(lp2087
(lp2088
I73
aI93
aI500
aasS'f16_17'
p2089
(lp2090
(lp2091
I40
aI194
aI497
aa(lp2092
I39
aI40
aI361
aasS'f16_16'
p2093
(lp2094
(lp2095
I219
aI9
aI412
aa(lp2096
I40
aI197
aI495
aasS'f16_15'
p2097
(lp2098
(lp2099
I73
aI18
aI457
aa(lp2100
I82
aI1
aI204
aasS'f16_14'
p2101
(lp2102
(lp2103
I220
aI273
aI436
aa(lp2104
I82
aI1
aI207
aasS'f16_18'
p2105
(lp2106
(lp2107
I219
aI9
aI412
aasS'ID_101_F1_0_F2_3_G_2_SplitPt_177_GenID_0'
p2108
(lp2109
(lp2110
I124
aI1
aI181
aa(lp2111
I61
aI177
aI500
aasS'ID_40_F1_8_F2_2_G_3_SplitPt_93_GenID_0'
p2112
(lp2113
(lp2114
I158
aI1
aI97
aa(lp2115
I47
aI97
aI499
aasS'ID_10_F1_9_F2_10_G_4_SplitPt_140_GenID_0'
p2116
(lp2117
(lp2118
I114
aI117
aI500
aa(lp2119
I8
aI1
aI142
aasS'ID_481_F1_2_F2_12_G_3_SplitPt_86_GenID_0'
p2120
(lp2121
(lp2122
I221
aI90
aI500
aa(lp2123
I164
aI1
aI74
aasS'f1_12'
p2124
(lp2125
(lp2126
I11
aI167
aI499
aasS'ID_192_F1_11_F2_5_G_4_SplitPt_124_GenID_0'
p2127
(lp2128
(lp2129
I41
aI1
aI151
aa(lp2130
I2
aI125
aI500
aasS'f14_1'
p2131
(lp2132
(lp2133
I13
aI1
aI148
aa(lp2134
I91
aI84
aI466
aasS'ID_473_F1_6_F2_4_G_2_SplitPt_86_GenID_0'
p2135
(lp2136
(lp2137
I37
aI81
aI490
aasS'f6_24'
p2138
(lp2139
(lp2140
I37
aI57
aI498
aasS'ID_133_F1_16_F2_4_G_3_SplitPt_204_GenID_0'
p2141
(lp2142
(lp2143
I82
aI3
aI207
aa(lp2144
I37
aI184
aI499
aasS'f6_26'
p2145
(lp2146
(lp2147
I37
aI57
aI500
aasS'f6_27'
p2148
(lp2149
(lp2150
I37
aI127
aI500
aasS'f6_20'
p2151
(lp2152
(lp2153
I72
aI168
aI498
aa(lp2154
I222
aI1
aI228
aasS'f6_21'
p2155
(lp2156
(lp2157
I72
aI148
aI479
aa(lp2158
I222
aI3
aI228
aasS'f6_22'
p2159
(lp2160
(lp2161
I72
aI107
aI500
aa(lp2162
I222
aI2
aI259
aasS'f6_23'
p2163
(lp2164
(lp2165
I72
aI130
aI500
aa(lp2166
I222
aI1
aI225
aasS'f6_19'
p2167
(lp2168
(lp2169
I71
aI1
aI153
aa(lp2170
I72
aI120
aI498
aasS'ID_387_F1_0_F2_9_G_2_SplitPt_166_GenID_0'
p2171
(lp2172
(lp2173
I223
aI1
aI159
aa(lp2174
I8
aI167
aI497
aasS'f6_28'
p2175
(lp2176
(lp2177
I168
aI1
aI138
aa(lp2178
I37
aI81
aI500
aasS'f6_29'
p2179
(lp2180
(lp2181
I168
aI1
aI187
aa(lp2182
I37
aI20
aI500
aasS'ID_258_F1_9_F2_15_G_4_SplitPt_117_GenID_0'
p2183
(lp2184
(lp2185
I224
aI118
aI143
aa(lp2186
I7
aI1
aI118
aasS'f1_25'
p2187
(lp2188
(lp2189
I151
aI1
aI491
aasS'ID_199_F1_1_F2_10_G_4_SplitPt_87_GenID_0'
p2190
(lp2191
(lp2192
I112
aI88
aI189
aa(lp2193
I151
aI1
aI157
aasS'f1_27'
p2194
(lp2195
(lp2196
I151
aI1
aI491
aasS'f1_26'
p2197
(lp2198
(lp2199
I151
aI3
aI484
aasS'f1_21'
p2200
(lp2201
(lp2202
I60
aI1
aI71
aa(lp2203
I186
aI148
aI498
aa(lp2204
I75
aI73
aI344
aasS'f1_20'
p2205
(lp2206
(lp2207
I60
aI1
aI89
aa(lp2208
I186
aI165
aI499
aasS'f1_23'
p2209
(lp2210
(lp2211
I171
aI1
aI90
aa(lp2212
I186
aI163
aI465
aasS'f1_22'
p2213
(lp2214
(lp2215
I186
aI213
aI467
aasS'f14_15'
p2216
(lp2217
(lp2218
I225
aI1
aI190
aa(lp2219
I91
aI244
aI491
aasS'f14_14'
p2220
(lp2221
(lp2222
I225
aI5
aI190
aa(lp2223
I91
aI66
aI495
aasS'f14_17'
p2224
(lp2225
(lp2226
I101
aI74
aI500
aasS'f14_16'
p2227
(lp2228
(lp2229
I101
aI98
aI500
aasS'f14_11'
p2230
(lp2231
(lp2232
I196
aI3
aI110
aa(lp2233
I91
aI47
aI500
aasS'f14_10'
p2234
(lp2235
(lp2236
I196
aI1
aI110
aa(lp2237
I91
aI36
aI498
aasS'f14_13'
p2238
(lp2239
(lp2240
I54
aI6
aI98
aa(lp2241
I91
aI60
aI499
aasS'f14_12'
p2242
(lp2243
(lp2244
I54
aI1
aI87
aa(lp2245
I91
aI4
aI500
aasS'ID_497_F1_12_F2_7_G_2_SplitPt_206_GenID_0'
p2246
(lp2247
(lp2248
I139
aI1
aI191
aa(lp2249
I77
aI143
aI500
aasS'f2_0'
p2250
(lp2251
(lp2252
I22
aI156
aI500
aasS'ID_284_F1_7_F2_18_G_2_SplitPt_128_GenID_0'
p2253
(lp2254
(lp2255
I130
aI142
aI500
aasS'ID_282_F1_9_F2_8_G_3_SplitPt_130_GenID_0'
p2256
(lp2257
(lp2258
I86
aI122
aI499
aa(lp2259
I8
aI1
aI129
aasS'f2_31'
p2260
(lp2261
(lp2262
I20
aI2
aI473
aasS'f2_30'
p2263
(lp2264
(lp2265
I20
aI11
aI498
aasS'ID_188_F1_10_F2_6_G_3_SplitPt_179_GenID_0'
p2266
(lp2267
(lp2268
I226
aI1
aI181
aa(lp2269
I37
aI83
aI500
aasS'ID_87_F1_10_F2_13_G_3_SplitPt_87_GenID_0'
p2270
(lp2271
(lp2272
I227
aI2
aI96
aa(lp2273
I120
aI42
aI500
aasS'f8_22'
p2274
(lp2275
(lp2276
I70
aI2
aI497
aasS'f13_30'
p2277
(lp2278
(lp2279
I95
aI2
aI380
aasS'f13_31'
p2280
(lp2281
(lp2282
I95
aI301
aI490
aasS'ID_225_F1_17_F2_12_G_4_SplitPt_167_GenID_0'
p2283
(lp2284
(lp2285
I228
aI1
aI184
aa(lp2286
I99
aI167
aI500
aasS'ID_348_F1_2_F2_15_G_2_SplitPt_110_GenID_0'
p2287
(lp2288
(lp2289
I4
aI124
aI491
aasS'f5_19'
p2290
(lp2291
(lp2292
I2
aI13
aI500
aasS'ID_216_F1_15_F2_11_G_1_SplitPt_185_GenID_0'
p2293
(lp2294
(lp2295
I79
aI172
aI466
aasS'f8_13'
p2296
(lp2297
(lp2298
I229
aI6
aI124
aa(lp2299
I70
aI35
aI487
aasS'f8_12'
p2300
(lp2301
(lp2302
I229
aI1
aI115
aa(lp2303
I70
aI32
aI466
aasS'f8_11'
p2304
(lp2305
(lp2306
I70
aI150
aI500
aasS'f8_10'
p2307
(lp2308
(lp2309
I70
aI32
aI500
aasS'f8_17'
p2310
(lp2311
(lp2312
I70
aI21
aI498
aasS'f8_16'
p2313
(lp2314
(lp2315
I70
aI6
aI498
aasS'ID_238_F1_0_F2_11_G_3_SplitPt_116_GenID_0'
p2316
(lp2317
(lp2318
I223
aI1
aI121
aa(lp2319
I31
aI115
aI499
aasS'f8_14'
p2320
(lp2321
(lp2322
I70
aI35
aI492
aasS'f8_19'
p2323
(lp2324
(lp2325
I70
aI1
aI497
aasS'f8_18'
p2326
(lp2327
(lp2328
I70
aI1
aI498
aasS'ID_256_F1_2_F2_15_G_3_SplitPt_79_GenID_0'
p2329
(lp2330
(lp2331
I164
aI1
aI89
aa(lp2332
I4
aI82
aI500
aasS'f0_10'
p2333
(lp2334
(lp2335
I17
aI76
aI438
aa(lp2336
I43
aI4
aI227
aasS'ID_338_F1_8_F2_1_G_4_SplitPt_212_GenID_0'
p2337
(lp2338
(lp2339
I14
aI211
aI500
aa(lp2340
I70
aI1
aI230
aasS'ID_167_F1_18_F2_16_G_3_SplitPt_171_GenID_0'
p2341
(lp2342
(lp2343
I202
aI2
aI170
aa(lp2344
I39
aI174
aI499
aasS'ID_85_F1_11_F2_3_G_2_SplitPt_164_GenID_0'
p2345
(lp2346
(lp2347
I30
aI1
aI204
aa(lp2348
I33
aI146
aI499
aasS'ID_184_F1_17_F2_15_G_3_SplitPt_220_GenID_0'
p2349
(lp2350
(lp2351
I107
aI1
aI265
aa(lp2352
I4
aI216
aI498
aasS'ID_434_F1_5_F2_0_G_4_SplitPt_165_GenID_0'
p2353
(lp2354
(lp2355
I102
aI1
aI197
aa(lp2356
I216
aI160
aI500
aasS'ID_349_F1_8_F2_14_G_3_SplitPt_228_GenID_0'
p2357
(lp2358
(lp2359
I101
aI225
aI499
aa(lp2360
I70
aI2
aI227
aasS'f18_1'
p2361
(lp2362
(lp2363
I202
aI15
aI169
aa(lp2364
I230
aI121
aI500
aasS'f18_0'
p2365
(lp2366
(lp2367
I202
aI11
aI170
aa(lp2368
I230
aI123
aI499
aasS'f18_3'
p2369
(lp2370
(lp2371
I202
aI4
aI86
aa(lp2372
I230
aI211
aI493
aa(lp2373
I6
aI11
aI310
aasS'f18_2'
p2374
(lp2375
(lp2376
I202
aI1
aI133
aa(lp2377
I230
aI119
aI488
aasS'f18_5'
p2378
(lp2379
(lp2380
I5
aI138
aI500
aa(lp2381
I6
aI1
aI222
aasS'f18_4'
p2382
(lp2383
(lp2384
I155
aI127
aI307
aa(lp2385
I42
aI213
aI322
aasS'f18_7'
p2386
(lp2387
(lp2388
I5
aI141
aI500
aa(lp2389
I6
aI1
aI310
aasS'ID_509_F1_4_F2_13_G_2_SplitPt_229_GenID_0'
p2390
(lp2391
(lp2392
I161
aI1
aI223
aa(lp2393
I95
aI244
aI500
aasS'f18_9'
p2394
(lp2395
(lp2396
I12
aI1
aI464
aasS'ID_128_F1_4_F2_14_G_3_SplitPt_209_GenID_0'
p2397
(lp2398
(lp2399
I161
aI1
aI220
aa(lp2400
I91
aI203
aI500
aasS'ID_369_F1_11_F2_18_G_1_SplitPt_87_GenID_0'
p2401
(lp2402
(lp2403
I230
aI119
aI487
aa(lp2404
I6
aI87
aI300
aasS'f14_18'
p2405
(lp2406
(lp2407
I101
aI78
aI500
aasS'ID_236_F1_13_F2_17_G_4_SplitPt_64_GenID_0'
p2408
(lp2409
(lp2410
I211
aI1
aI64
aa(lp2411
I118
aI65
aI500
aasS'ID_309_F1_16_F2_13_G_4_SplitPt_154_GenID_0'
p2412
(lp2413
(lp2414
I82
aI1
aI155
aa(lp2415
I95
aI154
aI500
aasS'f0_16'
p2416
(lp2417
(lp2418
I223
aI1
aI113
aa(lp2419
I126
aI56
aI497
aasS'f9_30'
p2420
(lp2421
(lp2422
I231
aI2
aI149
aa(lp2423
I8
aI18
aI484
aasS'f9_31'
p2424
(lp2425
(lp2426
I231
aI3
aI149
aa(lp2427
I8
aI51
aI448
aasS'f5_30'
p2428
(lp2429
(lp2430
I170
aI1
aI218
aasS'f5_31'
p2431
(lp2432
(lp2433
I170
aI1
aI138
aa(lp2434
I2
aI99
aI470
aasS'ID_162_F1_12_F2_11_G_4_SplitPt_188_GenID_0'
p2435
(lp2436
(lp2437
I133
aI1
aI188
aa(lp2438
I79
aI56
aI500
aasS'ID_382_F1_8_F2_10_G_3_SplitPt_136_GenID_0'
p2439
(lp2440
(lp2441
I65
aI1
aI136
aa(lp2442
I114
aI135
aI500
aasS'f7_27'
p2443
(lp2444
(lp2445
I77
aI8
aI500
aasS'f16_28'
p2446
(lp2447
(lp2448
I39
aI26
aI500
aasS'f16_29'
p2449
(lp2450
(lp2451
I39
aI121
aI494
aasS'f14_9'
p2452
(lp2453
(lp2454
I91
aI31
aI499
aasS'f14_8'
p2455
(lp2456
(lp2457
I91
aI6
aI500
aasS'f4_3'
p2458
(lp2459
(lp2460
I100
aI1
aI254
aa(lp2461
I37
aI63
aI499
aasS'f19_18'
p2462
(lp2463
(lp2464
I55
aI1
aI489
aasS'f16_22'
p2465
(lp2466
(lp2467
I94
aI5
aI197
aa(lp2468
I39
aI95
aI500
aasS'f1_29'
p2469
(lp2470
(lp2471
I232
aI6
aI245
aa(lp2472
I151
aI151
aI500
aasS'f14_7'
p2473
(lp2474
(lp2475
I233
aI128
aI330
aasS'f16_21'
p2476
(lp2477
(lp2478
I94
aI24
aI197
aa(lp2479
I39
aI40
aI499
aasS'f16_26'
p2480
(lp2481
(lp2482
I212
aI110
aI173
aasS'f14_0'
p2483
(lp2484
(lp2485
I13
aI5
aI148
aa(lp2486
I91
aI82
aI500
aasS'f14_3'
p2487
(lp2488
(lp2489
I233
aI128
aI330
aa(lp2490
I13
aI1
aI137
aasS'f1_28'
p2491
(lp2492
(lp2493
I232
aI2
aI246
aa(lp2494
I151
aI36
aI500
aasS'f16_3'
p2495
(lp2496
(lp2497
I116
aI9
aI230
aasS'f16_2'
p2498
(lp2499
(lp2500
I115
aI20
aI395
aa(lp2501
I116
aI4
aI215
aasS'f16_1'
p2502
(lp2503
(lp2504
I220
aI273
aI436
aa(lp2505
I234
aI1
aI157
aasS'f16_0'
p2506
(lp2507
(lp2508
I234
aI6
aI146
aasS'f16_7'
p2509
(lp2510
(lp2511
I117
aI265
aI500
aasS'f16_6'
p2512
(lp2513
(lp2514
I191
aI3
aI134
aa(lp2515
I235
aI28
aI454
aa(lp2516
I117
aI199
aI500
aasS'f0_28'
p2517
(lp2518
(lp2519
I44
aI3
aI143
aasS'f0_29'
p2520
(lp2521
(lp2522
I44
aI12
aI129
aasS'f0_26'
p2523
(lp2524
(lp2525
I124
aI1
aI499
aasS'f0_27'
p2526
(lp2527
(lp2528
I124
aI1
aI499
aasS'f16_9'
p2529
(lp2530
(lp2531
I73
aI50
aI500
aasS'f16_8'
p2532
(lp2533
(lp2534
I39
aI102
aI331
aasS'f0_22'
p2535
(lp2536
(lp2537
I126
aI2
aI489
aasS'ID_269_F1_10_F2_6_G_4_SplitPt_133_GenID_0'
p2538
(lp2539
(lp2540
I236
aI1
aI151
aa(lp2541
I37
aI83
aI500
aasS'ID_396_F1_12_F2_8_G_3_SplitPt_114_GenID_0'
p2542
(lp2543
(lp2544
I157
aI13
aI114
aa(lp2545
I86
aI115
aI497
aasS'f0_21'
p2546
(lp2547
(lp2548
I126
aI1
aI500
aasS'f17_21'
p2549
(lp2550
(lp2551
I153
aI1
aI155
aa(lp2552
I118
aI93
aI500
aasS'f17_20'
p2553
(lp2554
(lp2555
I153
aI2
aI164
aa(lp2556
I118
aI114
aI500
aasS'f17_23'
p2557
(lp2558
(lp2559
I118
aI114
aI500
aasS'f17_22'
p2560
(lp2561
(lp2562
I210
aI363
aI489
aa(lp2563
I153
aI5
aI188
aasS'f17_25'
p2564
(lp2565
(lp2566
I107
aI1
aI499
aasS'f19_19'
p2567
(lp2568
(lp2569
I55
aI2
aI499
aasS'f17_27'
p2570
(lp2571
(lp2572
I107
aI1
aI500
aasS'ID_418_F1_11_F2_17_G_1_SplitPt_134_GenID_0'
p2573
(lp2574
(lp2575
I178
aI131
aI497
aasS'f17_29'
p2576
(lp2577
(lp2578
I107
aI1
aI500
aasS'f17_28'
p2579
(lp2580
(lp2581
I107
aI5
aI499
aasS'ID_131_F1_5_F2_6_G_4_SplitPt_146_GenID_0'
p2582
(lp2583
(lp2584
I237
aI72
aI154
aa(lp2585
I10
aI105
aI221
aa(lp2586
I72
aI112
aI500
aasS'ID_112_F1_12_F2_1_G_2_SplitPt_118_GenID_0'
p2587
(lp2588
(lp2589
I151
aI131
aI496
aasS'ID_205_F1_0_F2_9_G_1_SplitPt_95_GenID_0'
p2590
(lp2591
(lp2592
I8
aI96
aI371
aasS'ID_96_F1_16_F2_1_G_2_SplitPt_69_GenID_0'
p2593
(lp2594
(lp2595
I151
aI71
aI491
aasS'ID_328_F1_2_F2_16_G_2_SplitPt_136_GenID_0'
p2596
(lp2597
(lp2598
I39
aI134
aI496
aasS'ID_237_F1_14_F2_10_G_3_SplitPt_141_GenID_0'
p2599
(lp2600
(lp2601
I96
aI3
aI156
aa(lp2602
I53
aI125
aI500
aasS'ID_430_F1_2_F2_13_G_2_SplitPt_247_GenID_0'
p2603
(lp2604
(lp2605
I213
aI5
aI254
aa(lp2606
I95
aI239
aI499
aasS'ID_423_F1_1_F2_1_G_3_SplitPt_219_GenID_0'
p2607
(lp2608
(lp2609
I132
aI181
aI275
aa(lp2610
I199
aI10
aI128
aasS'ID_126_F1_5_F2_6_G_3_SplitPt_76_GenID_0'
p2611
(lp2612
(lp2613
I189
aI1
aI87
aa(lp2614
I217
aI84
aI138
aasS'ID_303_F1_16_F2_0_G_4_SplitPt_127_GenID_0'
p2615
(lp2616
(lp2617
I126
aI125
aI500
aa(lp2618
I39
aI1
aI130
aasS'f10_9'
p2619
(lp2620
(lp2621
I236
aI1
aI133
aa(lp2622
I98
aI196
aI388
aasS'f10_8'
p2623
(lp2624
(lp2625
I236
aI1
aI142
aasS'ID_11_F1_1_F2_9_G_3_SplitPt_130_GenID_0'
p2626
(lp2627
(lp2628
I199
aI3
aI130
aa(lp2629
I183
aI115
aI498
aasS'ID_379_F1_15_F2_8_G_3_SplitPt_70_GenID_0'
p2630
(lp2631
(lp2632
I70
aI71
aI500
aasS'f10_1'
p2633
(lp2634
(lp2635
I227
aI2
aI96
aa(lp2636
I98
aI81
aI497
aasS'f10_0'
p2637
(lp2638
(lp2639
I227
aI2
aI96
aa(lp2640
I226
aI3
aI181
aa(lp2641
I98
aI49
aI500
aasS'f10_3'
p2642
(lp2643
(lp2644
I226
aI1
aI178
aa(lp2645
I98
aI115
aI500
aasS'f10_2'
p2646
(lp2647
(lp2648
I226
aI2
aI178
aa(lp2649
I98
aI3
aI499
aasS'f10_5'
p2650
(lp2651
(lp2652
I209
aI1
aI99
aa(lp2653
I226
aI3
aI181
aa(lp2654
I98
aI149
aI500
aasS'f10_4'
p2655
(lp2656
(lp2657
I209
aI1
aI98
aa(lp2658
I226
aI3
aI178
aa(lp2659
I98
aI145
aI498
aasS'f10_7'
p2660
(lp2661
(lp2662
I209
aI2
aI118
aa(lp2663
I98
aI195
aI500
aasS'f10_6'
p2664
(lp2665
(lp2666
I209
aI1
aI88
aa(lp2667
I98
aI49
aI500
aasS'f4_17'
p2668
(lp2669
(lp2670
I38
aI3
aI497
aasS'f4_16'
p2671
(lp2672
(lp2673
I38
aI1
aI499
aasS'f4_15'
p2674
(lp2675
(lp2676
I37
aI94
aI500
aasS'ID_344_F1_4_F2_7_G_4_SplitPt_70_GenID_0'
p2677
(lp2678
(lp2679
I192
aI1
aI70
aa(lp2680
I77
aI64
aI500
aasS'f4_13'
p2681
(lp2682
(lp2683
I58
aI1
aI104
aa(lp2684
I37
aI12
aI500
aasS'f4_12'
p2685
(lp2686
(lp2687
I58
aI1
aI110
aa(lp2688
I37
aI112
aI500
aasS'f4_11'
p2689
(lp2690
(lp2691
I57
aI17
aI258
aa(lp2692
I63
aI1
aI105
aa(lp2693
I37
aI110
aI500
aasS'f4_10'
p2694
(lp2695
(lp2696
I63
aI3
aI105
aa(lp2697
I37
aI31
aI491
aasS'f12_7'
p2698
(lp2699
(lp2700
I221
aI100
aI500
aa(lp2701
I157
aI1
aI195
aasS'f12_6'
p2702
(lp2703
(lp2704
I221
aI90
aI499
aa(lp2705
I157
aI1
aI206
aasS'f12_5'
p2706
(lp2707
(lp2708
I238
aI21
aI448
aa(lp2709
I157
aI1
aI210
aasS'f12_4'
p2710
(lp2711
(lp2712
I157
aI1
aI210
aasS'ID_268_F1_5_F2_19_G_4_SplitPt_179_GenID_0'
p2713
(lp2714
(lp2715
I237
aI84
aI179
aa(lp2716
I67
aI170
aI500
aasS'f12_1'
p2717
(lp2718
(lp2719
I157
aI1
aI170
aasS'f12_0'
p2720
(lp2721
(lp2722
I157
aI1
aI206
aasS'f3_27'
p2723
(lp2724
(lp2725
I32
aI35
aI219
aa(lp2726
I33
aI129
aI500
aasS'f3_26'
p2727
(lp2728
(lp2729
I33
aI45
aI499
aasS'f3_25'
p2730
(lp2731
(lp2732
I33
aI145
aI500
aasS'f3_24'
p2733
(lp2734
(lp2735
I33
aI138
aI500
aasS'f3_23'
p2736
(lp2737
(lp2738
I110
aI26
aI465
aasS'f3_22'
p2739
(lp2740
(lp2741
I110
aI29
aI339
aasS'f3_21'
p2742
(lp2743
(lp2744
I110
aI7
aI488
aasS'f3_20'
p2745
(lp2746
(lp2747
I110
aI94
aI488
aasS'ID_3_F1_8_F2_15_G_3_SplitPt_119_GenID_0'
p2748
(lp2749
(lp2750
I229
aI1
aI124
aa(lp2751
I27
aI120
aI500
aasS'f3_29'
p2752
(lp2753
(lp2754
I142
aI1
aI101
aa(lp2755
I33
aI155
aI499
aasS'f3_28'
p2756
(lp2757
(lp2758
I142
aI2
aI100
aa(lp2759
I33
aI149
aI496
aasS'ID_142_F1_16_F2_9_G_3_SplitPt_55_GenID_0'
p2760
(lp2761
(lp2762
I183
aI57
aI493
aasS'ID_261_F1_10_F2_10_G_2_SplitPt_94_GenID_0'
p2763
(lp2764
(lp2765
I53
aI110
aI489
aasS'ID_103_F1_6_F2_9_G_4_SplitPt_138_GenID_0'
p2766
(lp2767
(lp2768
I217
aI70
aI147
aa(lp2769
I8
aI134
aI500
aasS'ID_505_F1_6_F2_13_G_4_SplitPt_153_GenID_0'
p2770
(lp2771
(lp2772
I51
aI239
aI414
aa(lp2773
I239
aI153
aI311
aa(lp2774
I71
aI1
aI153
aasS'ID_458_F1_16_F2_5_G_3_SplitPt_214_GenID_0'
p2775
(lp2776
(lp2777
I116
aI4
aI224
aa(lp2778
I148
aI216
aI500
aasS'f6_15'
p2779
(lp2780
(lp2781
I240
aI53
aI500
aa(lp2782
I76
aI7
aI250
aasS'f6_14'
p2783
(lp2784
(lp2785
I240
aI206
aI429
aa(lp2786
I76
aI6
aI236
aasS'f6_17'
p2787
(lp2788
(lp2789
I71
aI1
aI153
aa(lp2790
I72
aI118
aI494
aasS'f6_11'
p2791
(lp2792
(lp2793
I125
aI1
aI194
aa(lp2794
I154
aI194
aI489
aasS'f6_10'
p2795
(lp2796
(lp2797
I125
aI1
aI169
aa(lp2798
I154
aI213
aI463
aasS'f6_13'
p2799
(lp2800
(lp2801
I90
aI94
aI191
aa(lp2802
I160
aI1
aI89
aa(lp2803
I76
aI5
aI156
aasS'f6_12'
p2804
(lp2805
(lp2806
I160
aI2
aI89
aa(lp2807
I240
aI163
aI500
aa(lp2808
I76
aI3
aI191
aasS'ID_217_F1_12_F2_14_G_2_SplitPt_212_GenID_0'
p2809
(lp2810
(lp2811
I241
aI217
aI383
aa(lp2812
I242
aI122
aI209
aasS'ID_33_F1_8_F2_7_G_4_SplitPt_189_GenID_0'
p2813
(lp2814
(lp2815
I180
aI79
aI155
aa(lp2816
I18
aI185
aI500
aasS'ID_495_F1_1_F2_6_G_4_SplitPt_200_GenID_0'
p2817
(lp2818
(lp2819
I154
aI194
aI500
aa(lp2820
I151
aI1
aI242
aasS'ID_264_F1_7_F2_5_G_4_SplitPt_54_GenID_0'
p2821
(lp2822
(lp2823
I19
aI1
aI54
aa(lp2824
I102
aI50
aI200
aasS'ID_21_F1_0_F2_14_G_2_SplitPt_105_GenID_0'
p2825
(lp2826
(lp2827
I44
aI3
aI103
aa(lp2828
I101
aI104
aI498
aasS'ID_169_F1_2_F2_16_G_4_SplitPt_112_GenID_0'
p2829
(lp2830
(lp2831
I94
aI61
aI206
aa(lp2832
I164
aI1
aI137
aa(lp2833
I39
aI112
aI500
aasS'ID_365_F1_15_F2_8_G_3_SplitPt_99_GenID_0'
p2834
(lp2835
(lp2836
I214
aI2
aI100
aa(lp2837
I70
aI88
aI500
aasS'ID_245_F1_11_F2_15_G_2_SplitPt_235_GenID_0'
p2838
(lp2839
(lp2840
I30
aI1
aI234
aasS'ID_345_F1_2_F2_4_G_1_SplitPt_160_GenID_0'
p2841
(lp2842
(lp2843
I204
aI313
aI480
aa(lp2844
I38
aI107
aI442
aasS'f10_31'
p2845
(lp2846
(lp2847
I84
aI1
aI170
aa(lp2848
I53
aI86
aI500
aasS'ID_443_F1_11_F2_1_G_3_SplitPt_51_GenID_0'
p2849
(lp2850
(lp2851
I137
aI1
aI95
aa(lp2852
I11
aI47
aI497
aasS'f19_23'
p2853
(lp2854
(lp2855
I55
aI127
aI466
aasS'ID_360_F1_7_F2_0_G_2_SplitPt_67_GenID_0'
p2856
(lp2857
(lp2858
I216
aI25
aI496
aasS'ID_77_F1_7_F2_15_G_4_SplitPt_209_GenID_0'
p2859
(lp2860
(lp2861
I169
aI138
aI209
aa(lp2862
I243
aI331
aI484
aasS'ID_398_F1_10_F2_7_G_2_SplitPt_52_GenID_0'
p2863
(lp2864
(lp2865
I77
aI51
aI500
aasS'ID_273_F1_17_F2_4_G_2_SplitPt_147_GenID_0'
p2866
(lp2867
(lp2868
I141
aI7
aI134
aa(lp2869
I37
aI147
aI480
aasS'ID_356_F1_15_F2_2_G_4_SplitPt_175_GenID_0'
p2870
(lp2871
(lp2872
I62
aI118
aI175
aa(lp2873
I20
aI174
aI500
aasS'f13_10'
p2874
(lp2875
(lp2876
I120
aI121
aI440
aasS'ID_493_F1_15_F2_2_G_3_SplitPt_234_GenID_0'
p2877
(lp2878
(lp2879
I201
aI115
aI234
aa(lp2880
I20
aI217
aI491
aasS'ID_109_F1_7_F2_18_G_3_SplitPt_206_GenID_0'
p2881
(lp2882
(lp2883
I88
aI1
aI204
aa(lp2884
I230
aI181
aI499
aasS'ID_145_F1_2_F2_18_G_3_SplitPt_138_GenID_0'
p2885
(lp2886
(lp2887
I244
aI3
aI127
aa(lp2888
I3
aI140
aI500
aasS'f7_31'
p2889
(lp2890
(lp2891
I77
aI5
aI500
aasS'f12_17'
p2892
(lp2893
(lp2894
I245
aI179
aI499
aa(lp2895
I9
aI1
aI439
aasS'f12_15'
p2896
(lp2897
(lp2898
I139
aI1
aI197
aa(lp2899
I99
aI169
aI499
aasS'f12_14'
p2900
(lp2901
(lp2902
I99
aI83
aI500
aasS'f12_13'
p2903
(lp2904
(lp2905
I99
aI168
aI498
aasS'f12_12'
p2906
(lp2907
(lp2908
I99
aI170
aI499
aasS'f12_11'
p2909
(lp2910
(lp2911
I139
aI2
aI209
aa(lp2912
I99
aI122
aI500
aasS'f12_10'
p2913
(lp2914
(lp2915
I139
aI3
aI209
aa(lp2916
I99
aI81
aI500
aasS'f8_25'
p2917
(lp2918
(lp2919
I70
aI1
aI498
aasS'f12_18'
p2920
(lp2921
(lp2922
I177
aI194
aI372
aasS'f13_11'
p2923
(lp2924
(lp2925
I120
aI1
aI447
aasS'ID_213_F1_5_F2_2_G_4_SplitPt_198_GenID_0'
p2926
(lp2927
(lp2928
I189
aI1
aI88
aa(lp2929
I237
aI94
aI199
aa(lp2930
I22
aI195
aI500
aasS'ID_385_F1_0_F2_8_G_3_SplitPt_92_GenID_0'
p2931
(lp2932
(lp2933
I124
aI4
aI96
aa(lp2934
I70
aI93
aI500
aasS'ID_208_F1_10_F2_19_G_4_SplitPt_185_GenID_0'
p2935
(lp2936
(lp2937
I112
aI1
aI189
aa(lp2938
I67
aI154
aI500
aasS'ID_239_F1_9_F2_7_G_4_SplitPt_171_GenID_0'
p2939
(lp2940
(lp2941
I18
aI132
aI500
aa(lp2942
I8
aI1
aI179
aasS'ID_271_F1_16_F2_14_G_4_SplitPt_150_GenID_0'
p2943
(lp2944
(lp2945
I234
aI1
aI157
aa(lp2946
I91
aI95
aI500
aasS'f13_12'
p2947
(lp2948
(lp2949
I120
aI153
aI492
aasS'ID_394_F1_7_F2_8_G_3_SplitPt_53_GenID_0'
p2950
(lp2951
(lp2952
I145
aI1
aI62
aa(lp2953
I70
aI58
aI500
aasS'f11_31'
p2954
(lp2955
(lp2956
I30
aI2
aI234
aa(lp2957
I31
aI96
aI487
aasS'ID_66_F1_10_F2_7_G_4_SplitPt_169_GenID_0'
p2958
(lp2959
(lp2960
I218
aI109
aI170
aa(lp2961
I18
aI150
aI500
aasS'ID_59_F1_0_F2_19_G_4_SplitPt_113_GenID_0'
p2962
(lp2963
(lp2964
I223
aI1
aI113
aa(lp2965
I67
aI114
aI500
aasS'ID_140_F1_14_F2_13_G_3_SplitPt_192_GenID_0'
p2966
(lp2967
(lp2968
I225
aI1
aI190
aa(lp2969
I95
aI163
aI500
aasS'ID_412_F1_19_F2_6_G_2_SplitPt_167_GenID_0'
p2970
(lp2971
(lp2972
I105
aI25
aI169
aa(lp2973
I23
aI168
aI490
aasS'ID_113_F1_1_F2_10_G_3_SplitPt_91_GenID_0'
p2974
(lp2975
(lp2976
I143
aI1
aI92
aa(lp2977
I98
aI92
aI496
aasS'f3_6'
p2978
(lp2979
(lp2980
I61
aI46
aI500
aasS'ID_314_F1_16_F2_3_G_2_SplitPt_245_GenID_0'
p2981
(lp2982
(lp2983
I152
aI160
aI240
aa(lp2984
I33
aI248
aI496
aasS'ID_70_F1_16_F2_17_G_2_SplitPt_96_GenID_0'
p2985
(lp2986
(lp2987
I107
aI98
aI495
aasS'f8_15'
p2988
(lp2989
(lp2990
I70
aI129
aI488
aasS'ID_486_F1_3_F2_6_G_2_SplitPt_81_GenID_0'
p2991
(lp2992
(lp2993
I72
aI119
aI498
aasS'f7_30'
p2994
(lp2995
(lp2996
I77
aI1
aI500
aasS'ID_159_F1_12_F2_5_G_4_SplitPt_242_GenID_0'
p2997
(lp2998
(lp2999
I66
aI1
aI126
aa(lp3000
I2
aI243
aI500
aasS'ID_60_F1_18_F2_9_G_3_SplitPt_172_GenID_0'
p3001
(lp3002
(lp3003
I6
aI1
aI174
aa(lp3004
I8
aI172
aI500
aasS'ID_27_F1_18_F2_3_G_3_SplitPt_78_GenID_0'
p3005
(lp3006
(lp3007
I127
aI1
aI77
aa(lp3008
I34
aI79
aI495
aasS'ID_477_F1_7_F2_17_G_3_SplitPt_144_GenID_0'
p3009
(lp3010
(lp3011
I146
aI3
aI151
aa(lp3012
I107
aI110
aI499
aasS'ID_224_F1_2_F2_10_G_2_SplitPt_130_GenID_0'
p3013
(lp3014
(lp3015
I98
aI98
aI495
aasS'ID_322_F1_4_F2_6_G_2_SplitPt_144_GenID_0'
p3016
(lp3017
(lp3018
I23
aI142
aI499
aasS'ID_183_F1_12_F2_19_G_4_SplitPt_188_GenID_0'
p3019
(lp3020
(lp3021
I157
aI1
aI210
aa(lp3022
I67
aI159
aI500
aasS'f18_19'
p3023
(lp3024
(lp3025
I15
aI6
aI153
aa(lp3026
I130
aI89
aI498
aasS'f18_18'
p3027
(lp3028
(lp3029
I15
aI9
aI150
aa(lp3030
I130
aI89
aI500
aasS'ID_219_F1_6_F2_7_G_2_SplitPt_178_GenID_0'
p3031
(lp3032
(lp3033
I77
aI185
aI500
aasS'ID_182_F1_9_F2_12_G_2_SplitPt_127_GenID_0'
p3034
(lp3035
(lp3036
I138
aI12
aI126
aa(lp3037
I35
aI18
aI498
aasS'f18_11'
p3038
(lp3039
(lp3040
I246
aI312
aI482
aasS'f18_10'
p3041
(lp3042
(lp3043
I12
aI1
aI330
aasS'f18_13'
p3044
(lp3045
(lp3046
I246
aI312
aI482
aasS'f18_12'
p3047
(lp3048
(lp3049
I12
aI14
aI482
aasS'ID_401_F1_9_F2_2_G_3_SplitPt_147_GenID_0'
p3050
(lp3051
(lp3052
I231
aI2
aI149
aa(lp3053
I48
aI145
aI500
aasS'f18_14'
p3054
(lp3055
(lp3056
I176
aI22
aI163
aasS'f18_17'
p3057
(lp3058
(lp3059
I130
aI129
aI500
aasS'f18_16'
p3060
(lp3061
(lp3062
I130
aI133
aI499
aasS'f0_13'
p3063
(lp3064
(lp3065
I17
aI172
aI482
aa(lp3066
I43
aI8
aI212
aasS'ID_346_F1_8_F2_8_G_2_SplitPt_63_GenID_0'
p3067
(lp3068
(lp3069
I70
aI18
aI493
aasS'ID_417_F1_5_F2_12_G_4_SplitPt_121_GenID_0'
p3070
(lp3071
(lp3072
I242
aI122
aI209
aa(lp3073
I102
aI1
aI155
aasS'ID_4_F1_10_F2_9_G_2_SplitPt_51_GenID_0'
p3074
(lp3075
(lp3076
I8
aI50
aI492
aasS'f0_12'
p3077
(lp3078
(lp3079
I17
aI8
aI500
aa(lp3080
I43
aI1
aI247
aasS'ID_231_F1_14_F2_10_G_3_SplitPt_213_GenID_0'
p3081
(lp3082
(lp3083
I96
aI2
aI244
aa(lp3084
I114
aI214
aI500
aasS'ID_211_F1_12_F2_11_G_2_SplitPt_93_GenID_0'
p3085
(lp3086
(lp3087
I79
aI76
aI499
aasS'f0_11'
p3088
(lp3089
(lp3090
I17
aI78
aI466
aa(lp3091
I43
aI3
aI273
aasS'ID_106_F1_13_F2_1_G_4_SplitPt_232_GenID_0'
p3092
(lp3093
(lp3094
I68
aI103
aI233
aa(lp3095
I247
aI1
aI88
aa(lp3096
I11
aI233
aI500
aasS'f14_28'
p3097
(lp3098
(lp3099
I101
aI1
aI469
aasS'ID_168_F1_15_F2_3_G_4_SplitPt_142_GenID_0'
p3100
(lp3101
(lp3102
I224
aI118
aI143
aa(lp3103
I33
aI131
aI500
aasS'f3_11'
p3104
(lp3105
(lp3106
I179
aI93
aI286
aasS'f7_2'
p3107
(lp3108
(lp3109
I18
aI153
aI500
aasS'f1_30'
p3110
(lp3111
(lp3112
I50
aI11
aI128
aa(lp3113
I151
aI25
aI500
aasS'f1_31'
p3114
(lp3115
(lp3116
I232
aI3
aI246
aa(lp3117
I151
aI86
aI500
aasS'f14_20'
p3118
(lp3119
(lp3120
I101
aI15
aI496
aasS'f0_17'
p3121
(lp3122
(lp3123
I223
aI1
aI121
aa(lp3124
I126
aI2
aI493
aasS'ID_262_F1_6_F2_16_G_2_SplitPt_199_GenID_0'
p3125
(lp3126
(lp3127
I117
aI181
aI500
aa(lp3128
I206
aI1
aI188
aasS'ID_332_F1_3_F2_3_G_2_SplitPt_176_GenID_0'
p3129
(lp3130
(lp3131
I32
aI3
aI184
aa(lp3132
I61
aI185
aI497
aasS'f19_30'
p3133
(lp3134
(lp3135
I104
aI142
aI499
aa(lp3136
I105
aI12
aI219
aasS'f19_31'
p3137
(lp3138
(lp3139
I105
aI2
aI234
aasS'f14_26'
p3140
(lp3141
(lp3142
I101
aI2
aI497
aasS'f14_27'
p3143
(lp3144
(lp3145
I241
aI217
aI383
aasS'f10_11'
p3146
(lp3147
(lp3148
I236
aI7
aI142
aa(lp3149
I98
aI129
aI500
aasS'f10_10'
p3150
(lp3151
(lp3152
I236
aI26
aI151
aasS'ID_157_F1_16_F2_2_G_3_SplitPt_86_GenID_0'
p3153
(lp3154
(lp3155
I248
aI1
aI86
aa(lp3156
I20
aI84
aI500
aasS'ID_432_F1_7_F2_5_G_4_SplitPt_71_GenID_0'
p3157
(lp3158
(lp3159
I162
aI1
aI71
aa(lp3160
I237
aI72
aI199
aasS'f10_15'
p3161
(lp3162
(lp3163
I98
aI69
aI500
aasS'f0_15'
p3164
(lp3165
(lp3166
I17
aI116
aI497
aa(lp3167
I43
aI5
aI212
aasS'f10_17'
p3168
(lp3169
(lp3170
I114
aI136
aI500
aasS'f10_16'
p3171
(lp3172
(lp3173
I114
aI64
aI500
aasS'f2_20'
p3174
(lp3175
(lp3176
I48
aI3
aI448
aasS'f2_21'
p3177
(lp3178
(lp3179
I48
aI3
aI446
aasS'f2_22'
p3180
(lp3181
(lp3182
I48
aI1
aI343
aasS'f0_14'
p3183
(lp3184
(lp3185
I17
aI28
aI499
aa(lp3186
I43
aI1
aI275
aasS'f2_24'
p3187
(lp3188
(lp3189
I20
aI5
aI500
aasS'f2_25'
p3190
(lp3191
(lp3192
I20
aI106
aI500
aasS'f2_26'
p3193
(lp3194
(lp3195
I244
aI8
aI127
aa(lp3196
I20
aI29
aI500
aasS'f2_27'
p3197
(lp3198
(lp3199
I244
aI3
aI119
aa(lp3200
I20
aI43
aI500
aasS'f14_19'
p3201
(lp3202
(lp3203
I101
aI78
aI499
aasS'ID_479_F1_19_F2_1_G_4_SplitPt_155_GenID_0'
p3204
(lp3205
(lp3206
I195
aI66
aI155
aa(lp3207
I151
aI127
aI500
aasS'f13_25'
p3208
(lp3209
(lp3210
I95
aI16
aI500
aasS'f13_24'
p3211
(lp3212
(lp3213
I95
aI8
aI500
aasS'f13_27'
p3214
(lp3215
(lp3216
I51
aI239
aI414
aa(lp3217
I239
aI151
aI311
aasS'ID_195_F1_12_F2_4_G_4_SplitPt_95_GenID_0'
p3218
(lp3219
(lp3220
I66
aI1
aI108
aa(lp3221
I100
aI90
aI277
aasS'f13_21'
p3222
(lp3223
(lp3224
I249
aI3
aI219
aa(lp3225
I95
aI42
aI498
aasS'f13_20'
p3226
(lp3227
(lp3228
I249
aI2
aI229
aa(lp3229
I95
aI4
aI500
aasS'f13_23'
p3230
(lp3231
(lp3232
I69
aI364
aI495
aa(lp3233
I247
aI1
aI88
aasS'f13_22'
p3234
(lp3235
(lp3236
I247
aI1
aI88
aa(lp3237
I95
aI45
aI500
aasS'f13_29'
p3238
(lp3239
(lp3240
I239
aI151
aI311
aasS'f13_28'
p3241
(lp3242
(lp3243
I95
aI2
aI380
aasS'f2_28'
p3244
(lp3245
(lp3246
I20
aI1
aI499
aasS'f14_5'
p3247
(lp3248
(lp3249
I96
aI2
aI213
aa(lp3250
I91
aI7
aI446
aasS'ID_138_F1_6_F2_4_G_1_SplitPt_176_GenID_0'
p3251
(lp3252
(lp3253
I37
aI177
aI497
aasS'ID_32_F1_13_F2_12_G_4_SplitPt_83_GenID_0'
p3254
(lp3255
(lp3256
I198
aI84
aI129
aa(lp3257
I247
aI1
aI88
aasS'ID_153_F1_6_F2_13_G_4_SplitPt_228_GenID_0'
p3258
(lp3259
(lp3260
I222
aI1
aI228
aa(lp3261
I95
aI205
aI500
aasS'ID_298_F1_13_F2_8_G_3_SplitPt_248_GenID_0'
p3262
(lp3263
(lp3264
I86
aI243
aI497
aa(lp3265
I120
aI1
aI268
aasS'f2_16'
p3266
(lp3267
(lp3268
I48
aI2
aI497
aasS'ID_291_F1_3_F2_4_G_3_SplitPt_212_GenID_0'
p3269
(lp3270
(lp3271
I203
aI123
aI212
aa(lp3272
I200
aI207
aI377
aasS'f14_4'
p3273
(lp3274
(lp3275
I96
aI3
aI247
aa(lp3276
I91
aI154
aI482
aasS'ID_326_F1_12_F2_8_G_1_SplitPt_86_GenID_0'
p3277
(lp3278
(lp3279
I70
aI79
aI428
aasS'ID_202_F1_16_F2_11_G_3_SplitPt_138_GenID_0'
p3280
(lp3281
(lp3282
I93
aI140
aI268
aa(lp3283
I82
aI1
aI137
aasS'ID_201_F1_11_F2_9_G_3_SplitPt_199_GenID_0'
p3284
(lp3285
(lp3286
I41
aI6
aI195
aa(lp3287
I8
aI194
aI500
aasS'ID_455_F1_4_F2_18_G_3_SplitPt_87_GenID_0'
p3288
(lp3289
(lp3290
I85
aI7
aI86
aa(lp3291
I130
aI89
aI499
aasS'ID_97_F1_2_F2_6_G_2_SplitPt_128_GenID_0'
p3292
(lp3293
(lp3294
I240
aI71
aI500
aasS'ID_440_F1_11_F2_10_G_2_SplitPt_176_GenID_0'
p3295
(lp3296
(lp3297
I98
aI180
aI500
aasS'ID_507_F1_7_F2_2_G_1_SplitPt_130_GenID_0'
p3298
(lp3299
(lp3300
I47
aI211
aI439
aasS'ID_234_F1_9_F2_2_G_4_SplitPt_229_GenID_0'
p3301
(lp3302
(lp3303
I48
aI230
aI500
aa(lp3304
I8
aI1
aI229
aasS'ID_111_F1_11_F2_15_G_1_SplitPt_150_GenID_0'
p3305
(lp3306
(lp3307
I4
aI283
aI470
aasS'ID_399_F1_19_F2_11_G_2_SplitPt_79_GenID_0'
p3308
(lp3309
(lp3310
I79
aI49
aI500
aasS'ID_389_F1_8_F2_14_G_4_SplitPt_76_GenID_0'
p3311
(lp3312
(lp3313
I101
aI78
aI500
aa(lp3314
I70
aI1
aI77
aasS'ID_300_F1_2_F2_19_G_2_SplitPt_159_GenID_0'
p3315
(lp3316
(lp3317
I111
aI277
aI492
aasS'ID_127_F1_10_F2_9_G_2_SplitPt_112_GenID_0'
p3318
(lp3319
(lp3320
I8
aI60
aI496
aasS'ID_407_F1_8_F2_7_G_3_SplitPt_85_GenID_0'
p3321
(lp3322
(lp3323
I65
aI4
aI89
aa(lp3324
I18
aI91
aI500
aasS'ID_305_F1_2_F2_8_G_3_SplitPt_220_GenID_0'
p3325
(lp3326
(lp3327
I20
aI1
aI241
aa(lp3328
I70
aI188
aI499
aasS'f5_17'
p3329
(lp3330
(lp3331
I2
aI45
aI500
aasS'ID_435_F1_2_F2_11_G_2_SplitPt_109_GenID_0'
p3332
(lp3333
(lp3334
I79
aI112
aI497
aasS'ID_206_F1_6_F2_17_G_4_SplitPt_108_GenID_0'
p3335
(lp3336
(lp3337
I46
aI1
aI108
aa(lp3338
I107
aI65
aI500
aasS'ID_29_F1_4_F2_18_G_1_SplitPt_239_GenID_0'
p3339
(lp3340
(lp3341
I100
aI2
aI125
aasS'f16_31'
p3342
(lp3343
(lp3344
I248
aI1
aI86
aa(lp3345
I39
aI125
aI500
aasS'f16_30'
p3346
(lp3347
(lp3348
I248
aI6
aI79
aa(lp3349
I39
aI40
aI500
aasS'ID_352_F1_16_F2_15_G_2_SplitPt_88_GenID_0'
p3350
(lp3351
(lp3352
I243
aI331
aI484
aasS'f0_19'
p3353
(lp3354
(lp3355
I223
aI2
aI111
aasS'f0_18'
p3356
(lp3357
(lp3358
I223
aI1
aI159
aa(lp3359
I126
aI2
aI497
aasS'ID_438_F1_2_F2_2_G_4_SplitPt_173_GenID_0'
p3360
(lp3361
(lp3362
I48
aI1
aI240
aa(lp3363
I22
aI113
aI500
aasS'f12_28'
p3364
(lp3365
(lp3366
I106
aI24
aI147
aasS'f12_29'
p3367
(lp3368
(lp3369
I35
aI128
aI500
aasS'f12_26'
p3370
(lp3371
(lp3372
I194
aI96
aI498
aa(lp3373
I133
aI1
aI205
aasS'f12_27'
p3374
(lp3375
(lp3376
I194
aI247
aI497
aa(lp3377
I133
aI1
aI205
aa(lp3378
I35
aI107
aI338
aasS'f12_24'
p3379
(lp3380
(lp3381
I194
aI223
aI492
aa(lp3382
I133
aI2
aI204
aa(lp3383
I35
aI13
aI384
aasS'f12_25'
p3384
(lp3385
(lp3386
I194
aI224
aI496
aa(lp3387
I133
aI4
aI204
aasS'f12_22'
p3388
(lp3389
(lp3390
I66
aI1
aI125
aasS'ID_94_F1_1_F2_1_G_3_SplitPt_66_GenID_0'
p3391
(lp3392
(lp3393
I182
aI4
aI68
aa(lp3394
I144
aI57
aI218
aasS'f12_20'
p3395
(lp3396
(lp3397
I66
aI1
aI137
aasS'f12_21'
p3398
(lp3399
(lp3400
I66
aI2
aI129
aasS'ID_374_F1_2_F2_9_G_3_SplitPt_241_GenID_0'
p3401
(lp3402
(lp3403
I49
aI154
aI245
aa(lp3404
I8
aI243
aI500
aasS'f16_25'
p3405
(lp3406
(lp3407
I39
aI1
aI500
aasS'ID_6_F1_2_F2_6_G_2_SplitPt_105_GenID_0'
p3408
(lp3409
(lp3410
I72
aI118
aI494
aasS'f17_18'
p3411
(lp3412
(lp3413
I250
aI1
aI236
aa(lp3414
I118
aI74
aI500
aasS'f17_19'
p3415
(lp3416
(lp3417
I250
aI2
aI234
aa(lp3418
I118
aI66
aI499
aasS'ID_190_F1_4_F2_5_G_3_SplitPt_103_GenID_0'
p3419
(lp3420
(lp3421
I100
aI1
aI136
aa(lp3422
I2
aI70
aI492
aasS'f17_14'
p3423
(lp3424
(lp3425
I228
aI1
aI167
aa(lp3426
I45
aI81
aI498
aasS'f17_15'
p3427
(lp3428
(lp3429
I228
aI6
aI193
aasS'f17_16'
p3430
(lp3431
(lp3432
I251
aI4
aI113
aa(lp3433
I118
aI65
aI500
aasS'f17_17'
p3434
(lp3435
(lp3436
I250
aI4
aI215
aa(lp3437
I118
aI66
aI500
aasS'f17_10'
p3438
(lp3439
(lp3440
I45
aI2
aI391
aasS'f17_12'
p3441
(lp3442
(lp3443
I45
aI81
aI498
aasS'f17_13'
p3444
(lp3445
(lp3446
I45
aI21
aI492
aasS'ID_172_F1_17_F2_3_G_3_SplitPt_124_GenID_0'
p3447
(lp3448
(lp3449
I208
aI2
aI156
aa(lp3450
I34
aI88
aI500
aasS'f0_20'
p3451
(lp3452
(lp3453
I126
aI1
aI500
aasS'ID_108_F1_15_F2_15_G_2_SplitPt_199_GenID_0'
p3454
(lp3455
(lp3456
I29
aI230
aI383
aa(lp3457
I103
aI1
aI199
aasS'f5_0'
p3458
(lp3459
(lp3460
I1
aI1
aI128
aa(lp3461
I2
aI100
aI499
aasS'ID_18_F1_17_F2_10_G_4_SplitPt_236_GenID_0'
p3462
(lp3463
(lp3464
I251
aI4
aI113
aa(lp3465
I98
aI160
aI500
aas.