(dp1
S'f5_1'
p2
(lp3
(lp4
I1
aI75
aI500
aasS'f18_7'
p5
(lp6
(lp7
I2
aI204
aI491
aa(lp8
I3
aI1
aI82
aasS'ID_46_F1_6_F2_18_G_2_SplitPt_176_GenID_0'
p9
(lp10
(lp11
I4
aI1
aI160
aa(lp12
I5
aI177
aI487
aasS'ID_117_F1_9_F2_19_G_3_SplitPt_206_GenID_0'
p13
(lp14
(lp15
I6
aI7
aI243
aa(lp16
I7
aI205
aI500
aasS'ID_25_F1_15_F2_17_G_2_SplitPt_59_GenID_0'
p17
(lp18
(lp19
I8
aI244
aI456
aasS'ID_113_F1_2_F2_9_G_2_SplitPt_178_GenID_0'
p20
(lp21
(lp22
I9
aI2
aI158
aa(lp23
I10
aI181
aI500
aasS'f15_29'
p24
(lp25
(lp26
I11
aI238
aI500
aasS'f15_28'
p27
(lp28
(lp29
I12
aI4
aI381
aa(lp30
I11
aI185
aI500
aasS'f15_27'
p31
(lp32
(lp33
I13
aI4
aI250
aa(lp34
I11
aI185
aI492
aasS'f15_26'
p35
(lp36
(lp37
I13
aI4
aI230
aasS'f15_23'
p38
(lp39
(lp40
I14
aI83
aI500
aasS'f15_22'
p41
(lp42
(lp43
I14
aI83
aI500
aasS'f15_21'
p44
(lp45
(lp46
I15
aI355
aI469
aa(lp47
I16
aI10
aI155
aasS'f15_20'
p48
(lp49
(lp50
I14
aI19
aI499
aasS'ID_125_F1_2_F2_19_G_2_SplitPt_54_GenID_0'
p51
(lp52
(lp53
I7
aI103
aI499
aasS'ID_56_F1_6_F2_4_G_1_SplitPt_81_GenID_0'
p54
(lp55
(lp56
I17
aI226
aI318
aasS'ID_101_F1_0_F2_18_G_2_SplitPt_224_GenID_0'
p57
(lp58
(lp59
I18
aI1
aI244
aasS'ID_8_F1_5_F2_17_G_2_SplitPt_70_GenID_0'
p60
(lp61
(lp62
I19
aI65
aI500
aasS'ID_87_F1_2_F2_19_G_2_SplitPt_106_GenID_0'
p63
(lp64
(lp65
I7
aI81
aI500
aasS'f19_29'
p66
(lp67
(lp68
I7
aI2
aI497
aasS'f9_17'
p69
(lp70
(lp71
I6
aI6
aI433
aasS'f19_28'
p72
(lp73
(lp74
I7
aI6
aI497
aasS'f15_13'
p75
(lp76
(lp77
I20
aI2
aI499
aasS'ID_75_F1_13_F2_18_G_4_SplitPt_212_GenID_0'
p78
(lp79
(lp80
I21
aI1
aI223
aa(lp81
I5
aI192
aI500
aasS'f17_8'
p82
(lp83
(lp84
I22
aI139
aI484
aasS'f2_11'
p85
(lp86
(lp87
I23
aI78
aI497
aasS'f2_10'
p88
(lp89
(lp90
I23
aI78
aI497
aasS'f2_13'
p91
(lp92
(lp93
I24
aI137
aI499
aasS'f17_9'
p94
(lp95
(lp96
I22
aI140
aI420
aasS'f2_15'
p97
(lp98
(lp99
I24
aI131
aI497
aasS'f2_14'
p100
(lp101
(lp102
I24
aI123
aI498
aasS'f2_17'
p103
(lp104
(lp105
I25
aI56
aI495
aasS'f2_16'
p106
(lp107
(lp108
I25
aI66
aI397
aasS'f2_19'
p109
(lp110
(lp111
I9
aI42
aI158
aa(lp112
I25
aI123
aI493
aasS'f2_18'
p113
(lp114
(lp115
I9
aI2
aI157
aa(lp116
I25
aI109
aI491
aasS'ID_98_F1_9_F2_15_G_2_SplitPt_65_GenID_0'
p117
(lp118
(lp119
I20
aI78
aI500
aasS'ID_33_F1_15_F2_13_G_2_SplitPt_106_GenID_0'
p120
(lp121
(lp122
I26
aI113
aI330
aa(lp123
I27
aI137
aI500
aasS'ID_123_F1_19_F2_12_G_1_SplitPt_163_GenID_0'
p124
(lp125
(lp126
I28
aI172
aI464
aasS'f19_25'
p127
(lp128
(lp129
I7
aI18
aI416
aasS'f17_0'
p130
(lp131
(lp132
I29
aI3
aI495
aasS'ID_44_F1_0_F2_0_G_4_SplitPt_89_GenID_0'
p133
(lp134
(lp135
I30
aI1
aI89
aa(lp136
I31
aI77
aI500
aasS'f17_1'
p137
(lp138
(lp139
I29
aI65
aI494
aasS'f8_30'
p140
(lp141
(lp142
I32
aI92
aI499
aa(lp143
I33
aI37
aI152
aasS'f12_23'
p144
(lp145
(lp146
I28
aI6
aI464
aasS'ID_124_F1_9_F2_17_G_2_SplitPt_218_GenID_0'
p147
(lp148
(lp149
I34
aI1
aI235
aa(lp150
I29
aI212
aI486
aasS'ID_88_F1_4_F2_14_G_3_SplitPt_218_GenID_0'
p151
(lp152
(lp153
I35
aI1
aI71
aa(lp154
I36
aI164
aI499
aasS'f19_1'
p155
(lp156
(lp157
I7
aI108
aI499
aasS'f10_27'
p158
(lp159
(lp160
I37
aI6
aI377
aasS'ID_59_F1_0_F2_2_G_3_SplitPt_77_GenID_0'
p161
(lp162
(lp163
I23
aI78
aI497
aasS'f12_21'
p164
(lp165
(lp166
I28
aI1
aI463
aasS'f19_30'
p167
(lp168
(lp169
I7
aI1
aI500
aasS'f10_20'
p170
(lp171
(lp172
I38
aI54
aI495
aasS'f11_23'
p173
(lp174
(lp175
I39
aI248
aI497
aasS'f11_22'
p176
(lp177
(lp178
I39
aI248
aI498
aasS'f11_21'
p179
(lp180
(lp181
I40
aI396
aI493
aa(lp182
I41
aI36
aI476
aasS'f11_20'
p183
(lp184
(lp185
I42
aI137
aI332
aa(lp186
I39
aI252
aI484
aasS'f11_27'
p187
(lp188
(lp189
I41
aI60
aI500
aasS'f11_26'
p190
(lp191
(lp192
I42
aI137
aI332
aa(lp193
I41
aI169
aI495
aasS'f11_25'
p194
(lp195
(lp196
I41
aI4
aI499
aasS'f11_24'
p197
(lp198
(lp199
I41
aI6
aI499
aasS'f11_29'
p200
(lp201
(lp202
I41
aI4
aI132
aasS'f11_28'
p203
(lp204
(lp205
I41
aI4
aI476
aasS'ID_39_F1_11_F2_0_G_3_SplitPt_101_GenID_0'
p206
(lp207
(lp208
I43
aI1
aI90
aa(lp209
I44
aI98
aI500
aasS'f19_31'
p210
(lp211
(lp212
I7
aI1
aI497
aasS'f4_31'
p213
(lp214
(lp215
I45
aI2
aI336
aasS'f4_30'
p216
(lp217
(lp218
I45
aI2
aI226
aasS'f15_9'
p219
(lp220
(lp221
I20
aI82
aI496
aasS'f19_3'
p222
(lp223
(lp224
I7
aI54
aI496
aasS'ID_55_F1_19_F2_6_G_3_SplitPt_57_GenID_0'
p225
(lp226
(lp227
I46
aI1
aI60
aa(lp228
I47
aI48
aI500
aasS'f19_19'
p229
(lp230
(lp231
I7
aI6
aI499
aasS'f8_6'
p232
(lp233
(lp234
I48
aI117
aI472
aasS'ID_99_F1_16_F2_0_G_3_SplitPt_128_GenID_0'
p235
(lp236
(lp237
I49
aI1
aI127
aa(lp238
I18
aI126
aI498
aasS'f19_4'
p239
(lp240
(lp241
I7
aI119
aI498
aasS'ID_17_F1_16_F2_15_G_3_SplitPt_82_GenID_0'
p242
(lp243
(lp244
I50
aI1
aI84
aa(lp245
I14
aI83
aI500
aasS'f16_22'
p246
(lp247
(lp248
I51
aI9
aI449
aasS'f8_4'
p249
(lp250
(lp251
I48
aI214
aI499
aasS'ID_119_F1_10_F2_10_G_3_SplitPt_195_GenID_0'
p252
(lp253
(lp254
I52
aI3
aI233
aa(lp255
I37
aI165
aI498
aasS'f4_18'
p256
(lp257
(lp258
I53
aI12
aI459
aasS'f7_27'
p259
(lp260
(lp261
I54
aI42
aI148
aasS'f14_7'
p262
(lp263
(lp264
I55
aI173
aI304
aasS'f8_2'
p265
(lp266
(lp267
I48
aI25
aI494
aasS'f3_0'
p268
(lp269
(lp270
I56
aI28
aI453
aasS'f16_21'
p271
(lp272
(lp273
I57
aI1
aI65
aa(lp274
I51
aI39
aI473
aasS'f8_1'
p275
(lp276
(lp277
I48
aI25
aI463
aasS'f3_1'
p278
(lp279
(lp280
I56
aI3
aI453
aasS'f16_26'
p281
(lp282
(lp283
I58
aI2
aI499
aasS'ID_92_F1_11_F2_5_G_3_SplitPt_58_GenID_0'
p284
(lp285
(lp286
I59
aI1
aI63
aa(lp287
I60
aI58
aI500
aasS'f7_24'
p288
(lp289
(lp290
I54
aI1
aI146
aa(lp291
I61
aI3
aI499
aasS'f3_2'
p292
(lp293
(lp294
I56
aI10
aI498
aasS'f16_27'
p295
(lp296
(lp297
I58
aI143
aI465
aasS'f3_3'
p298
(lp299
(lp300
I62
aI56
aI254
aasS'ID_82_F1_7_F2_19_G_3_SplitPt_162_GenID_0'
p301
(lp302
(lp303
I63
aI2
aI179
aa(lp304
I7
aI130
aI497
aasS'f14_30'
p305
(lp306
(lp307
I64
aI106
aI499
aasS'f3_4'
p308
(lp309
(lp310
I56
aI5
aI457
aasS'f16_25'
p311
(lp312
(lp313
I53
aI352
aI475
aasS'f3_5'
p314
(lp315
(lp316
I56
aI3
aI498
aasS'f15_16'
p317
(lp318
(lp319
I16
aI6
aI179
aasS'f15_17'
p320
(lp321
(lp322
I15
aI355
aI469
aa(lp323
I16
aI7
aI167
aasS'f15_14'
p324
(lp325
(lp326
I20
aI6
aI491
aasS'f15_15'
p327
(lp328
(lp329
I20
aI6
aI496
aasS'f15_12'
p330
(lp331
(lp332
I20
aI1
aI394
aasS'f3_6'
p333
(lp334
(lp335
I56
aI3
aI451
aasS'f15_10'
p336
(lp337
(lp338
I20
aI15
aI486
aasS'f15_11'
p339
(lp340
(lp341
I65
aI257
aI454
aasS'f19_23'
p342
(lp343
(lp344
I7
aI6
aI390
aasS'f19_22'
p345
(lp346
(lp347
I7
aI5
aI480
aasS'f19_21'
p348
(lp349
(lp350
I7
aI119
aI488
aasS'f19_20'
p351
(lp352
(lp353
I7
aI5
aI500
aasS'f19_27'
p354
(lp355
(lp356
I7
aI27
aI475
aasS'f19_26'
p357
(lp358
(lp359
I46
aI1
aI60
aa(lp360
I66
aI6
aI228
aasS'f15_18'
p361
(lp362
(lp363
I16
aI33
aI177
aa(lp364
I14
aI73
aI469
aasS'f15_19'
p365
(lp366
(lp367
I65
aI257
aI454
aasS'f16_0'
p368
(lp369
(lp370
I67
aI10
aI159
aa(lp371
I68
aI82
aI173
aasS'f10_28'
p372
(lp373
(lp374
I52
aI3
aI216
aa(lp375
I37
aI97
aI499
aasS'f10_29'
p376
(lp377
(lp378
I52
aI53
aI233
aa(lp379
I37
aI78
aI500
aasS'f10_24'
p380
(lp381
(lp382
I37
aI94
aI470
aasS'f10_25'
p383
(lp384
(lp385
I37
aI62
aI463
aasS'f10_26'
p386
(lp387
(lp388
I37
aI6
aI500
aasS'ID_85_F1_18_F2_18_G_4_SplitPt_103_GenID_0'
p389
(lp390
(lp391
I69
aI1
aI136
aa(lp392
I5
aI3
aI442
aasS'ID_31_F1_0_F2_10_G_3_SplitPt_93_GenID_0'
p393
(lp394
(lp395
I70
aI3
aI94
aa(lp396
I37
aI95
aI499
aasS'f10_22'
p397
(lp398
(lp399
I71
aI220
aI348
aasS'f10_23'
p400
(lp401
(lp402
I71
aI196
aI348
aasS'f0_28'
p403
(lp404
(lp405
I18
aI4
aI446
aasS'f16_4'
p406
(lp407
(lp408
I67
aI10
aI159
aa(lp409
I50
aI1
aI84
aa(lp410
I51
aI15
aI259
aasS'f13_10'
p411
(lp412
(lp413
I72
aI387
aI499
aa(lp414
I73
aI1
aI286
aasS'f13_11'
p415
(lp416
(lp417
I73
aI1
aI250
aa(lp418
I74
aI108
aI500
aasS'f13_12'
p419
(lp420
(lp421
I72
aI387
aI499
aasS'f13_13'
p422
(lp423
(lp424
I74
aI71
aI500
aasS'f13_14'
p425
(lp426
(lp427
I73
aI7
aI284
aa(lp428
I74
aI120
aI499
aasS'f13_15'
p429
(lp430
(lp431
I74
aI111
aI498
aasS'f13_18'
p432
(lp433
(lp434
I74
aI37
aI421
aasS'f8_29'
p435
(lp436
(lp437
I33
aI4
aI166
aasS'f0_24'
p438
(lp439
(lp440
I18
aI3
aI485
aasS'f18_24'
p441
(lp442
(lp443
I5
aI22
aI499
aasS'f18_25'
p444
(lp445
(lp446
I5
aI59
aI486
aasS'f18_26'
p447
(lp448
(lp449
I5
aI1
aI498
aasS'f18_27'
p450
(lp451
(lp452
I5
aI22
aI498
aasS'f18_20'
p453
(lp454
(lp455
I5
aI1
aI500
aasS'f18_21'
p456
(lp457
(lp458
I5
aI56
aI500
aasS'f18_22'
p459
(lp460
(lp461
I5
aI3
aI495
aasS'f18_23'
p462
(lp463
(lp464
I5
aI40
aI500
aasS'f1_2'
p465
(lp466
(lp467
I75
aI13
aI257
aasS'f18_28'
p468
(lp469
(lp470
I5
aI40
aI388
aasS'f11_12'
p471
(lp472
(lp473
I76
aI4
aI185
aasS'f11_13'
p474
(lp475
(lp476
I77
aI4
aI441
aasS'f11_10'
p477
(lp478
(lp479
I43
aI31
aI85
aa(lp480
I77
aI40
aI473
aasS'ID_24_F1_3_F2_4_G_3_SplitPt_166_GenID_0'
p481
(lp482
(lp483
I78
aI1
aI166
aa(lp484
I53
aI164
aI500
aasS'f11_16'
p485
(lp486
(lp487
I41
aI1
aI332
aasS'f11_17'
p488
(lp489
(lp490
I41
aI1
aI219
aasS'f11_14'
p491
(lp492
(lp493
I77
aI6
aI461
aasS'f11_15'
p494
(lp495
(lp496
I77
aI3
aI369
aasS'f9_14'
p497
(lp498
(lp499
I34
aI2
aI214
aa(lp500
I10
aI84
aI498
aasS'f9_15'
p501
(lp502
(lp503
I34
aI20
aI220
aasS'f9_16'
p504
(lp505
(lp506
I6
aI6
aI445
aasS'f17_22'
p507
(lp508
(lp509
I19
aI55
aI499
aasS'f9_10'
p510
(lp511
(lp512
I10
aI165
aI500
aasS'f9_11'
p513
(lp514
(lp515
I10
aI84
aI499
aasS'f9_12'
p516
(lp517
(lp518
I34
aI1
aI231
aa(lp519
I10
aI103
aI497
aasS'f9_13'
p520
(lp521
(lp522
I10
aI49
aI500
aasS'f9_18'
p523
(lp524
(lp525
I6
aI22
aI400
aasS'f9_19'
p526
(lp527
(lp528
I79
aI176
aI411
aasS'ID_93_F1_7_F2_9_G_4_SplitPt_146_GenID_0'
p529
(lp530
(lp531
I54
aI1
aI148
aa(lp532
I6
aI133
aI500
aasS'f5_18'
p533
(lp534
(lp535
I80
aI75
aI496
aasS'f7_17'
p536
(lp537
(lp538
I81
aI136
aI339
aasS'f7_14'
p539
(lp540
(lp541
I63
aI2
aI163
aasS'f7_15'
p542
(lp543
(lp544
I63
aI2
aI179
aasS'f7_12'
p545
(lp546
(lp547
I82
aI202
aI498
aasS'f7_10'
p548
(lp549
(lp550
I82
aI33
aI500
aasS'f7_11'
p551
(lp552
(lp553
I82
aI73
aI500
aasS'f5_10'
p554
(lp555
(lp556
I83
aI137
aI491
aasS'f5_11'
p557
(lp558
(lp559
I83
aI5
aI484
aasS'f5_12'
p560
(lp561
(lp562
I83
aI179
aI499
aasS'f5_13'
p563
(lp564
(lp565
I83
aI5
aI497
aasS'f5_14'
p566
(lp567
(lp568
I83
aI137
aI497
aasS'f5_15'
p569
(lp570
(lp571
I83
aI137
aI500
aasS'f5_16'
p572
(lp573
(lp574
I80
aI35
aI497
aasS'f5_17'
p575
(lp576
(lp577
I80
aI78
aI497
aasS'ID_89_F1_8_F2_17_G_3_SplitPt_161_GenID_0'
p578
(lp579
(lp580
I33
aI2
aI166
aa(lp581
I29
aI164
aI499
aasS'f12_31'
p582
(lp583
(lp584
I84
aI1
aI164
aa(lp585
I28
aI3
aI498
aasS'f12_30'
p586
(lp587
(lp588
I84
aI3
aI183
aasS'ID_49_F1_16_F2_5_G_4_SplitPt_107_GenID_0'
p589
(lp590
(lp591
I85
aI1
aI107
aa(lp592
I80
aI108
aI500
aasS'f2_9'
p593
(lp594
(lp595
I24
aI139
aI495
aasS'f2_8'
p596
(lp597
(lp598
I24
aI144
aI499
aasS'ID_84_F1_18_F2_7_G_2_SplitPt_53_GenID_0'
p599
(lp600
(lp601
I61
aI55
aI496
aasS'ID_23_F1_3_F2_15_G_3_SplitPt_119_GenID_0'
p602
(lp603
(lp604
I86
aI20
aI116
aa(lp605
I20
aI131
aI495
aasS'f2_0'
p606
(lp607
(lp608
I87
aI1
aI162
aa(lp609
I88
aI71
aI413
aasS'f7_4'
p610
(lp611
(lp612
I82
aI20
aI499
aasS'f7_5'
p613
(lp614
(lp615
I82
aI21
aI496
aasS'f7_6'
p616
(lp617
(lp618
I82
aI41
aI383
aasS'f7_7'
p619
(lp620
(lp621
I82
aI32
aI500
aasS'f7_0'
p622
(lp623
(lp624
I82
aI41
aI479
aasS'f7_1'
p625
(lp626
(lp627
I82
aI106
aI500
aasS'f7_2'
p628
(lp629
(lp630
I82
aI21
aI489
aasS'f7_3'
p631
(lp632
(lp633
I82
aI55
aI500
aasS'ID_109_F1_16_F2_6_G_2_SplitPt_158_GenID_0'
p634
(lp635
(lp636
I47
aI147
aI498
aasS'f7_8'
p637
(lp638
(lp639
I82
aI20
aI500
aasS'f7_9'
p640
(lp641
(lp642
I82
aI73
aI497
aasS'f13_8'
p643
(lp644
(lp645
I73
aI13
aI239
aa(lp646
I74
aI59
aI500
aasS'f2_6'
p647
(lp648
(lp649
I88
aI66
aI490
aasS'f19_12'
p650
(lp651
(lp652
I7
aI43
aI499
aasS'f19_13'
p653
(lp654
(lp655
I7
aI87
aI500
aasS'f5_8'
p656
(lp657
(lp658
I83
aI138
aI445
aasS'f5_9'
p659
(lp660
(lp661
I83
aI127
aI500
aasS'f19_16'
p662
(lp663
(lp664
I66
aI6
aI228
aa(lp665
I7
aI187
aI499
aasS'f19_17'
p666
(lp667
(lp668
I7
aI6
aI500
aasS'f19_14'
p669
(lp670
(lp671
I7
aI102
aI500
aasS'f19_15'
p672
(lp673
(lp674
I89
aI298
aI466
aasS'f5_2'
p675
(lp676
(lp677
I1
aI53
aI479
aasS'f5_3'
p678
(lp679
(lp680
I1
aI101
aI485
aasS'f5_0'
p681
(lp682
(lp683
I1
aI1
aI500
aasS'f6_30'
p684
(lp685
(lp686
I90
aI38
aI458
aasS'f5_6'
p687
(lp688
(lp689
I1
aI38
aI485
aasS'f5_7'
p690
(lp691
(lp692
I1
aI1
aI500
aasS'f5_4'
p693
(lp694
(lp695
I1
aI53
aI500
aasS'f5_5'
p696
(lp697
(lp698
I1
aI169
aI475
aasS'ID_111_F1_12_F2_16_G_3_SplitPt_159_GenID_0'
p699
(lp700
(lp701
I91
aI307
aI494
aa(lp702
I84
aI1
aI168
aasS'f2_12'
p703
(lp704
(lp705
I24
aI144
aI499
aasS'f11_11'
p706
(lp707
(lp708
I43
aI1
aI90
aa(lp709
I77
aI2
aI450
aasS'f15_2'
p710
(lp711
(lp712
I20
aI24
aI435
aasS'ID_53_F1_16_F2_12_G_4_SplitPt_59_GenID_0'
p713
(lp714
(lp715
I92
aI1
aI102
aa(lp716
I28
aI59
aI500
aasS'ID_47_F1_6_F2_17_G_4_SplitPt_206_GenID_0'
p717
(lp718
(lp719
I93
aI1
aI223
aa(lp720
I29
aI201
aI500
aasS'ID_21_F1_4_F2_14_G_4_SplitPt_124_GenID_0'
p721
(lp722
(lp723
I94
aI1
aI142
aa(lp724
I64
aI120
aI500
aasS'ID_121_F1_16_F2_1_G_1_SplitPt_176_GenID_0'
p725
(lp726
(lp727
I95
aI219
aI499
aasS'f8_26'
p728
(lp729
(lp730
I96
aI34
aI499
aasS'f8_27'
p731
(lp732
(lp733
I32
aI92
aI499
aa(lp734
I96
aI23
aI237
aasS'f8_24'
p735
(lp736
(lp737
I96
aI1
aI401
aasS'f8_25'
p738
(lp739
(lp740
I96
aI1
aI437
aasS'f8_22'
p741
(lp742
(lp743
I97
aI73
aI497
aasS'f8_23'
p744
(lp745
(lp746
I97
aI7
aI472
aasS'f8_20'
p747
(lp748
(lp749
I97
aI18
aI454
aasS'f3_7'
p750
(lp751
(lp752
I56
aI26
aI465
aasS'f3_8'
p753
(lp754
(lp755
I98
aI2
aI184
aa(lp756
I56
aI18
aI458
aasS'f3_9'
p757
(lp758
(lp759
I98
aI2
aI130
aa(lp760
I56
aI25
aI459
aasS'f8_28'
p761
(lp762
(lp763
I33
aI2
aI150
aa(lp764
I96
aI101
aI499
aasS'ID_116_F1_12_F2_2_G_3_SplitPt_128_GenID_0'
p765
(lp766
(lp767
I84
aI1
aI118
aa(lp768
I24
aI114
aI499
aasS'f1_6'
p769
(lp770
(lp771
I75
aI1
aI175
aa(lp772
I99
aI2
aI478
aasS'f1_7'
p773
(lp774
(lp775
I99
aI167
aI498
aasS'f1_4'
p776
(lp777
(lp778
I75
aI1
aI257
aa(lp779
I99
aI159
aI415
aasS'f1_5'
p780
(lp781
(lp782
I75
aI1
aI219
aa(lp783
I99
aI2
aI451
aasS'ID_61_F1_8_F2_15_G_4_SplitPt_237_GenID_0'
p784
(lp785
(lp786
I11
aI230
aI500
aa(lp787
I96
aI1
aI262
aasS'f1_3'
p788
(lp789
(lp790
I99
aI41
aI474
aasS'f1_0'
p791
(lp792
(lp793
I75
aI1
aI162
aasS'f14_21'
p794
(lp795
(lp796
I64
aI63
aI500
aasS'f1_8'
p797
(lp798
(lp799
I95
aI29
aI499
aasS'f1_9'
p800
(lp801
(lp802
I95
aI205
aI500
aasS'f14_23'
p803
(lp804
(lp805
I64
aI57
aI500
aasS'f9_8'
p806
(lp807
(lp808
I10
aI231
aI500
aa(lp809
I6
aI1
aI330
aasS'f9_9'
p810
(lp811
(lp812
I100
aI5
aI159
aa(lp813
I10
aI47
aI499
aasS'f9_6'
p814
(lp815
(lp816
I6
aI15
aI499
aasS'f9_7'
p817
(lp818
(lp819
I6
aI7
aI500
aasS'f9_4'
p820
(lp821
(lp822
I101
aI1
aI55
aasS'f9_5'
p823
(lp824
(lp825
I101
aI1
aI55
aasS'f9_2'
p826
(lp827
(lp828
I6
aI57
aI500
aasS'f9_3'
p829
(lp830
(lp831
I6
aI1
aI500
aasS'f9_0'
p832
(lp833
(lp834
I6
aI7
aI500
aasS'f9_1'
p835
(lp836
(lp837
I6
aI8
aI500
aasS'ID_0_F1_9_F2_14_G_2_SplitPt_159_GenID_0'
p838
(lp839
(lp840
I100
aI5
aI159
aa(lp841
I36
aI76
aI483
aasS'ID_40_F1_14_F2_1_G_1_SplitPt_140_GenID_0'
p842
(lp843
(lp844
I95
aI195
aI423
aasS'ID_48_F1_13_F2_0_G_4_SplitPt_250_GenID_0'
p845
(lp846
(lp847
I73
aI1
aI273
aa(lp848
I44
aI230
aI500
aasS'f10_11'
p849
(lp850
(lp851
I37
aI107
aI457
aasS'f9_28'
p852
(lp853
(lp854
I102
aI10
aI419
aasS'f10_10'
p855
(lp856
(lp857
I37
aI88
aI499
aasS'f9_25'
p858
(lp859
(lp860
I103
aI10
aI127
aa(lp861
I102
aI43
aI469
aasS'f9_24'
p862
(lp863
(lp864
I103
aI10
aI128
aasS'f9_26'
p865
(lp866
(lp867
I102
aI35
aI500
aasS'f9_21'
p868
(lp869
(lp870
I6
aI10
aI445
aasS'f9_20'
p871
(lp872
(lp873
I6
aI6
aI414
aasS'f9_23'
p874
(lp875
(lp876
I79
aI186
aI411
aa(lp877
I6
aI6
aI400
aasS'f9_22'
p878
(lp879
(lp880
I79
aI176
aI407
aa(lp881
I6
aI10
aI384
aasS'f5_21'
p882
(lp883
(lp884
I80
aI71
aI499
aasS'f5_20'
p885
(lp886
(lp887
I80
aI71
aI499
aasS'f5_23'
p888
(lp889
(lp890
I80
aI107
aI483
aasS'f5_22'
p891
(lp892
(lp893
I80
aI35
aI499
aasS'f5_25'
p894
(lp895
(lp896
I104
aI109
aI302
aasS'f5_24'
p897
(lp898
(lp899
I104
aI124
aI278
aasS'f5_27'
p900
(lp901
(lp902
I104
aI63
aI294
aa(lp903
I60
aI102
aI493
aasS'f5_29'
p904
(lp905
(lp906
I104
aI63
aI302
aasS'f5_28'
p907
(lp908
(lp909
I60
aI180
aI497
aasS'f10_14'
p910
(lp911
(lp912
I37
aI54
aI500
aasS'f10_9'
p913
(lp914
(lp915
I37
aI106
aI494
aasS'f4_29'
p916
(lp917
(lp918
I105
aI214
aI496
aa(lp919
I45
aI11
aI222
aasS'f10_8'
p920
(lp921
(lp922
I106
aI165
aI332
aasS'f4_22'
p923
(lp924
(lp925
I94
aI1
aI142
aa(lp926
I53
aI8
aI495
aasS'f4_23'
p927
(lp928
(lp929
I94
aI2
aI119
aa(lp930
I53
aI77
aI496
aasS'f4_20'
p931
(lp932
(lp933
I94
aI9
aI122
aa(lp934
I53
aI154
aI494
aasS'f4_21'
p935
(lp936
(lp937
I94
aI11
aI119
aa(lp938
I53
aI49
aI500
aasS'f4_26'
p939
(lp940
(lp941
I45
aI2
aI336
aasS'f4_27'
p942
(lp943
(lp944
I105
aI74
aI498
aasS'f4_24'
p945
(lp946
(lp947
I105
aI74
aI498
aasS'f2_20'
p948
(lp949
(lp950
I107
aI7
aI103
aa(lp951
I25
aI162
aI495
aasS'ID_57_F1_4_F2_10_G_3_SplitPt_207_GenID_0'
p952
(lp953
(lp954
I45
aI2
aI226
aa(lp955
I37
aI26
aI500
aasS'ID_69_F1_11_F2_16_G_3_SplitPt_130_GenID_0'
p956
(lp957
(lp958
I108
aI2
aI130
aa(lp959
I58
aI118
aI500
aasS'f10_18'
p960
(lp961
(lp962
I37
aI6
aI377
aasS'f0_31'
p963
(lp964
(lp965
I18
aI4
aI352
aasS'f0_30'
p966
(lp967
(lp968
I18
aI1
aI422
aasS'f17_30'
p969
(lp970
(lp971
I109
aI1
aI247
aa(lp972
I29
aI185
aI493
aasS'f17_31'
p973
(lp974
(lp975
I110
aI179
aI494
aa(lp976
I109
aI1
aI156
aasS'f10_16'
p977
(lp978
(lp979
I37
aI62
aI362
aasS'ID_114_F1_15_F2_7_G_2_SplitPt_63_GenID_0'
p980
(lp981
(lp982
I82
aI81
aI500
aasS'f2_27'
p983
(lp984
(lp985
I111
aI6
aI470
aasS'ID_107_F1_3_F2_7_G_4_SplitPt_145_GenID_0'
p986
(lp987
(lp988
I98
aI1
aI189
aa(lp989
I82
aI125
aI500
aasS'ID_7_F1_2_F2_11_G_4_SplitPt_168_GenID_0'
p990
(lp991
(lp992
I87
aI1
aI217
aa(lp993
I41
aI159
aI500
aasS'ID_72_F1_18_F2_16_G_3_SplitPt_51_GenID_0'
p994
(lp995
(lp996
I58
aI53
aI499
aasS'f7_16'
p997
(lp998
(lp999
I61
aI2
aI496
aasS'f1_18'
p1000
(lp1001
(lp1002
I112
aI36
aI382
aasS'f1_19'
p1003
(lp1004
(lp1005
I112
aI1
aI431
aasS'f5_19'
p1006
(lp1007
(lp1008
I80
aI61
aI500
aasS'f1_14'
p1009
(lp1010
(lp1011
I95
aI29
aI499
aasS'f1_15'
p1012
(lp1013
(lp1014
I95
aI76
aI499
aasS'f1_16'
p1015
(lp1016
(lp1017
I113
aI46
aI428
aasS'f1_10'
p1018
(lp1019
(lp1020
I95
aI76
aI495
aasS'f1_11'
p1021
(lp1022
(lp1023
I95
aI42
aI495
aasS'f1_12'
p1024
(lp1025
(lp1026
I95
aI38
aI491
aasS'f1_13'
p1027
(lp1028
(lp1029
I95
aI83
aI492
aasS'f10_31'
p1030
(lp1031
(lp1032
I37
aI183
aI436
aasS'f10_30'
p1033
(lp1034
(lp1035
I52
aI72
aI203
aasS'f12_9'
p1036
(lp1037
(lp1038
I114
aI3
aI470
aasS'f12_8'
p1039
(lp1040
(lp1041
I114
aI3
aI464
aasS'f19_8'
p1042
(lp1043
(lp1044
I89
aI298
aI466
aasS'f19_9'
p1045
(lp1046
(lp1047
I7
aI87
aI498
aasS'f3_18'
p1048
(lp1049
(lp1050
I115
aI31
aI469
aasS'f3_19'
p1051
(lp1052
(lp1053
I115
aI97
aI488
aasS'f3_12'
p1054
(lp1055
(lp1056
I62
aI56
aI254
aasS'f3_13'
p1057
(lp1058
(lp1059
I56
aI47
aI498
aasS'f3_10'
p1060
(lp1061
(lp1062
I98
aI1
aI184
aa(lp1063
I56
aI28
aI491
aasS'f3_11'
p1064
(lp1065
(lp1066
I98
aI1
aI182
aa(lp1067
I56
aI42
aI498
aasS'f3_16'
p1068
(lp1069
(lp1070
I86
aI20
aI116
aasS'f3_17'
p1071
(lp1072
(lp1073
I78
aI3
aI188
aa(lp1074
I115
aI94
aI500
aasS'f19_6'
p1075
(lp1076
(lp1077
I116
aI6
aI71
aa(lp1078
I7
aI78
aI498
aasS'f19_7'
p1079
(lp1080
(lp1081
I116
aI2
aI69
aa(lp1082
I7
aI87
aI498
aasS'f13_9'
p1083
(lp1084
(lp1085
I73
aI10
aI239
aa(lp1086
I74
aI199
aI500
aasS'f18_31'
p1087
(lp1088
(lp1089
I5
aI92
aI497
aasS'f18_30'
p1090
(lp1091
(lp1092
I5
aI112
aI450
aasS'f7_18'
p1093
(lp1094
(lp1095
I61
aI3
aI474
aasS'f7_19'
p1096
(lp1097
(lp1098
I61
aI71
aI451
aasS'ID_20_F1_2_F2_18_G_3_SplitPt_58_GenID_0'
p1099
(lp1100
(lp1101
I117
aI1
aI78
aa(lp1102
I5
aI55
aI498
aasS'f6_9'
p1103
(lp1104
(lp1105
I47
aI145
aI497
aasS'f6_8'
p1106
(lp1107
(lp1108
I4
aI1
aI146
aasS'f6_5'
p1109
(lp1110
(lp1111
I118
aI1
aI130
aa(lp1112
I119
aI15
aI336
aasS'f6_4'
p1113
(lp1114
(lp1115
I120
aI49
aI333
aa(lp1116
I121
aI2
aI75
aa(lp1117
I47
aI140
aI472
aasS'f6_6'
p1118
(lp1119
(lp1120
I122
aI50
aI364
aasS'f6_0'
p1121
(lp1122
(lp1123
I120
aI49
aI333
aasS'f6_3'
p1124
(lp1125
(lp1126
I122
aI50
aI366
aasS'f4_3'
p1127
(lp1128
(lp1129
I123
aI102
aI323
aa(lp1130
I124
aI3
aI243
aasS'f4_2'
p1131
(lp1132
(lp1133
I17
aI226
aI318
aa(lp1134
I124
aI17
aI220
aasS'f4_1'
p1135
(lp1136
(lp1137
I125
aI45
aI493
aa(lp1138
I124
aI1
aI220
aasS'f4_0'
p1139
(lp1140
(lp1141
I125
aI230
aI462
aa(lp1142
I124
aI1
aI217
aasS'f4_7'
p1143
(lp1144
(lp1145
I123
aI102
aI323
aa(lp1146
I125
aI135
aI468
aasS'f17_2'
p1147
(lp1148
(lp1149
I29
aI2
aI500
aasS'f17_3'
p1150
(lp1151
(lp1152
I29
aI165
aI500
aasS'f4_9'
p1153
(lp1154
(lp1155
I126
aI11
aI359
aa(lp1156
I35
aI1
aI71
aa(lp1157
I127
aI221
aI500
aasS'f4_8'
p1158
(lp1159
(lp1160
I35
aI8
aI71
aa(lp1161
I127
aI221
aI496
aasS'f17_6'
p1162
(lp1163
(lp1164
I29
aI113
aI486
aasS'f17_7'
p1165
(lp1166
(lp1167
I29
aI2
aI442
aasS'f17_4'
p1168
(lp1169
(lp1170
I29
aI3
aI435
aasS'f13_29'
p1171
(lp1172
(lp1173
I128
aI208
aI479
aasS'ID_64_F1_6_F2_14_G_4_SplitPt_74_GenID_0'
p1174
(lp1175
(lp1176
I121
aI2
aI75
aa(lp1177
I36
aI58
aI500
aasS'ID_41_F1_7_F2_2_G_3_SplitPt_123_GenID_0'
p1178
(lp1179
(lp1180
I129
aI7
aI123
aa(lp1181
I88
aI116
aI499
aasS'f7_23'
p1182
(lp1183
(lp1184
I130
aI5
aI246
aa(lp1185
I61
aI67
aI499
aasS'f7_22'
p1186
(lp1187
(lp1188
I130
aI5
aI238
aa(lp1189
I61
aI100
aI449
aasS'f7_21'
p1190
(lp1191
(lp1192
I61
aI67
aI499
aasS'f7_20'
p1193
(lp1194
(lp1195
I81
aI136
aI339
aa(lp1196
I130
aI69
aI238
aasS'f8_3'
p1197
(lp1198
(lp1199
I48
aI48
aI495
aasS'f7_26'
p1200
(lp1201
(lp1202
I54
aI10
aI140
aa(lp1203
I61
aI52
aI499
aasS'f7_25'
p1204
(lp1205
(lp1206
I54
aI1
aI184
aa(lp1207
I61
aI71
aI497
aasS'f8_0'
p1208
(lp1209
(lp1210
I48
aI29
aI499
aasS'ID_96_F1_0_F2_19_G_2_SplitPt_175_GenID_0'
p1211
(lp1212
(lp1213
I131
aI17
aI165
aa(lp1214
I7
aI173
aI499
aasS'f7_29'
p1215
(lp1216
(lp1217
I129
aI7
aI122
aasS'f7_28'
p1218
(lp1219
(lp1220
I129
aI7
aI123
aasS'f8_8'
p1221
(lp1222
(lp1223
I132
aI41
aI186
aa(lp1224
I133
aI88
aI487
aasS'f11_0'
p1225
(lp1226
(lp1227
I77
aI40
aI473
aasS'f11_3'
p1228
(lp1229
(lp1230
I77
aI2
aI441
aasS'f11_4'
p1231
(lp1232
(lp1233
I76
aI10
aI151
aasS'f11_5'
p1234
(lp1235
(lp1236
I76
aI10
aI185
aasS'f11_6'
p1237
(lp1238
(lp1239
I59
aI4
aI64
aasS'f11_7'
p1240
(lp1241
(lp1242
I59
aI1
aI56
aa(lp1243
I76
aI9
aI149
aasS'f11_8'
p1244
(lp1245
(lp1246
I108
aI3
aI129
aa(lp1247
I77
aI8
aI368
aasS'f11_9'
p1248
(lp1249
(lp1250
I108
aI2
aI130
aasS'f13_6'
p1251
(lp1252
(lp1253
I21
aI1
aI212
aa(lp1254
I27
aI29
aI482
aasS'f13_7'
p1255
(lp1256
(lp1257
I21
aI1
aI220
aasS'f13_4'
p1258
(lp1259
(lp1260
I21
aI4
aI220
aasS'f13_5'
p1261
(lp1262
(lp1263
I21
aI2
aI203
aa(lp1264
I27
aI32
aI500
aasS'f13_2'
p1265
(lp1266
(lp1267
I27
aI24
aI497
aasS'f13_3'
p1268
(lp1269
(lp1270
I26
aI113
aI330
aasS'f13_0'
p1271
(lp1272
(lp1273
I27
aI32
aI395
aasS'f13_1'
p1274
(lp1275
(lp1276
I27
aI230
aI500
aasS'f2_1'
p1277
(lp1278
(lp1279
I87
aI1
aI205
aa(lp1280
I88
aI78
aI489
aasS'ID_67_F1_1_F2_19_G_4_SplitPt_96_GenID_0'
p1281
(lp1282
(lp1283
I134
aI1
aI98
aa(lp1284
I7
aI40
aI500
aasS'f2_3'
p1285
(lp1286
(lp1287
I87
aI1
aI168
aasS'f2_2'
p1288
(lp1289
(lp1290
I87
aI2
aI167
aasS'f2_5'
p1291
(lp1292
(lp1293
I87
aI1
aI167
aa(lp1294
I88
aI116
aI499
aasS'f2_4'
p1295
(lp1296
(lp1297
I88
aI116
aI495
aasS'f2_7'
p1298
(lp1299
(lp1300
I88
aI66
aI489
aasS'ID_66_F1_17_F2_8_G_3_SplitPt_249_GenID_0'
p1301
(lp1302
(lp1303
I109
aI1
aI248
aa(lp1304
I48
aI240
aI494
aasS'f15_4'
p1305
(lp1306
(lp1307
I20
aI18
aI469
aasS'f15_5'
p1308
(lp1309
(lp1310
I20
aI1
aI480
aasS'f15_6'
p1311
(lp1312
(lp1313
I20
aI1
aI500
aasS'f15_7'
p1314
(lp1315
(lp1316
I20
aI15
aI493
aasS'f15_0'
p1317
(lp1318
(lp1319
I20
aI1
aI442
aasS'f15_1'
p1320
(lp1321
(lp1322
I20
aI15
aI438
aasS'f0_9'
p1323
(lp1324
(lp1325
I31
aI34
aI488
aasS'f0_8'
p1326
(lp1327
(lp1328
I31
aI179
aI500
aasS'f0_7'
p1329
(lp1330
(lp1331
I18
aI47
aI230
aasS'f0_6'
p1332
(lp1333
(lp1334
I44
aI84
aI500
aasS'f0_5'
p1335
(lp1336
(lp1337
I135
aI105
aI250
aasS'f0_4'
p1338
(lp1339
(lp1340
I44
aI85
aI499
aa(lp1341
I18
aI12
aI196
aasS'f0_3'
p1342
(lp1343
(lp1344
I44
aI158
aI487
aa(lp1345
I18
aI1
aI198
aasS'f0_2'
p1346
(lp1347
(lp1348
I44
aI4
aI422
aa(lp1349
I18
aI1
aI198
aasS'f0_1'
p1350
(lp1351
(lp1352
I135
aI105
aI250
aa(lp1353
I44
aI109
aI362
aa(lp1354
I18
aI5
aI208
aasS'f0_0'
p1355
(lp1356
(lp1357
I18
aI1
aI230
aasS'ID_12_F1_1_F2_0_G_4_SplitPt_177_GenID_0'
p1358
(lp1359
(lp1360
I75
aI1
aI210
aa(lp1361
I44
aI171
aI500
aasS'f14_19'
p1362
(lp1363
(lp1364
I64
aI98
aI500
aasS'f16_13'
p1365
(lp1366
(lp1367
I92
aI1
aI62
aa(lp1368
I91
aI243
aI494
aa(lp1369
I51
aI11
aI483
aasS'f16_12'
p1370
(lp1371
(lp1372
I92
aI1
aI106
aa(lp1373
I51
aI96
aI491
aasS'f16_11'
p1374
(lp1375
(lp1376
I49
aI3
aI124
aa(lp1377
I91
aI238
aI481
aasS'f16_10'
p1378
(lp1379
(lp1380
I49
aI1
aI127
aa(lp1381
I91
aI261
aI482
aasS'f16_17'
p1382
(lp1383
(lp1384
I51
aI9
aI449
aasS'f16_16'
p1385
(lp1386
(lp1387
I51
aI2
aI443
aasS'f16_15'
p1388
(lp1389
(lp1390
I51
aI54
aI497
aasS'f16_14'
p1391
(lp1392
(lp1393
I51
aI10
aI500
aasS'f16_19'
p1394
(lp1395
(lp1396
I51
aI5
aI473
aasS'f16_18'
p1397
(lp1398
(lp1399
I51
aI2
aI443
aasS'f3_15'
p1400
(lp1401
(lp1402
I56
aI18
aI483
aasS'ID_52_F1_2_F2_13_G_4_SplitPt_103_GenID_0'
p1403
(lp1404
(lp1405
I72
aI387
aI499
aa(lp1406
I107
aI1
aI103
aasS'f19_2'
p1407
(lp1408
(lp1409
I7
aI14
aI497
aasS'ID_104_F1_3_F2_1_G_2_SplitPt_82_GenID_0'
p1410
(lp1411
(lp1412
I113
aI64
aI500
aasS'f6_24'
p1413
(lp1414
(lp1415
I90
aI40
aI455
aa(lp1416
I93
aI1
aI207
aasS'f6_25'
p1417
(lp1418
(lp1419
I93
aI1
aI224
aasS'f6_26'
p1420
(lp1421
(lp1422
I93
aI9
aI208
aasS'f6_27'
p1423
(lp1424
(lp1425
I93
aI6
aI205
aasS'f6_20'
p1426
(lp1427
(lp1428
I119
aI89
aI385
aasS'f6_21'
p1429
(lp1430
(lp1431
I136
aI75
aI282
aa(lp1432
I119
aI82
aI497
aasS'f6_23'
p1433
(lp1434
(lp1435
I119
aI9
aI449
aasS'ID_91_F1_14_F2_0_G_4_SplitPt_84_GenID_0'
p1436
(lp1437
(lp1438
I137
aI1
aI107
aa(lp1439
I44
aI80
aI500
aasS'f6_28'
p1440
(lp1441
(lp1442
I93
aI5
aI187
aasS'f6_29'
p1443
(lp1444
(lp1445
I90
aI33
aI455
aasS'ID_13_F1_19_F2_8_G_2_SplitPt_242_GenID_0'
p1446
(lp1447
(lp1448
I133
aI220
aI500
aa(lp1449
I7
aI1
aI264
aasS'f1_25'
p1450
(lp1451
(lp1452
I112
aI44
aI474
aasS'f1_24'
p1453
(lp1454
(lp1455
I112
aI82
aI500
aasS'f1_26'
p1456
(lp1457
(lp1458
I112
aI49
aI475
aasS'f1_21'
p1459
(lp1460
(lp1461
I134
aI1
aI87
aasS'f14_18'
p1462
(lp1463
(lp1464
I138
aI2
aI319
aa(lp1465
I64
aI104
aI490
aasS'f1_23'
p1466
(lp1467
(lp1468
I134
aI1
aI98
aasS'f1_22'
p1469
(lp1470
(lp1471
I134
aI1
aI97
aasS'f14_15'
p1472
(lp1473
(lp1474
I36
aI77
aI500
aasS'f14_14'
p1475
(lp1476
(lp1477
I36
aI63
aI500
aasS'f14_17'
p1478
(lp1479
(lp1480
I64
aI39
aI500
aasS'f14_16'
p1481
(lp1482
(lp1483
I64
aI121
aI500
aasS'f1_29'
p1484
(lp1485
(lp1486
I113
aI84
aI459
aa(lp1487
I112
aI68
aI287
aasS'f1_28'
p1488
(lp1489
(lp1490
I113
aI46
aI478
aasS'f14_13'
p1491
(lp1492
(lp1493
I36
aI75
aI500
aasS'f14_12'
p1494
(lp1495
(lp1496
I64
aI264
aI432
aasS'f2_31'
p1497
(lp1498
(lp1499
I111
aI5
aI430
aasS'f2_30'
p1500
(lp1501
(lp1502
I139
aI142
aI257
aasS'ID_60_F1_7_F2_7_G_2_SplitPt_149_GenID_0'
p1503
(lp1504
(lp1505
I140
aI2
aI341
aa(lp1506
I82
aI211
aI393
aasS'f13_30'
p1507
(lp1508
(lp1509
I128
aI147
aI500
aasS'f13_31'
p1510
(lp1511
(lp1512
I128
aI148
aI483
aasS'f8_12'
p1513
(lp1514
(lp1515
I133
aI88
aI494
aasS'f8_11'
p1516
(lp1517
(lp1518
I133
aI95
aI500
aasS'f8_17'
p1519
(lp1520
(lp1521
I97
aI7
aI320
aasS'f8_16'
p1522
(lp1523
(lp1524
I97
aI107
aI497
aasS'f8_15'
p1525
(lp1526
(lp1527
I132
aI53
aI186
aasS'f8_14'
p1528
(lp1529
(lp1530
I132
aI41
aI186
aasS'f8_19'
p1531
(lp1532
(lp1533
I97
aI18
aI454
aasS'f8_18'
p1534
(lp1535
(lp1536
I97
aI54
aI492
aasS'f18_0'
p1537
(lp1538
(lp1539
I141
aI6
aI439
aasS'f18_2'
p1540
(lp1541
(lp1542
I2
aI204
aI491
aasS'f18_4'
p1543
(lp1544
(lp1545
I141
aI6
aI439
aasS'ID_126_F1_15_F2_5_G_3_SplitPt_173_GenID_0'
p1546
(lp1547
(lp1548
I16
aI6
aI179
aa(lp1549
I60
aI165
aI500
aasS'f18_6'
p1550
(lp1551
(lp1552
I3
aI1
aI87
aasS'f18_8'
p1553
(lp1554
(lp1555
I142
aI1
aI442
aasS'f1_20'
p1556
(lp1557
(lp1558
I112
aI7
aI500
aasS'ID_37_F1_7_F2_9_G_1_SplitPt_189_GenID_0'
p1559
(lp1560
(lp1561
I54
aI24
aI184
aasS'f9_30'
p1562
(lp1563
(lp1564
I102
aI9
aI472
aasS'f9_31'
p1565
(lp1566
(lp1567
I102
aI48
aI500
aasS'f5_30'
p1568
(lp1569
(lp1570
I60
aI124
aI499
aasS'f5_31'
p1571
(lp1572
(lp1573
I60
aI102
aI500
aasS'ID_62_F1_12_F2_3_G_3_SplitPt_83_GenID_0'
p1574
(lp1575
(lp1576
I143
aI2
aI66
aa(lp1577
I115
aI76
aI500
aasS'ID_71_F1_4_F2_7_G_4_SplitPt_217_GenID_0'
p1578
(lp1579
(lp1580
I124
aI1
aI243
aa(lp1581
I82
aI187
aI500
aasS'f16_28'
p1582
(lp1583
(lp1584
I85
aI1
aI107
aa(lp1585
I58
aI58
aI500
aasS'f16_29'
p1586
(lp1587
(lp1588
I85
aI6
aI107
aasS'f14_8'
p1589
(lp1590
(lp1591
I144
aI2
aI242
aa(lp1592
I64
aI150
aI500
aasS'f14_5'
p1593
(lp1594
(lp1595
I145
aI172
aI236
aasS'f14_4'
p1596
(lp1597
(lp1598
I146
aI79
aI477
aasS'f16_20'
p1599
(lp1600
(lp1601
I57
aI1
aI64
aa(lp1602
I51
aI83
aI457
aasS'f14_6'
p1603
(lp1604
(lp1605
I138
aI2
aI319
aasS'f14_1'
p1606
(lp1607
(lp1608
I147
aI1
aI296
aasS'f14_0'
p1609
(lp1610
(lp1611
I147
aI79
aI289
aasS'f14_3'
p1612
(lp1613
(lp1614
I147
aI1
aI228
aasS'ID_112_F1_16_F2_6_G_4_SplitPt_65_GenID_0'
p1615
(lp1616
(lp1617
I57
aI1
aI65
aa(lp1618
I47
aI54
aI500
aasS'f16_3'
p1619
(lp1620
(lp1621
I51
aI15
aI324
aasS'f16_2'
p1622
(lp1623
(lp1624
I51
aI7
aI247
aasS'ID_6_F1_18_F2_9_G_3_SplitPt_78_GenID_0'
p1625
(lp1626
(lp1627
I3
aI1
aI87
aa(lp1628
I6
aI78
aI500
aasS'f16_5'
p1629
(lp1630
(lp1631
I68
aI82
aI175
aa(lp1632
I50
aI4
aI84
aasS'f0_29'
p1633
(lp1634
(lp1635
I148
aI132
aI238
aasS'f0_26'
p1636
(lp1637
(lp1638
I18
aI1
aI460
aasS'f0_27'
p1639
(lp1640
(lp1641
I18
aI1
aI484
aasS'f16_9'
p1642
(lp1643
(lp1644
I51
aI12
aI487
aasS'f0_25'
p1645
(lp1646
(lp1647
I18
aI1
aI498
aasS'f0_22'
p1648
(lp1649
(lp1650
I18
aI35
aI481
aasS'f0_23'
p1651
(lp1652
(lp1653
I18
aI18
aI459
aasS'f0_20'
p1654
(lp1655
(lp1656
I30
aI2
aI87
aa(lp1657
I18
aI3
aI500
aasS'f0_21'
p1658
(lp1659
(lp1660
I18
aI20
aI467
aasS'f17_21'
p1661
(lp1662
(lp1663
I8
aI244
aI453
aasS'f17_20'
p1664
(lp1665
(lp1666
I19
aI11
aI499
aasS'f17_23'
p1667
(lp1668
(lp1669
I19
aI48
aI499
aasS'ID_2_F1_13_F2_5_G_2_SplitPt_244_GenID_0'
p1670
(lp1671
(lp1672
I83
aI259
aI500
aa(lp1673
I128
aI1
aI294
aasS'f17_25'
p1674
(lp1675
(lp1676
I149
aI81
aI282
aasS'f17_24'
p1677
(lp1678
(lp1679
I110
aI179
aI494
aasS'f17_27'
p1680
(lp1681
(lp1682
I29
aI111
aI493
aasS'f17_29'
p1683
(lp1684
(lp1685
I109
aI3
aI247
aa(lp1686
I29
aI65
aI464
aasS'f17_28'
p1687
(lp1688
(lp1689
I109
aI2
aI248
aasS'ID_32_F1_17_F2_4_G_4_SplitPt_222_GenID_0'
p1690
(lp1691
(lp1692
I127
aI221
aI500
aa(lp1693
I149
aI1
aI222
aasS'ID_118_F1_13_F2_17_G_3_SplitPt_60_GenID_0'
p1694
(lp1695
(lp1696
I22
aI71
aI500
aasS'f15_3'
p1697
(lp1698
(lp1699
I20
aI1
aI431
aasS'f15_30'
p1700
(lp1701
(lp1702
I13
aI4
aI250
aa(lp1703
I11
aI265
aI496
aasS'f15_31'
p1704
(lp1705
(lp1706
I13
aI4
aI230
aa(lp1707
I11
aI247
aI494
aasS'f10_1'
p1708
(lp1709
(lp1710
I37
aI7
aI461
aasS'f10_0'
p1711
(lp1712
(lp1713
I37
aI16
aI497
aasS'f10_2'
p1714
(lp1715
(lp1716
I37
aI10
aI499
aasS'f10_5'
p1717
(lp1718
(lp1719
I37
aI10
aI303
aasS'f10_4'
p1720
(lp1721
(lp1722
I37
aI15
aI460
aasS'f10_7'
p1723
(lp1724
(lp1725
I106
aI165
aI330
aasS'f10_6'
p1726
(lp1727
(lp1728
I37
aI13
aI461
aasS'f4_17'
p1729
(lp1730
(lp1731
I53
aI8
aI496
aasS'f4_16'
p1732
(lp1733
(lp1734
I53
aI31
aI498
aasS'f4_15'
p1735
(lp1736
(lp1737
I150
aI14
aI267
aasS'f4_13'
p1738
(lp1739
(lp1740
I150
aI11
aI394
aasS'f4_12'
p1741
(lp1742
(lp1743
I126
aI7
aI456
aasS'f4_11'
p1744
(lp1745
(lp1746
I127
aI231
aI495
aa(lp1747
I150
aI6
aI452
aasS'f4_10'
p1748
(lp1749
(lp1750
I127
aI229
aI495
aa(lp1751
I150
aI5
aI201
aasS'f12_7'
p1752
(lp1753
(lp1754
I114
aI126
aI487
aasS'f12_6'
p1755
(lp1756
(lp1757
I114
aI14
aI498
aasS'f12_5'
p1758
(lp1759
(lp1760
I114
aI252
aI494
aasS'f12_4'
p1761
(lp1762
(lp1763
I143
aI2
aI66
aa(lp1764
I114
aI179
aI494
aasS'f12_3'
p1765
(lp1766
(lp1767
I114
aI14
aI498
aasS'f12_2'
p1768
(lp1769
(lp1770
I114
aI88
aI494
aasS'f4_19'
p1771
(lp1772
(lp1773
I53
aI11
aI418
aasS'ID_51_F1_18_F2_5_G_4_SplitPt_125_GenID_0'
p1774
(lp1775
(lp1776
I69
aI1
aI130
aa(lp1777
I1
aI128
aI500
aasS'f3_27'
p1778
(lp1779
(lp1780
I56
aI75
aI340
aasS'f3_26'
p1781
(lp1782
(lp1783
I56
aI75
aI410
aasS'f3_25'
p1784
(lp1785
(lp1786
I56
aI88
aI490
aasS'f3_24'
p1787
(lp1788
(lp1789
I56
aI76
aI498
aasS'f3_23'
p1790
(lp1791
(lp1792
I151
aI1
aI207
aa(lp1793
I115
aI20
aI472
aasS'f3_22'
p1794
(lp1795
(lp1796
I151
aI2
aI206
aa(lp1797
I115
aI75
aI455
aasS'f3_21'
p1798
(lp1799
(lp1800
I151
aI2
aI208
aasS'f3_20'
p1801
(lp1802
(lp1803
I151
aI7
aI208
aasS'f3_29'
p1804
(lp1805
(lp1806
I56
aI72
aI488
aasS'f3_28'
p1807
(lp1808
(lp1809
I56
aI75
aI484
aasS'f6_19'
p1810
(lp1811
(lp1812
I119
aI9
aI498
aasS'f6_18'
p1813
(lp1814
(lp1815
I136
aI75
aI282
aasS'f6_15'
p1816
(lp1817
(lp1818
I47
aI59
aI500
aasS'f6_14'
p1819
(lp1820
(lp1821
I47
aI50
aI500
aasS'f6_17'
p1822
(lp1823
(lp1824
I119
aI9
aI497
aasS'f6_16'
p1825
(lp1826
(lp1827
I119
aI53
aI493
aasS'f6_11'
p1828
(lp1829
(lp1830
I47
aI66
aI499
aasS'f6_10'
p1831
(lp1832
(lp1833
I4
aI1
aI160
aasS'f6_13'
p1834
(lp1835
(lp1836
I47
aI66
aI499
aasS'f6_12'
p1837
(lp1838
(lp1839
I47
aI75
aI499
aasS'ID_106_F1_0_F2_13_G_3_SplitPt_64_GenID_0'
p1840
(lp1841
(lp1842
I152
aI3
aI61
aa(lp1843
I128
aI61
aI497
aasS'ID_1_F1_10_F2_13_G_2_SplitPt_190_GenID_0'
p1844
(lp1845
(lp1846
I128
aI193
aI500
aasS'f14_31'
p1847
(lp1848
(lp1849
I64
aI78
aI498
aasS'ID_43_F1_0_F2_19_G_4_SplitPt_191_GenID_0'
p1850
(lp1851
(lp1852
I18
aI1
aI199
aa(lp1853
I7
aI185
aI500
aasS'f15_8'
p1854
(lp1855
(lp1856
I20
aI8
aI493
aasS'f7_30'
p1857
(lp1858
(lp1859
I129
aI7
aI122
aasS'f12_17'
p1860
(lp1861
(lp1862
I28
aI2
aI478
aasS'f12_16'
p1863
(lp1864
(lp1865
I28
aI16
aI464
aasS'f12_15'
p1866
(lp1867
(lp1868
I114
aI14
aI499
aasS'f12_14'
p1869
(lp1870
(lp1871
I114
aI32
aI500
aasS'f12_13'
p1872
(lp1873
(lp1874
I114
aI3
aI494
aasS'f12_12'
p1875
(lp1876
(lp1877
I114
aI3
aI500
aasS'f12_11'
p1878
(lp1879
(lp1880
I114
aI174
aI499
aasS'ID_26_F1_15_F2_17_G_3_SplitPt_52_GenID_0'
p1881
(lp1882
(lp1883
I19
aI49
aI499
aasS'ID_110_F1_4_F2_9_G_3_SplitPt_103_GenID_0'
p1884
(lp1885
(lp1886
I153
aI103
aI158
aa(lp1887
I94
aI1
aI122
aasS'f12_19'
p1888
(lp1889
(lp1890
I28
aI115
aI475
aasS'f12_18'
p1891
(lp1892
(lp1893
I28
aI16
aI475
aasS'ID_120_F1_16_F2_0_G_3_SplitPt_72_GenID_0'
p1894
(lp1895
(lp1896
I31
aI73
aI498
aasS'f11_30'
p1897
(lp1898
(lp1899
I41
aI6
aI382
aasS'f11_31'
p1900
(lp1901
(lp1902
I41
aI6
aI357
aasS'ID_94_F1_9_F2_12_G_4_SplitPt_159_GenID_0'
p1903
(lp1904
(lp1905
I153
aI103
aI158
aa(lp1906
I101
aI1
aI55
aa(lp1907
I114
aI138
aI500
aasS'f19_11'
p1908
(lp1909
(lp1910
I7
aI71
aI497
aasS'ID_83_F1_9_F2_16_G_1_SplitPt_77_GenID_0'
p1911
(lp1912
(lp1913
I58
aI236
aI492
aasS'f18_19'
p1914
(lp1915
(lp1916
I69
aI1
aI125
aa(lp1917
I5
aI16
aI446
aasS'f18_18'
p1918
(lp1919
(lp1920
I69
aI2
aI136
aa(lp1921
I5
aI56
aI500
aasS'ID_122_F1_16_F2_9_G_1_SplitPt_70_GenID_0'
p1922
(lp1923
(lp1924
I6
aI71
aI463
aasS'f18_10'
p1925
(lp1926
(lp1927
I142
aI1
aI442
aasS'f18_17'
p1928
(lp1929
(lp1930
I5
aI82
aI452
aasS'f19_0'
p1931
(lp1932
(lp1933
I7
aI80
aI500
aasS'f12_27'
p1934
(lp1935
(lp1936
I114
aI3
aI332
aasS'ID_34_F1_9_F2_14_G_3_SplitPt_56_GenID_0'
p1937
(lp1938
(lp1939
I101
aI1
aI55
aa(lp1940
I64
aI57
aI500
aasS'f0_11'
p1941
(lp1942
(lp1943
I131
aI17
aI165
aa(lp1944
I31
aI73
aI500
aasS'f14_28'
p1945
(lp1946
(lp1947
I137
aI3
aI79
aa(lp1948
I64
aI78
aI498
aasS'f14_29'
p1949
(lp1950
(lp1951
I137
aI1
aI120
aa(lp1952
I64
aI99
aI488
aasS'f0_10'
p1953
(lp1954
(lp1955
I31
aI79
aI494
aasS'f1_30'
p1956
(lp1957
(lp1958
I112
aI168
aI475
aasS'f1_31'
p1959
(lp1960
(lp1961
I113
aI150
aI500
aasS'f14_20'
p1962
(lp1963
(lp1964
I64
aI57
aI497
aasS'f12_22'
p1965
(lp1966
(lp1967
I28
aI6
aI248
aasS'f14_22'
p1968
(lp1969
(lp1970
I64
aI61
aI500
aasS'f12_10'
p1971
(lp1972
(lp1973
I114
aI32
aI478
aasS'f14_24'
p1974
(lp1975
(lp1976
I64
aI99
aI500
aasS'f14_25'
p1977
(lp1978
(lp1979
I144
aI2
aI242
aa(lp1980
I64
aI116
aI497
aasS'f14_26'
p1981
(lp1982
(lp1983
I145
aI172
aI236
aasS'f14_27'
p1984
(lp1985
(lp1986
I55
aI173
aI304
aasS'f2_28'
p1987
(lp1988
(lp1989
I111
aI20
aI452
aasS'f2_29'
p1990
(lp1991
(lp1992
I111
aI3
aI480
aasS'f10_13'
p1993
(lp1994
(lp1995
I37
aI166
aI496
aasS'f10_12'
p1996
(lp1997
(lp1998
I37
aI58
aI500
aasS'f10_15'
p1999
(lp2000
(lp2001
I37
aI85
aI492
aasS'f3_14'
p2002
(lp2003
(lp2004
I56
aI25
aI414
aasS'f12_0'
p2005
(lp2006
(lp2007
I114
aI281
aI487
aasS'f10_19'
p2008
(lp2009
(lp2010
I71
aI196
aI348
aasS'f2_21'
p2011
(lp2012
(lp2013
I25
aI81
aI495
aasS'f2_22'
p2014
(lp2015
(lp2016
I107
aI1
aI103
aa(lp2017
I25
aI56
aI492
aasS'f2_23'
p2018
(lp2019
(lp2020
I107
aI1
aI103
aa(lp2021
I25
aI66
aI454
aasS'f2_24'
p2022
(lp2023
(lp2024
I117
aI2
aI76
aasS'f2_25'
p2025
(lp2026
(lp2027
I139
aI142
aI257
aa(lp2028
I117
aI1
aI58
aasS'f2_26'
p2029
(lp2030
(lp2031
I111
aI3
aI452
aasS'ID_29_F1_9_F2_4_G_2_SplitPt_128_GenID_0'
p2032
(lp2033
(lp2034
I103
aI10
aI128
aa(lp2035
I53
aI103
aI498
aasS'f19_5'
p2036
(lp2037
(lp2038
I7
aI14
aI499
aasS'ID_5_F1_4_F2_6_G_3_SplitPt_74_GenID_0'
p2039
(lp2040
(lp2041
I35
aI1
aI71
aa(lp2042
I47
aI43
aI499
aasS'f13_25'
p2043
(lp2044
(lp2045
I128
aI2
aI488
aasS'f13_24'
p2046
(lp2047
(lp2048
I154
aI274
aI405
aasS'f13_27'
p2049
(lp2050
(lp2051
I128
aI61
aI484
aasS'f13_26'
p2052
(lp2053
(lp2054
I128
aI5
aI497
aasS'f13_21'
p2055
(lp2056
(lp2057
I128
aI5
aI375
aasS'f13_20'
p2058
(lp2059
(lp2060
I154
aI274
aI405
aasS'f13_23'
p2061
(lp2062
(lp2063
I74
aI186
aI413
aasS'ID_58_F1_7_F2_11_G_3_SplitPt_247_GenID_0'
p2064
(lp2065
(lp2066
I40
aI396
aI493
aa(lp2067
I130
aI5
aI246
aasS'ID_74_F1_3_F2_1_G_4_SplitPt_205_GenID_0'
p2068
(lp2069
(lp2070
I151
aI1
aI208
aa(lp2071
I95
aI183
aI500
aasS'f13_28'
p2072
(lp2073
(lp2074
I128
aI197
aI500
aasS'ID_30_F1_14_F2_1_G_2_SplitPt_170_GenID_0'
p2075
(lp2076
(lp2077
I99
aI164
aI489
aasS'ID_79_F1_12_F2_5_G_4_SplitPt_248_GenID_0'
p2078
(lp2079
(lp2080
I1
aI232
aI500
aa(lp2081
I28
aI1
aI292
aasS'ID_78_F1_15_F2_13_G_4_SplitPt_248_GenID_0'
p2082
(lp2083
(lp2084
I74
aI207
aI500
aa(lp2085
I20
aI1
aI276
aasS'ID_97_F1_2_F2_9_G_2_SplitPt_92_GenID_0'
p2086
(lp2087
(lp2088
I6
aI91
aI500
aasS'f16_31'
p2089
(lp2090
(lp2091
I85
aI19
aI96
aa(lp2092
I58
aI53
aI499
aasS'f16_30'
p2093
(lp2094
(lp2095
I85
aI4
aI107
aa(lp2096
I58
aI80
aI499
aasS'ID_15_F1_2_F2_4_G_2_SplitPt_152_GenID_0'
p2097
(lp2098
(lp2099
I53
aI154
aI443
aasS'f19_10'
p2100
(lp2101
(lp2102
I7
aI88
aI499
aasS'f0_19'
p2103
(lp2104
(lp2105
I148
aI132
aI238
aa(lp2106
I70
aI5
aI94
aasS'f0_18'
p2107
(lp2108
(lp2109
I70
aI3
aI93
aasS'f12_28'
p2110
(lp2111
(lp2112
I84
aI6
aI131
aasS'f12_29'
p2113
(lp2114
(lp2115
I84
aI6
aI123
aa(lp2116
I28
aI59
aI500
aasS'f12_26'
p2117
(lp2118
(lp2119
I28
aI2
aI327
aasS'f0_12'
p2120
(lp2121
(lp2122
I31
aI34
aI425
aasS'f12_24'
p2123
(lp2124
(lp2125
I84
aI1
aI115
aasS'f12_25'
p2126
(lp2127
(lp2128
I84
aI1
aI183
aasS'f0_17'
p2129
(lp2130
(lp2131
I152
aI3
aI61
aasS'f0_16'
p2132
(lp2133
(lp2134
I30
aI1
aI89
aasS'f12_20'
p2135
(lp2136
(lp2137
I114
aI205
aI411
aasS'ID_73_F1_19_F2_5_G_3_SplitPt_70_GenID_0'
p2138
(lp2139
(lp2140
I116
aI2
aI71
aa(lp2141
I1
aI75
aI500
aasS'f17_18'
p2142
(lp2143
(lp2144
I149
aI7
aI168
aa(lp2145
I19
aI60
aI499
aasS'f17_19'
p2146
(lp2147
(lp2148
I149
aI6
aI218
aa(lp2149
I19
aI60
aI498
aasS'f17_14'
p2150
(lp2151
(lp2152
I155
aI283
aI496
aasS'f17_15'
p2153
(lp2154
(lp2155
I156
aI281
aI337
aasS'f17_16'
p2156
(lp2157
(lp2158
I149
aI1
aI216
aa(lp2159
I19
aI25
aI500
aasS'f17_17'
p2160
(lp2161
(lp2162
I149
aI1
aI282
aa(lp2163
I19
aI71
aI494
aasS'f17_10'
p2164
(lp2165
(lp2166
I156
aI281
aI337
aasS'f17_11'
p2167
(lp2168
(lp2169
I155
aI283
aI496
aasS'f17_12'
p2170
(lp2171
(lp2172
I22
aI1
aI492
aasS'ID_11_F1_0_F2_6_G_4_SplitPt_235_GenID_0'
p2173
(lp2174
(lp2175
I119
aI217
aI500
aa(lp2176
I18
aI1
aI244
aasS'ID_28_F1_4_F2_2_G_2_SplitPt_203_GenID_0'
p2177
(lp2178
(lp2179
I150
aI13
aI201
aa(lp2180
I24
aI198
aI495
aasS'f19_18'
p2181
(lp2182
(lp2183
I7
aI6
aI499
aas.